

Microchip MPLAB XC8 Assembler V2.32 build 20210201212658 
                                                                                               Thu May 27 08:47:46 2021

Microchip MPLAB XC8 C Compiler v2.32 (Free license) build 20210201212658 Og1 
     1                           	processor	18F4550
     2                           	fnconf	rparam,??,?,0
     3                           	pagewidth 120
     4                           	opt	flic
     5                           	psect	idataCOMRAM,global,class=CODE,delta=1,noexec
     6                           	psect	smallconst,global,reloc=2,class=SMALLCONST,delta=1,noexec
     7                           	psect	cinit,global,reloc=2,class=CODE,delta=1
     8                           	psect	bssCOMRAM,global,class=COMRAM,space=1,delta=1,lowdata,noexec
     9                           	psect	dataCOMRAM,global,class=COMRAM,space=1,delta=1,lowdata,noexec
    10                           	psect	cstackBANK0,global,class=BANK0,space=1,delta=1,lowdata,noexec
    11                           	psect	cstackCOMRAM,global,class=COMRAM,space=1,delta=1,lowdata,noexec
    12                           	psect	text0,global,reloc=2,class=CODE,delta=1
    13                           	psect	text1,global,reloc=2,class=CODE,delta=1
    14                           	psect	text2,global,reloc=2,class=CODE,delta=1
    15                           	psect	text3,global,reloc=2,class=CODE,delta=1
    16                           	psect	text4,global,reloc=2,class=CODE,delta=1
    17                           	psect	text5,global,reloc=2,class=CODE,delta=1
    18                           	psect	text6,global,reloc=2,class=CODE,delta=1
    19                           	psect	text7,global,reloc=2,class=CODE,delta=1
    20                           	psect	text8,global,reloc=2,class=CODE,delta=1
    21                           	psect	text9,global,reloc=2,class=CODE,delta=1,group=2
    22                           	psect	text10,global,reloc=2,class=CODE,delta=1
    23                           	psect	text11,global,reloc=2,class=CODE,delta=1
    24                           	psect	text12,global,reloc=2,class=CODE,delta=1
    25                           	psect	text13,global,reloc=2,class=CODE,delta=1,group=1
    26                           	psect	text14,global,reloc=2,class=CODE,delta=1
    27                           	psect	text15,global,reloc=2,class=CODE,delta=1,group=2
    28                           	psect	text16,global,reloc=2,class=CODE,delta=1,group=1
    29                           	psect	text17,global,reloc=2,class=CODE,delta=1,group=1
    30                           	psect	text18,global,reloc=2,class=CODE,delta=1,group=1
    31                           	psect	text19,global,reloc=2,class=CODE,delta=1,group=1
    32                           	psect	text20,global,reloc=2,class=CODE,delta=1,group=1
    33                           	psect	text21,global,reloc=2,class=CODE,delta=1,group=1
    34                           	psect	text22,global,reloc=2,class=CODE,delta=1,group=1
    35                           	psect	text23,global,reloc=2,class=CODE,delta=1
    36                           	psect	intcode,global,reloc=2,class=CODE,delta=1
    37                           	psect	intcode_body,global,reloc=2,class=CODE,delta=1
    38                           	psect	text25,global,reloc=2,class=CODE,delta=1
    39                           	psect	text26,global,reloc=2,class=CODE,delta=1
    40                           	psect	text27,global,reloc=2,class=CODE,delta=1
    41                           	psect	text28,global,reloc=2,class=CODE,delta=1
    42                           	psect	text29,global,reloc=2,class=CODE,delta=1
    43                           	psect	text30,global,reloc=2,class=CODE,delta=1
    44                           	psect	text31,global,reloc=2,class=CODE,delta=1
    45                           	psect	text32,global,reloc=2,class=CODE,delta=1
    46                           	psect	text33,global,reloc=2,class=CODE,delta=1
    47                           	psect	intsave_regs,global,class=BIGRAM,space=1,delta=1,noexec
    48                           	psect	rparam,global,class=COMRAM,space=1,delta=1,noexec
    49                           	psect	temp,global,ovrld,common,class=COMRAM,space=1,delta=1
    50                           	psect	idloc,global,abs,ovrld,class=IDLOC,space=5,delta=1,noexec
    51                           	psect	config,global,abs,ovrld,class=CONFIG,space=4,delta=1,noexec
    52  0000                     
    53                           ; Version 2.20
    54                           ; Generated 12/02/2020 GMT
    55                           ; 
    56                           ; Copyright © 2020, Microchip Technology Inc. and its subsidiaries ("Microchip")
    57                           ; All rights reserved.
    58                           ; 
    59                           ; This software is developed by Microchip Technology Inc. and its subsidiaries ("Microch
      +                          ip").
    60                           ; 
    61                           ; Redistribution and use in source and binary forms, with or without modification, are
    62                           ; permitted provided that the following conditions are met:
    63                           ; 
    64                           ;     1. Redistributions of source code must retain the above copyright notice, this lis
      +                          t of
    65                           ;        conditions and the following disclaimer.
    66                           ; 
    67                           ;     2. Redistributions in binary form must reproduce the above copyright notice, this 
      +                          list
    68                           ;        of conditions and the following disclaimer in the documentation and/or other
    69                           ;        materials provided with the distribution.
    70                           ; 
    71                           ;     3. Microchip's name may not be used to endorse or promote products derived from th
      +                          is
    72                           ;        software without specific prior written permission.
    73                           ; 
    74                           ; THIS SOFTWARE IS PROVIDED BY MICROCHIP "AS IS" AND ANY EXPRESS OR IMPLIED WARRANTIES,
    75                           ; INCLUDING, BUT NOT LIMITED TO, THE IMPLIED WARRANTIES OF MERCHANTABILITY AND FITNESS F
      +                          OR
    76                           ; PURPOSE ARE DISCLAIMED.  IN NO EVENT SHALL MICROCHIP BE LIABLE FOR ANY DIRECT, INDIREC
      +                          T,
    77                           ; INCIDENTAL, SPECIAL, EXEMPLARY, OR CONSEQUENTIAL DAMAGES (INCLUDING BUT NOT LIMITED TO
    78                           ; PROCUREMENT OF SUBSTITUTE GOODS OR SERVICES; LOSS OF USE, DATA OR PROFITS; OR BUSINESS
    79                           ; INTERRUPTION) HOWSOEVER CAUSED AND ON ANY THEORY OF LIABILITY, WHETHER IN CONTRACT, ST
      +                          RICT
    80                           ; LIABILITY, OR TORT (INCLUDING NEGLIGENCE OR OTHERWISE) ARISING IN ANY WAY OUT OF THE U
      +                          SE OF
    81                           ; THIS SOFTWARE, EVEN IF ADVISED OF THE POSSIBILITY OF SUCH DAMAGE.
    82                           ; 
    83                           ; 
    84                           ; Code-generator required, PIC18F4550 Definitions
    85                           ; 
    86                           ; SFR Addresses
    87  0000                     
    88                           	psect	idataCOMRAM
    89  002788                     __pidataCOMRAM:
    90                           	callstack 0
    91                           
    92                           ;initializer for LCD_init@F3785
    93  002788  30                 	db	48
    94  002789  30                 	db	48
    95  00278A  30                 	db	48
    96  00278B  38                 	db	56
    97  00278C  0F                 	db	15
    98  00278D  06                 	db	6
    99  00278E  01                 	db	1
   100                           
   101                           ;initializer for _doorStatus
   102  00278F  04                 	db	4
   103  0000                     _ADRESL	set	4035
   104  0000                     _ADCON0bits	set	4034
   105  0000                     _ADCON2	set	4032
   106  0000                     _ADCON1	set	4033
   107  0000                     _ADCON0	set	4034
   108  0000                     _TRISAbits	set	3986
   109  0000                     _INTCON2bits	set	4081
   110  0000                     _INTCON3bits	set	4080
   111  0000                     _INTCONbits	set	4082
   112  0000                     _RCONbits	set	4048
   113  0000                     _PORTD	set	3971
   114  0000                     _PORTEbits	set	3972
   115  0000                     _TRISE	set	3990
   116  0000                     _TRISD	set	3989
   117  0000                     _ADRESH	set	4036
   118                           
   119                           	psect	smallconst
   120  000800                     __psmallconst:
   121                           	callstack 0
   122  000800  00                 	db	0
   123  000801                     STR_1:
   124  000801  49                 	db	73	;'I'
   125  000802  6E                 	db	110	;'n'
   126  000803  69                 	db	105	;'i'
   127  000804  63                 	db	99	;'c'
   128  000805  69                 	db	105	;'i'
   129  000806  61                 	db	97	;'a'
   130  000807  6C                 	db	108	;'l'
   131  000808  69                 	db	105	;'i'
   132  000809  7A                 	db	122	;'z'
   133  00080A  61                 	db	97	;'a'
   134  00080B  6E                 	db	110	;'n'
   135  00080C  64                 	db	100	;'d'
   136  00080D  6F                 	db	111	;'o'
   137  00080E  00                 	db	0
   138  00080F                     STR_5:
   139  00080F  46                 	db	70	;'F'
   140  000810  65                 	db	101	;'e'
   141  000811  63                 	db	99	;'c'
   142  000812  68                 	db	104	;'h'
   143  000813  61                 	db	97	;'a'
   144  000814  64                 	db	100	;'d'
   145  000815  61                 	db	97	;'a'
   146  000816  20                 	db	32
   147  000817  20                 	db	32
   148  000818  20                 	db	32
   149  000819  20                 	db	32
   150  00081A  00                 	db	0
   151  00081B                     STR_10:
   152  00081B  46                 	db	70	;'F'
   153  00081C  65                 	db	101	;'e'
   154  00081D  63                 	db	99	;'c'
   155  00081E  68                 	db	104	;'h'
   156  00081F  61                 	db	97	;'a'
   157  000820  6E                 	db	110	;'n'
   158  000821  64                 	db	100	;'d'
   159  000822  6F                 	db	111	;'o'
   160  000823  2E                 	db	46
   161  000824  2E                 	db	46
   162  000825  2E                 	db	46
   163  000826  00                 	db	0
   164  000827                     STR_2:
   165  000827  43                 	db	67	;'C'
   166  000828  4F                 	db	79	;'O'
   167  000829  4E                 	db	78	;'N'
   168  00082A  54                 	db	84	;'T'
   169  00082B  52                 	db	82	;'R'
   170  00082C  4F                 	db	79	;'O'
   171  00082D  4C                 	db	76	;'L'
   172  00082E  41                 	db	65	;'A'
   173  00082F  44                 	db	68	;'D'
   174  000830  4F                 	db	79	;'O'
   175  000831  52                 	db	82	;'R'
   176  000832  00                 	db	0
   177  000833                     STR_8:
   178  000833  41                 	db	65	;'A'
   179  000834  62                 	db	98	;'b'
   180  000835  65                 	db	101	;'e'
   181  000836  72                 	db	114	;'r'
   182  000837  74                 	db	116	;'t'
   183  000838  61                 	db	97	;'a'
   184  000839  20                 	db	32
   185  00083A  20                 	db	32
   186  00083B  20                 	db	32
   187  00083C  20                 	db	32
   188  00083D  00                 	db	0
   189  00083E                     STR_7:
   190  00083E  41                 	db	65	;'A'
   191  00083F  62                 	db	98	;'b'
   192  000840  72                 	db	114	;'r'
   193  000841  69                 	db	105	;'i'
   194  000842  6E                 	db	110	;'n'
   195  000843  64                 	db	100	;'d'
   196  000844  6F                 	db	111	;'o'
   197  000845  2E                 	db	46
   198  000846  2E                 	db	46
   199  000847  2E                 	db	46
   200  000848  00                 	db	0
   201  000849                     STR_16:
   202  000849  4D                 	db	77	;'M'
   203  00084A  6F                 	db	111	;'o'
   204  00084B  76                 	db	118	;'v'
   205  00084C  69                 	db	105	;'i'
   206  00084D  6D                 	db	109	;'m'
   207  00084E  65                 	db	101	;'e'
   208  00084F  6E                 	db	110	;'n'
   209  000850  74                 	db	116	;'t'
   210  000851  6F                 	db	111	;'o'
   211  000852  3A                 	db	58	;':'
   212  000853  00                 	db	0
   213  000854                     STR_13:
   214  000854  45                 	db	69	;'E'
   215  000855  6D                 	db	109	;'m'
   216  000856  65                 	db	101	;'e'
   217  000857  72                 	db	114	;'r'
   218  000858  67                 	db	103	;'g'
   219  000859  65                 	db	101	;'e'
   220  00085A  6E                 	db	110	;'n'
   221  00085B  63                 	db	99	;'c'
   222  00085C  69                 	db	105	;'i'
   223  00085D  61                 	db	97	;'a'
   224  00085E  00                 	db	0
   225  00085F                     STR_12:
   226  00085F  49                 	db	73	;'I'
   227  000860  4E                 	db	78	;'N'
   228  000861  43                 	db	67	;'C'
   229  000862  45                 	db	69	;'E'
   230  000863  4E                 	db	78	;'N'
   231  000864  44                 	db	68	;'D'
   232  000865  49                 	db	73	;'I'
   233  000866  4F                 	db	79	;'O'
   234  000867  21                 	db	33
   235  000868  00                 	db	0
   236  000869                     STR_14:
   237  000869  49                 	db	73	;'I'
   238  00086A  4E                 	db	78	;'N'
   239  00086B  56                 	db	86	;'V'
   240  00086C  41                 	db	65	;'A'
   241  00086D  53                 	db	83	;'S'
   242  00086E  41                 	db	65	;'A'
   243  00086F  4F                 	db	79	;'O'
   244  000870  21                 	db	33
   245  000871  00                 	db	0
   246  000872                     STR_3:
   247  000872  44                 	db	68	;'D'
   248  000873  41                 	db	65	;'A'
   249  000874  20                 	db	32
   250  000875  50                 	db	80	;'P'
   251  000876  4F                 	db	79	;'O'
   252  000877  52                 	db	82	;'R'
   253  000878  54                 	db	84	;'T'
   254  000879  41                 	db	65	;'A'
   255  00087A  00                 	db	0
   256  00087B                     STR_4:
   257  00087B  53                 	db	83	;'S'
   258  00087C  74                 	db	116	;'t'
   259  00087D  61                 	db	97	;'a'
   260  00087E  74                 	db	116	;'t'
   261  00087F  75                 	db	117	;'u'
   262  000880  73                 	db	115	;'s'
   263  000881  3A                 	db	58	;':'
   264  000882  00                 	db	0
   265  000883  00                 	db	0	; dummy byte at the end
   266  0000                     
   267                           ; #config settings
   268                           
   269                           	psect	cinit
   270  00267C                     __pcinit:
   271                           	callstack 0
   272  00267C                     start_initialization:
   273                           	callstack 0
   274  00267C                     __initialization:
   275                           	callstack 0
   276                           
   277                           ; Initialize objects allocated to COMRAM (8 bytes)
   278                           ; load TBLPTR registers with __pidataCOMRAM
   279  00267C  0E88               	movlw	low __pidataCOMRAM
   280  00267E  6EF6               	movwf	tblptrl,c
   281  002680  0E27               	movlw	high __pidataCOMRAM
   282  002682  6EF7               	movwf	tblptrh,c
   283  002684  0E00               	movlw	low (__pidataCOMRAM shr (0+16))
   284  002686  6EF8               	movwf	tblptru,c
   285  002688  EE00  F03D         	lfsr	0,__pdataCOMRAM
   286  00268C  EE10 F008          	lfsr	1,8
   287  002690                     copy_data0:
   288  002690  0009               	tblrd		*+
   289  002692  CFF5 FFEE          	movff	tablat,postinc0
   290  002696  50E5               	movf	postdec1,w,c
   291  002698  50E1               	movf	fsr1l,w,c
   292  00269A  E1FA               	bnz	copy_data0
   293                           
   294                           ; Clear objects allocated to COMRAM (4 bytes)
   295  00269C  6A48               	clrf	(__pbssCOMRAM+3)& (0+255),c
   296  00269E  6A47               	clrf	(__pbssCOMRAM+2)& (0+255),c
   297  0026A0  6A46               	clrf	(__pbssCOMRAM+1)& (0+255),c
   298  0026A2  6A45               	clrf	__pbssCOMRAM& (0+255),c
   299  0026A4                     end_of_initialization:
   300                           	callstack 0
   301  0026A4                     __end_of__initialization:
   302                           	callstack 0
   303  0026A4  9049               	bcf	int$flags,0,c	;clear compiler interrupt flag (level 1)
   304  0026A6  9249               	bcf	int$flags,1,c	;clear compiler interrupt flag (level 2)
   305  0026A8  0E00               	movlw	low (__Lmediumconst shr (0+16))
   306  0026AA  6EF8               	movwf	tblptru,c
   307  0026AC  0100               	movlb	0
   308  0026AE  EF8F  F00B         	goto	_main	;jump to C main() function
   309                           
   310                           	psect	bssCOMRAM
   311  000045                     __pbssCOMRAM:
   312                           	callstack 0
   313  000045                     floorf@F527:
   314                           	callstack 0
   315  000045                     	ds	4
   316                           
   317                           	psect	dataCOMRAM
   318  00003D                     __pdataCOMRAM:
   319                           	callstack 0
   320  00003D                     LCD_init@F3785:
   321                           	callstack 0
   322  00003D                     	ds	7
   323  000044                     _doorStatus:
   324                           	callstack 0
   325  000044                     	ds	1
   326                           
   327                           	psect	cstackBANK0
   328  000060                     __pcstackBANK0:
   329                           	callstack 0
   330  000060                     ___flmul@sign:
   331                           	callstack 0
   332                           
   333                           ; 1 bytes @ 0x0
   334  000060                     	ds	1
   335  000061                     ___flmul@aexp:
   336                           	callstack 0
   337                           
   338                           ; 1 bytes @ 0x1
   339  000061                     	ds	1
   340  000062                     ___flmul@grs:
   341                           	callstack 0
   342                           
   343                           ; 4 bytes @ 0x2
   344  000062                     	ds	4
   345  000066                     ___flmul@bexp:
   346                           	callstack 0
   347                           
   348                           ; 1 bytes @ 0x6
   349  000066                     	ds	1
   350  000067                     ___flmul@prod:
   351                           	callstack 0
   352                           
   353                           ; 4 bytes @ 0x7
   354  000067                     	ds	4
   355  00006B                     ___flmul@temp:
   356                           	callstack 0
   357                           
   358                           ; 2 bytes @ 0xB
   359  00006B                     	ds	2
   360  00006D                     ___fldiv@rem:
   361                           	callstack 0
   362                           
   363                           ; 4 bytes @ 0xD
   364  00006D                     	ds	4
   365  000071                     ___fldiv@sign:
   366                           	callstack 0
   367                           
   368                           ; 1 bytes @ 0x11
   369  000071                     	ds	1
   370  000072                     ___fldiv@new_exp:
   371                           	callstack 0
   372                           
   373                           ; 2 bytes @ 0x12
   374  000072                     	ds	2
   375  000074                     ___fldiv@grs:
   376                           	callstack 0
   377                           
   378                           ; 4 bytes @ 0x14
   379  000074                     	ds	4
   380  000078                     ___fldiv@bexp:
   381                           	callstack 0
   382                           
   383                           ; 1 bytes @ 0x18
   384  000078                     	ds	1
   385  000079                     ___fldiv@aexp:
   386                           	callstack 0
   387                           
   388                           ; 1 bytes @ 0x19
   389  000079                     	ds	1
   390  00007A                     LCD_printFloatNumber@number:
   391                           	callstack 0
   392                           
   393                           ; 4 bytes @ 0x1A
   394  00007A                     	ds	4
   395  00007E                     LCD_printFloatNumber@precision:
   396                           	callstack 0
   397                           
   398                           ; 2 bytes @ 0x1E
   399  00007E                     	ds	2
   400  000080                     ??_LCD_printFloatNumber:
   401                           
   402                           ; 1 bytes @ 0x20
   403  000080                     	ds	5
   404  000085                     LCD_printFloatNumber@digit:
   405                           	callstack 0
   406                           
   407                           ; 1 bytes @ 0x25
   408  000085                     	ds	1
   409  000086                     LCD_printFloatNumber@aux:
   410                           	callstack 0
   411                           
   412                           ; 1 bytes @ 0x26
   413  000086                     	ds	1
   414  000087                     LCD_printFloatNumber@counter:
   415                           	callstack 0
   416                           
   417                           ; 1 bytes @ 0x27
   418  000087                     	ds	1
   419  000088                     ??_main:
   420                           
   421                           ; 1 bytes @ 0x28
   422  000088                     	ds	2
   423  00008A                     main@previousValue:
   424                           	callstack 0
   425                           
   426                           ; 4 bytes @ 0x2A
   427  00008A                     	ds	4
   428  00008E                     main@distance:
   429                           	callstack 0
   430                           
   431                           ; 4 bytes @ 0x2E
   432  00008E                     	ds	4
   433  000092                     main@value:
   434                           	callstack 0
   435                           
   436                           ; 4 bytes @ 0x32
   437  000092                     	ds	4
   438                           
   439                           	psect	cstackCOMRAM
   440  000001                     __pcstackCOMRAM:
   441                           	callstack 0
   442  000001                     ?i2_strlen:
   443                           	callstack 0
   444  000001                     i2LCD_placeCursorInPosition@position:
   445                           	callstack 0
   446  000001                     i2strlen@s:
   447                           	callstack 0
   448  000001                     i2LCD_customDelay_ms@ms:
   449                           	callstack 0
   450                           
   451                           ; 4 bytes @ 0x0
   452  000001                     	ds	2
   453  000003                     i2strlen@a:
   454                           	callstack 0
   455                           
   456                           ; 2 bytes @ 0x2
   457  000003                     	ds	2
   458  000005                     i2LCD_print@text:
   459                           	callstack 0
   460                           
   461                           ; 2 bytes @ 0x4
   462  000005                     	ds	2
   463  000007                     i2LCD_print@delay:
   464                           	callstack 0
   465                           
   466                           ; 4 bytes @ 0x6
   467  000007                     	ds	4
   468  00000B                     ??i2_LCD_print:
   469                           
   470                           ; 1 bytes @ 0xA
   471  00000B                     	ds	2
   472  00000D                     i2LCD_print@length:
   473                           	callstack 0
   474                           
   475                           ; 2 bytes @ 0xC
   476  00000D                     	ds	2
   477  00000F                     i2LCD_print@i:
   478                           	callstack 0
   479                           
   480                           ; 2 bytes @ 0xE
   481  00000F                     	ds	2
   482  000011                     ??_interrupt_service_routine:
   483  000011                     
   484                           ; 1 bytes @ 0x10
   485  000011                     	ds	6
   486  000017                     ?_strlen:
   487                           	callstack 0
   488  000017                     ?_floorf:
   489                           	callstack 0
   490  000017                     ?___fladd:
   491                           	callstack 0
   492  000017                     ?___xxtofl:
   493                           	callstack 0
   494  000017                     LCD_placeCursorInPosition@position:
   495                           	callstack 0
   496  000017                     LCD_printChar@letter:
   497                           	callstack 0
   498  000017                     strlen@s:
   499                           	callstack 0
   500  000017                     LCD_customDelay_ms@ms:
   501                           	callstack 0
   502  000017                     ___fleq@ff1:
   503                           	callstack 0
   504  000017                     ___flge@ff1:
   505                           	callstack 0
   506  000017                     ___fladd@b:
   507                           	callstack 0
   508  000017                     ___xxtofl@val:
   509                           	callstack 0
   510  000017                     floorf@x:
   511                           	callstack 0
   512  000017                     LCD_init@config:
   513                           	callstack 0
   514                           
   515                           ; 7 bytes @ 0x16
   516  000017                     	ds	2
   517  000019                     strlen@a:
   518                           	callstack 0
   519                           
   520                           ; 2 bytes @ 0x18
   521  000019                     	ds	2
   522  00001B                     ??_floorf:
   523  00001B                     ??___xxtofl:
   524  00001B                     LCD_print@text:
   525                           	callstack 0
   526  00001B                     ___fleq@ff2:
   527                           	callstack 0
   528  00001B                     ___flge@ff2:
   529                           	callstack 0
   530  00001B                     ___fladd@a:
   531                           	callstack 0
   532                           
   533                           ; 4 bytes @ 0x1A
   534  00001B                     	ds	2
   535  00001D                     LCD_print@delay:
   536                           	callstack 0
   537                           
   538                           ; 4 bytes @ 0x1C
   539  00001D                     	ds	1
   540  00001E                     LCD_init@i:
   541                           	callstack 0
   542                           
   543                           ; 2 bytes @ 0x1D
   544  00001E                     	ds	1
   545  00001F                     ??___fladd:
   546  00001F                     ??___fleq:
   547  00001F                     ??___flge:
   548  00001F                     ___xxtofl@sign:
   549                           	callstack 0
   550                           
   551                           ; 1 bytes @ 0x1E
   552  00001F                     	ds	1
   553  000020                     ___xxtofl@exp:
   554                           	callstack 0
   555                           
   556                           ; 1 bytes @ 0x1F
   557  000020                     	ds	1
   558  000021                     ??_LCD_print:
   559  000021                     ___xxtofl@arg:
   560                           	callstack 0
   561  000021                     floorf@m:
   562                           	callstack 0
   563                           
   564                           ; 4 bytes @ 0x20
   565  000021                     	ds	2
   566  000023                     ___fladd@signs:
   567                           	callstack 0
   568  000023                     LCD_print@length:
   569                           	callstack 0
   570                           
   571                           ; 2 bytes @ 0x22
   572  000023                     	ds	1
   573  000024                     ___fladd@aexp:
   574                           	callstack 0
   575                           
   576                           ; 1 bytes @ 0x23
   577  000024                     	ds	1
   578  000025                     ?___flmul:
   579                           	callstack 0
   580  000025                     ___fladd@bexp:
   581                           	callstack 0
   582  000025                     LCD_print@i:
   583                           	callstack 0
   584  000025                     floorf@e:
   585                           	callstack 0
   586  000025                     ___flmul@b:
   587                           	callstack 0
   588                           
   589                           ; 4 bytes @ 0x24
   590  000025                     	ds	1
   591  000026                     ___fladd@grs:
   592                           	callstack 0
   593                           
   594                           ; 1 bytes @ 0x25
   595  000026                     	ds	1
   596  000027                     ??_doorController_init:
   597  000027                     ?___flsub:
   598                           	callstack 0
   599  000027                     ___flsub@b:
   600                           	callstack 0
   601  000027                     floorf@u:
   602                           	callstack 0
   603                           
   604                           ; 4 bytes @ 0x26
   605  000027                     	ds	2
   606  000029                     ___flmul@a:
   607                           	callstack 0
   608                           
   609                           ; 4 bytes @ 0x28
   610  000029                     	ds	2
   611  00002B                     ?___fltol:
   612                           	callstack 0
   613  00002B                     ___fltol@f1:
   614                           	callstack 0
   615  00002B                     ___flsub@a:
   616                           	callstack 0
   617                           
   618                           ; 4 bytes @ 0x2A
   619  00002B                     	ds	2
   620  00002D                     ??___flmul:
   621                           
   622                           ; 1 bytes @ 0x2C
   623  00002D                     	ds	2
   624  00002F                     ??___fltol:
   625                           
   626                           ; 1 bytes @ 0x2E
   627  00002F                     	ds	2
   628  000031                     ?___fldiv:
   629                           	callstack 0
   630  000031                     ___fldiv@b:
   631                           	callstack 0
   632                           
   633                           ; 4 bytes @ 0x30
   634  000031                     	ds	2
   635  000033                     ___fltol@sign1:
   636                           	callstack 0
   637                           
   638                           ; 1 bytes @ 0x32
   639  000033                     	ds	1
   640  000034                     ___fltol@exp1:
   641                           	callstack 0
   642                           
   643                           ; 1 bytes @ 0x33
   644  000034                     	ds	1
   645  000035                     ___fldiv@a:
   646                           	callstack 0
   647                           
   648                           ; 4 bytes @ 0x34
   649  000035                     	ds	4
   650  000039                     ??___fldiv:
   651                           
   652                           ; 1 bytes @ 0x38
   653  000039                     	ds	4
   654                           
   655 ;;
   656 ;;Main: autosize = 0, tempsize = 2, incstack = 0, save=0
   657 ;;
   658 ;; *************** function _main *****************
   659 ;; Defined at:
   660 ;;		line 37 in file "main.c"
   661 ;; Parameters:    Size  Location     Type
   662 ;;		None
   663 ;; Auto vars:     Size  Location     Type
   664 ;;  value           4   50[BANK0 ] PTR unsigned char 
   665 ;;  distance        4   46[BANK0 ] PTR unsigned char 
   666 ;;  previousValu    4   42[BANK0 ] PTR unsigned char 
   667 ;; Return value:  Size  Location     Type
   668 ;;                  1    wreg      void 
   669 ;; Registers used:
   670 ;;		wreg, fsr1l, fsr1h, fsr2l, fsr2h, status,2, status,0, tblptrl, tblptrh, tblptru, prodl, prodh, cstack
   671 ;; Tracked objects:
   672 ;;		On entry : 0/0
   673 ;;		On exit  : 0/0
   674 ;;		Unchanged: 0/0
   675 ;; Data sizes:     COMRAM   BANK0   BANK1   BANK2   BANK3   BANK4   BANK5   BANK6   BANK7
   676 ;;      Params:         0       0       0       0       0       0       0       0       0
   677 ;;      Locals:         0      12       0       0       0       0       0       0       0
   678 ;;      Temps:          0       2       0       0       0       0       0       0       0
   679 ;;      Totals:         0      14       0       0       0       0       0       0       0
   680 ;;Total ram usage:       14 bytes
   681 ;; Hardware stack levels required when called: 8
   682 ;; This function calls:
   683 ;;		_LCD_placeCursorInPosition
   684 ;;		_LCD_print
   685 ;;		_LCD_printChar
   686 ;;		_LCD_printFloatNumber
   687 ;;		___fldiv
   688 ;;		___fleq
   689 ;;		___flge
   690 ;;		___flmul
   691 ;;		___flsub
   692 ;;		___xxtofl
   693 ;;		_doorController_closingDoor
   694 ;;		_doorController_openingDoor
   695 ;;		_init
   696 ;; This function is called by:
   697 ;;		Startup code after reset
   698 ;; This function uses a non-reentrant model
   699 ;;
   700                           
   701                           	psect	text0
   702  00171E                     __ptext0:
   703                           	callstack 0
   704  00171E                     _main:
   705                           	callstack 23
   706  00171E                     
   707                           ;main.c: 39:  init();
   708  00171E  ECB1  F013         	call	_init	;wreg free
   709  001722                     
   710                           ;main.c: 42:  double previousValue = 0.0;
   711  001722  0E00               	movlw	0
   712  001724  0100               	movlb	0	; () banked
   713  001726  6F8A               	movwf	main@previousValue& (0+255),b
   714  001728  0E00               	movlw	0
   715  00172A  6F8B               	movwf	(main@previousValue+1)& (0+255),b
   716  00172C  0E00               	movlw	0
   717  00172E  6F8C               	movwf	(main@previousValue+2)& (0+255),b
   718  001730  0E00               	movlw	0
   719  001732  6F8D               	movwf	(main@previousValue+3)& (0+255),b
   720  001734                     l3619:
   721                           
   722                           ;main.c: 46:  {;main.c: 47:   if (doorStatus != fire && doorStatus != invasion) {
   723  001734  0444               	decf	_doorStatus^0,w,c
   724  001736  B4D8               	btfsc	status,2,c
   725  001738  EFA0  F00B         	goto	u4021
   726  00173C  EFA2  F00B         	goto	u4020
   727  001740                     u4021:
   728  001740  EF79  F00C         	goto	l3647
   729  001744                     u4020:
   730  001744  0E02               	movlw	2
   731  001746  1844               	xorwf	_doorStatus^0,w,c
   732  001748  B4D8               	btfsc	status,2,c
   733  00174A  EFA9  F00B         	goto	u4031
   734  00174E  EFAB  F00B         	goto	u4030
   735  001752                     u4031:
   736  001752  EF79  F00C         	goto	l3647
   737  001756                     u4030:
   738  001756                     
   739                           ;main.c: 50:    ADCON0bits.GO = 1;
   740  001756  82C2               	bsf	194,1,c	;volatile
   741  001758                     l137:
   742  001758  A2C2               	btfss	194,1,c	;volatile
   743  00175A  EFB1  F00B         	goto	u4041
   744  00175E  EFB3  F00B         	goto	u4040
   745  001762                     u4041:
   746  001762  EFAC  F00B         	goto	l137
   747  001766                     u4040:
   748  001766                     
   749                           ;main.c: 53:    value = (5.0) * ((ADRESH<<8) + ADRESL) / 1023;
   750  001766  0E00               	movlw	0
   751  001768  6E29               	movwf	___flmul@a^0,c
   752  00176A  0E00               	movlw	0
   753  00176C  6E2A               	movwf	(___flmul@a+1)^0,c
   754  00176E  0EA0               	movlw	160
   755  001770  6E2B               	movwf	(___flmul@a+2)^0,c
   756  001772  0E40               	movlw	64
   757  001774  6E2C               	movwf	(___flmul@a+3)^0,c
   758  001776  50C3               	movf	195,w,c	;volatile
   759  001778  CFC4 F088          	movff	4036,??_main	;volatile
   760  00177C  0100               	movlb	0	; () banked
   761  00177E  6B89               	clrf	(??_main+1)& (0+255),b
   762  001780  C088  F089         	movff	??_main,??_main+1
   763  001784  6B88               	clrf	??_main& (0+255),b
   764  001786  2788               	addwf	??_main& (0+255),f,b
   765  001788  0E00               	movlw	0
   766  00178A  2389               	addwfc	(??_main+1)& (0+255),f,b
   767  00178C  C088  F017         	movff	??_main,___xxtofl@val
   768  001790  C089  F018         	movff	??_main+1,___xxtofl@val+1
   769  001794  0E00               	movlw	0
   770  001796  BE18               	btfsc	(___xxtofl@val+1)^0,7,c
   771  001798  0EFF               	movlw	-1
   772  00179A  6E19               	movwf	(___xxtofl@val+2)^0,c
   773  00179C  6E1A               	movwf	(___xxtofl@val+3)^0,c
   774  00179E  0E01               	movlw	1
   775  0017A0  EC87  F00C         	call	___xxtofl
   776  0017A4  C017  F025         	movff	?___xxtofl,___flmul@b
   777  0017A8  C018  F026         	movff	?___xxtofl+1,___flmul@b+1
   778  0017AC  C019  F027         	movff	?___xxtofl+2,___flmul@b+2
   779  0017B0  C01A  F028         	movff	?___xxtofl+3,___flmul@b+3
   780  0017B4  ECA2  F006         	call	___flmul	;wreg free
   781  0017B8  C025  F031         	movff	?___flmul,___fldiv@b
   782  0017BC  C026  F032         	movff	?___flmul+1,___fldiv@b+1
   783  0017C0  C027  F033         	movff	?___flmul+2,___fldiv@b+2
   784  0017C4  C028  F034         	movff	?___flmul+3,___fldiv@b+3
   785  0017C8  0E00               	movlw	0
   786  0017CA  6E35               	movwf	___fldiv@a^0,c
   787  0017CC  0EC0               	movlw	192
   788  0017CE  6E36               	movwf	(___fldiv@a+1)^0,c
   789  0017D0  0E7F               	movlw	127
   790  0017D2  6E37               	movwf	(___fldiv@a+2)^0,c
   791  0017D4  0E44               	movlw	68
   792  0017D6  6E38               	movwf	(___fldiv@a+3)^0,c
   793  0017D8  ECB8  F008         	call	___fldiv	;wreg free
   794  0017DC  C031  F092         	movff	?___fldiv,main@value
   795  0017E0  C032  F093         	movff	?___fldiv+1,main@value+1
   796  0017E4  C033  F094         	movff	?___fldiv+2,main@value+2
   797  0017E8  C034  F095         	movff	?___fldiv+3,main@value+3
   798  0017EC                     
   799                           ;main.c: 55:    if (value != previousValue) {
   800  0017EC  C092  F017         	movff	main@value,___fleq@ff1
   801  0017F0  C093  F018         	movff	main@value+1,___fleq@ff1+1
   802  0017F4  C094  F019         	movff	main@value+2,___fleq@ff1+2
   803  0017F8  C095  F01A         	movff	main@value+3,___fleq@ff1+3
   804  0017FC  C08A  F01B         	movff	main@previousValue,___fleq@ff2
   805  001800  C08B  F01C         	movff	main@previousValue+1,___fleq@ff2+1
   806  001804  C08C  F01D         	movff	main@previousValue+2,___fleq@ff2+2
   807  001808  C08D  F01E         	movff	main@previousValue+3,___fleq@ff2+3
   808  00180C  EC1E  F010         	call	___fleq	;wreg free
   809  001810  B0D8               	btfsc	status,0,c
   810  001812  EF0D  F00C         	goto	u4051
   811  001816  EF0F  F00C         	goto	u4050
   812  00181A                     u4051:
   813  00181A  EF79  F00C         	goto	l3647
   814  00181E                     u4050:
   815  00181E                     
   816                           ;main.c: 57:     distance = 5.0 - value;
   817  00181E  0E00               	movlw	0
   818  001820  6E27               	movwf	___flsub@b^0,c
   819  001822  0E00               	movlw	0
   820  001824  6E28               	movwf	(___flsub@b+1)^0,c
   821  001826  0EA0               	movlw	160
   822  001828  6E29               	movwf	(___flsub@b+2)^0,c
   823  00182A  0E40               	movlw	64
   824  00182C  6E2A               	movwf	(___flsub@b+3)^0,c
   825  00182E  C092  F02B         	movff	main@value,___flsub@a
   826  001832  C093  F02C         	movff	main@value+1,___flsub@a+1
   827  001836  C094  F02D         	movff	main@value+2,___flsub@a+2
   828  00183A  C095  F02E         	movff	main@value+3,___flsub@a+3
   829  00183E  ECA7  F012         	call	___flsub	;wreg free
   830  001842  C027  F08E         	movff	?___flsub,main@distance
   831  001846  C028  F08F         	movff	?___flsub+1,main@distance+1
   832  00184A  C029  F090         	movff	?___flsub+2,main@distance+2
   833  00184E  C02A  F091         	movff	?___flsub+3,main@distance+3
   834                           
   835                           ;main.c: 59:     if (distance <= 2.0) {
   836  001852  0E00               	movlw	0
   837  001854  6E17               	movwf	___flge@ff1^0,c
   838  001856  0E00               	movlw	0
   839  001858  6E18               	movwf	(___flge@ff1+1)^0,c
   840  00185A  0E00               	movlw	0
   841  00185C  6E19               	movwf	(___flge@ff1+2)^0,c
   842  00185E  0E40               	movlw	64
   843  001860  6E1A               	movwf	(___flge@ff1+3)^0,c
   844  001862  C08E  F01B         	movff	main@distance,___flge@ff2
   845  001866  C08F  F01C         	movff	main@distance+1,___flge@ff2+1
   846  00186A  C090  F01D         	movff	main@distance+2,___flge@ff2+2
   847  00186E  C091  F01E         	movff	main@distance+3,___flge@ff2+3
   848  001872  EC35  F00F         	call	___flge	;wreg free
   849  001876  A0D8               	btfss	status,0,c
   850  001878  EF40  F00C         	goto	u4061
   851  00187C  EF42  F00C         	goto	u4060
   852  001880                     u4061:
   853  001880  EF46  F00C         	goto	l3633
   854  001884                     u4060:
   855  001884                     
   856                           ;main.c: 60:      doorController_openingDoor();
   857  001884  EC73  F010         	call	_doorController_openingDoor	;wreg free
   858                           
   859                           ;main.c: 61:     } else {
   860  001888  EF48  F00C         	goto	l3635
   861  00188C                     l3633:
   862                           
   863                           ;main.c: 62:      doorController_closingDoor();
   864  00188C  ECBF  F010         	call	_doorController_closingDoor	;wreg free
   865  001890                     l3635:
   866                           
   867                           ;main.c: 65:     LCD_placeCursorInPosition(0x91);
   868  001890  0E91               	movlw	145
   869  001892  EC59  F013         	call	_LCD_placeCursorInPosition
   870  001896                     
   871                           ;main.c: 66:     LCD_print("Movimento:", 10);
   872  001896  0E49               	movlw	low STR_16
   873  001898  6E1B               	movwf	LCD_print@text^0,c
   874  00189A  0E08               	movlw	high STR_16
   875  00189C  6E1C               	movwf	(LCD_print@text+1)^0,c
   876  00189E  0E0A               	movlw	10
   877  0018A0  6E1D               	movwf	LCD_print@delay^0,c
   878  0018A2  0E00               	movlw	0
   879  0018A4  6E1E               	movwf	(LCD_print@delay+1)^0,c
   880  0018A6  0E00               	movlw	0
   881  0018A8  6E1F               	movwf	(LCD_print@delay+2)^0,c
   882  0018AA  0E00               	movlw	0
   883  0018AC  6E20               	movwf	(LCD_print@delay+3)^0,c
   884  0018AE  ECA3  F011         	call	_LCD_print	;wreg free
   885                           
   886                           ;main.c: 67:     LCD_placeCursorInPosition(0xD3);
   887  0018B2  0ED3               	movlw	211
   888  0018B4  EC59  F013         	call	_LCD_placeCursorInPosition
   889  0018B8                     
   890                           ;main.c: 68:     LCD_printFloatNumber(distance, 2);
   891  0018B8  C08E  F07A         	movff	main@distance,LCD_printFloatNumber@number
   892  0018BC  C08F  F07B         	movff	main@distance+1,LCD_printFloatNumber@number+1
   893  0018C0  C090  F07C         	movff	main@distance+2,LCD_printFloatNumber@number+2
   894  0018C4  C091  F07D         	movff	main@distance+3,LCD_printFloatNumber@number+3
   895  0018C8  0E00               	movlw	0
   896  0018CA  0100               	movlb	0	; () banked
   897  0018CC  6F7F               	movwf	(LCD_printFloatNumber@precision+1)& (0+255),b
   898  0018CE  0E02               	movlw	2
   899  0018D0  6F7E               	movwf	LCD_printFloatNumber@precision& (0+255),b
   900  0018D2  EC61  F00D         	call	_LCD_printFloatNumber	;wreg free
   901  0018D6                     
   902                           ;main.c: 69:     LCD_placeCursorInPosition(0xD7);
   903  0018D6  0ED7               	movlw	215
   904  0018D8  EC59  F013         	call	_LCD_placeCursorInPosition
   905  0018DC                     
   906                           ;main.c: 70:     LCD_printChar('m');
   907  0018DC  0E6D               	movlw	109
   908  0018DE  EC97  F013         	call	_LCD_printChar
   909  0018E2                     
   910                           ;main.c: 72:     previousValue = value;
   911  0018E2  C092  F08A         	movff	main@value,main@previousValue
   912  0018E6  C093  F08B         	movff	main@value+1,main@previousValue+1
   913  0018EA  C094  F08C         	movff	main@value+2,main@previousValue+2
   914  0018EE  C095  F08D         	movff	main@value+3,main@previousValue+3
   915  0018F2                     l3647:
   916                           
   917                           ;main.c: 75:   if (doorStatus != opened) {
   918  0018F2  0E03               	movlw	3
   919  0018F4  1844               	xorwf	_doorStatus^0,w,c
   920  0018F6  B4D8               	btfsc	status,2,c
   921  0018F8  EF80  F00C         	goto	u4071
   922  0018FC  EF82  F00C         	goto	u4070
   923  001900                     u4071:
   924  001900  EF9A  F00B         	goto	l3619
   925  001904                     u4070:
   926  001904  0004               	clrwdt		;# 
   927  001906  EF9A  F00B         	goto	l3619
   928  00190A  EF07  F000         	goto	start
   929  00190E                     __end_of_main:
   930                           	callstack 0
   931                           
   932 ;; *************** function _init *****************
   933 ;; Defined at:
   934 ;;		line 24 in file "main.c"
   935 ;; Parameters:    Size  Location     Type
   936 ;;		None
   937 ;; Auto vars:     Size  Location     Type
   938 ;;		None
   939 ;; Return value:  Size  Location     Type
   940 ;;                  1    wreg      void 
   941 ;; Registers used:
   942 ;;		wreg, fsr1l, fsr1h, fsr2l, fsr2h, status,2, status,0, tblptrl, tblptrh, tblptru, cstack
   943 ;; Tracked objects:
   944 ;;		On entry : 0/0
   945 ;;		On exit  : 0/0
   946 ;;		Unchanged: 0/0
   947 ;; Data sizes:     COMRAM   BANK0   BANK1   BANK2   BANK3   BANK4   BANK5   BANK6   BANK7
   948 ;;      Params:         0       0       0       0       0       0       0       0       0
   949 ;;      Locals:         0       0       0       0       0       0       0       0       0
   950 ;;      Temps:          0       0       0       0       0       0       0       0       0
   951 ;;      Totals:         0       0       0       0       0       0       0       0       0
   952 ;;Total ram usage:        0 bytes
   953 ;; Hardware stack levels used: 1
   954 ;; Hardware stack levels required when called: 7
   955 ;; This function calls:
   956 ;;		_ADC_init
   957 ;;		_LCD_init
   958 ;;		_doorController_init
   959 ;;		_interrupt_init
   960 ;; This function is called by:
   961 ;;		_main
   962 ;; This function uses a non-reentrant model
   963 ;;
   964                           
   965                           	psect	text1
   966  002762                     __ptext1:
   967                           	callstack 0
   968  002762                     _init:
   969                           	callstack 23
   970  002762                     
   971                           ;main.c: 26:  LCD_init();
   972  002762  EC21  F012         	call	_LCD_init	;wreg free
   973  002766                     
   974                           ;main.c: 27:  ADC_init();
   975  002766  ECBB  F013         	call	_ADC_init	;wreg free
   976  00276A                     
   977                           ;main.c: 28:  interrupt_init();
   978  00276A  ECA5  F013         	call	_interrupt_init	;wreg free
   979  00276E                     
   980                           ;main.c: 29:  doorController_init();
   981  00276E  ECB7  F00F         	call	_doorController_init	;wreg free
   982  002772  0004               	clrwdt		;# 
   983  002774  0012               	return		;funcret
   984  002776                     __end_of_init:
   985                           	callstack 0
   986                           
   987 ;; *************** function _interrupt_init *****************
   988 ;; Defined at:
   989 ;;		line 100 in file "./util.h"
   990 ;; Parameters:    Size  Location     Type
   991 ;;		None
   992 ;; Auto vars:     Size  Location     Type
   993 ;;		None
   994 ;; Return value:  Size  Location     Type
   995 ;;                  1    wreg      void 
   996 ;; Registers used:
   997 ;;		None
   998 ;; Tracked objects:
   999 ;;		On entry : 0/0
  1000 ;;		On exit  : 0/0
  1001 ;;		Unchanged: 0/0
  1002 ;; Data sizes:     COMRAM   BANK0   BANK1   BANK2   BANK3   BANK4   BANK5   BANK6   BANK7
  1003 ;;      Params:         0       0       0       0       0       0       0       0       0
  1004 ;;      Locals:         0       0       0       0       0       0       0       0       0
  1005 ;;      Temps:          0       0       0       0       0       0       0       0       0
  1006 ;;      Totals:         0       0       0       0       0       0       0       0       0
  1007 ;;Total ram usage:        0 bytes
  1008 ;; Hardware stack levels used: 1
  1009 ;; Hardware stack levels required when called: 4
  1010 ;; This function calls:
  1011 ;;		Nothing
  1012 ;; This function is called by:
  1013 ;;		_init
  1014 ;; This function uses a non-reentrant model
  1015 ;;
  1016                           
  1017                           	psect	text2
  1018  00274A                     __ptext2:
  1019                           	callstack 0
  1020  00274A                     _interrupt_init:
  1021                           	callstack 25
  1022  00274A                     
  1023                           ;./util.h: 103:    RCONbits.IPEN = 1;
  1024  00274A  8ED0               	bsf	208,7,c	;volatile
  1025                           
  1026                           ;./util.h: 106:    INTCONbits.GIEH = 1;
  1027  00274C  8EF2               	bsf	242,7,c	;volatile
  1028                           
  1029                           ;./util.h: 107:    INTCONbits.GIEL = 0;
  1030  00274E  9CF2               	bcf	242,6,c	;volatile
  1031                           
  1032                           ;./util.h: 109:    INTCON3bits.INT1F = 0;
  1033  002750  90F0               	bcf	240,0,c	;volatile
  1034                           
  1035                           ;./util.h: 110:    INTCON3bits.INT1IP = 1;
  1036  002752  8CF0               	bsf	240,6,c	;volatile
  1037                           
  1038                           ;./util.h: 111:    INTCON2bits.INTEDG1 = 0;
  1039  002754  9AF1               	bcf	241,5,c	;volatile
  1040                           
  1041                           ;./util.h: 112:    INTCON3bits.INT1IE = 1;
  1042  002756  86F0               	bsf	240,3,c	;volatile
  1043                           
  1044                           ;./util.h: 114:    INTCON3bits.INT2IF = 0;
  1045  002758  92F0               	bcf	240,1,c	;volatile
  1046                           
  1047                           ;./util.h: 115:    INTCON3bits.INT2IP = 1;
  1048  00275A  8EF0               	bsf	240,7,c	;volatile
  1049                           
  1050                           ;./util.h: 116:    INTCON2bits.INTEDG2 = 0;
  1051  00275C  98F1               	bcf	241,4,c	;volatile
  1052                           
  1053                           ;./util.h: 117:    INTCON3bits.INT2IE = 1;
  1054  00275E  88F0               	bsf	240,4,c	;volatile
  1055  002760  0012               	return		;funcret
  1056  002762                     __end_of_interrupt_init:
  1057                           	callstack 0
  1058                           
  1059 ;; *************** function _doorController_init *****************
  1060 ;; Defined at:
  1061 ;;		line 170 in file "./util.h"
  1062 ;; Parameters:    Size  Location     Type
  1063 ;;		None
  1064 ;; Auto vars:     Size  Location     Type
  1065 ;;		None
  1066 ;; Return value:  Size  Location     Type
  1067 ;;                  1    wreg      void 
  1068 ;; Registers used:
  1069 ;;		wreg, status,2, status,0, tblptrl, tblptrh, tblptru, cstack
  1070 ;; Tracked objects:
  1071 ;;		On entry : 0/0
  1072 ;;		On exit  : 0/0
  1073 ;;		Unchanged: 0/0
  1074 ;; Data sizes:     COMRAM   BANK0   BANK1   BANK2   BANK3   BANK4   BANK5   BANK6   BANK7
  1075 ;;      Params:         0       0       0       0       0       0       0       0       0
  1076 ;;      Locals:         0       0       0       0       0       0       0       0       0
  1077 ;;      Temps:          2       0       0       0       0       0       0       0       0
  1078 ;;      Totals:         2       0       0       0       0       0       0       0       0
  1079 ;;Total ram usage:        2 bytes
  1080 ;; Hardware stack levels used: 1
  1081 ;; Hardware stack levels required when called: 6
  1082 ;; This function calls:
  1083 ;;		_LCD_clearScreen
  1084 ;;		_LCD_placeCursorInPosition
  1085 ;;		_LCD_print
  1086 ;; This function is called by:
  1087 ;;		_init
  1088 ;; This function uses a non-reentrant model
  1089 ;;
  1090                           
  1091                           	psect	text3
  1092  001F6E                     __ptext3:
  1093                           	callstack 0
  1094  001F6E                     _doorController_init:
  1095                           	callstack 23
  1096  001F6E                     
  1097                           ;./util.h: 172:    LCD_clearScreen();
  1098  001F6E  EC79  F013         	call	_LCD_clearScreen	;wreg free
  1099  001F72                     
  1100                           ;./util.h: 177:    LCD_placeCursorInPosition(0x81);
  1101  001F72  0E81               	movlw	129
  1102  001F74  EC59  F013         	call	_LCD_placeCursorInPosition
  1103  001F78                     
  1104                           ;./util.h: 178:    LCD_print("Inicializando", 64);
  1105  001F78  0E01               	movlw	low STR_1
  1106  001F7A  6E1B               	movwf	LCD_print@text^0,c
  1107  001F7C  0E08               	movlw	high STR_1
  1108  001F7E  6E1C               	movwf	(LCD_print@text+1)^0,c
  1109  001F80  0E40               	movlw	64
  1110  001F82  6E1D               	movwf	LCD_print@delay^0,c
  1111  001F84  0E00               	movlw	0
  1112  001F86  6E1E               	movwf	(LCD_print@delay+1)^0,c
  1113  001F88  0E00               	movlw	0
  1114  001F8A  6E1F               	movwf	(LCD_print@delay+2)^0,c
  1115  001F8C  0E00               	movlw	0
  1116  001F8E  6E20               	movwf	(LCD_print@delay+3)^0,c
  1117  001F90  ECA3  F011         	call	_LCD_print	;wreg free
  1118  001F94                     
  1119                           ;./util.h: 179:    LCD_placeCursorInPosition(0x92);
  1120  001F94  0E92               	movlw	146
  1121  001F96  EC59  F013         	call	_LCD_placeCursorInPosition
  1122  001F9A                     
  1123                           ;./util.h: 180:    LCD_print("CONTROLADOR", 64);
  1124  001F9A  0E27               	movlw	low STR_2
  1125  001F9C  6E1B               	movwf	LCD_print@text^0,c
  1126  001F9E  0E08               	movlw	high STR_2
  1127  001FA0  6E1C               	movwf	(LCD_print@text+1)^0,c
  1128  001FA2  0E40               	movlw	64
  1129  001FA4  6E1D               	movwf	LCD_print@delay^0,c
  1130  001FA6  0E00               	movlw	0
  1131  001FA8  6E1E               	movwf	(LCD_print@delay+1)^0,c
  1132  001FAA  0E00               	movlw	0
  1133  001FAC  6E1F               	movwf	(LCD_print@delay+2)^0,c
  1134  001FAE  0E00               	movlw	0
  1135  001FB0  6E20               	movwf	(LCD_print@delay+3)^0,c
  1136  001FB2  ECA3  F011         	call	_LCD_print	;wreg free
  1137  001FB6                     
  1138                           ;./util.h: 181:    LCD_placeCursorInPosition(0xD2);
  1139  001FB6  0ED2               	movlw	210
  1140  001FB8  EC59  F013         	call	_LCD_placeCursorInPosition
  1141  001FBC                     
  1142                           ;./util.h: 182:    LCD_print("DA PORTA", 64);
  1143  001FBC  0E72               	movlw	low STR_3
  1144  001FBE  6E1B               	movwf	LCD_print@text^0,c
  1145  001FC0  0E08               	movlw	high STR_3
  1146  001FC2  6E1C               	movwf	(LCD_print@text+1)^0,c
  1147  001FC4  0E40               	movlw	64
  1148  001FC6  6E1D               	movwf	LCD_print@delay^0,c
  1149  001FC8  0E00               	movlw	0
  1150  001FCA  6E1E               	movwf	(LCD_print@delay+1)^0,c
  1151  001FCC  0E00               	movlw	0
  1152  001FCE  6E1F               	movwf	(LCD_print@delay+2)^0,c
  1153  001FD0  0E00               	movlw	0
  1154  001FD2  6E20               	movwf	(LCD_print@delay+3)^0,c
  1155  001FD4  ECA3  F011         	call	_LCD_print	;wreg free
  1156  001FD8                     
  1157                           ;./util.h: 183:    _delay((unsigned long)((952)*(4000000/4000.0)));
  1158  001FD8  0E05               	movlw	5
  1159  001FDA  6E28               	movwf	(??_doorController_init+1)^0,c
  1160  001FDC  0ED5               	movlw	213
  1161  001FDE  6E27               	movwf	??_doorController_init^0,c
  1162  001FE0  0E58               	movlw	88
  1163  001FE2                     u4087:
  1164  001FE2  2EE8               	decfsz	wreg,f,c
  1165  001FE4  D7FE               	bra	u4087
  1166  001FE6  2E27               	decfsz	??_doorController_init^0,f,c
  1167  001FE8  D7FC               	bra	u4087
  1168  001FEA  2E28               	decfsz	(??_doorController_init+1)^0,f,c
  1169  001FEC  D7FA               	bra	u4087
  1170  001FEE                     
  1171                           ;./util.h: 185:    LCD_clearScreen();
  1172  001FEE  EC79  F013         	call	_LCD_clearScreen	;wreg free
  1173  001FF2                     
  1174                           ;./util.h: 186:    LCD_placeCursorInPosition(0x81);
  1175  001FF2  0E81               	movlw	129
  1176  001FF4  EC59  F013         	call	_LCD_placeCursorInPosition
  1177  001FF8                     
  1178                           ;./util.h: 187:    LCD_print("Status:", 10);
  1179  001FF8  0E7B               	movlw	low STR_4
  1180  001FFA  6E1B               	movwf	LCD_print@text^0,c
  1181  001FFC  0E08               	movlw	high STR_4
  1182  001FFE  6E1C               	movwf	(LCD_print@text+1)^0,c
  1183  002000  0E0A               	movlw	10
  1184  002002  6E1D               	movwf	LCD_print@delay^0,c
  1185  002004  0E00               	movlw	0
  1186  002006  6E1E               	movwf	(LCD_print@delay+1)^0,c
  1187  002008  0E00               	movlw	0
  1188  00200A  6E1F               	movwf	(LCD_print@delay+2)^0,c
  1189  00200C  0E00               	movlw	0
  1190  00200E  6E20               	movwf	(LCD_print@delay+3)^0,c
  1191  002010  ECA3  F011         	call	_LCD_print	;wreg free
  1192  002014                     
  1193                           ;./util.h: 188:    LCD_placeCursorInPosition(0xC3);
  1194  002014  0EC3               	movlw	195
  1195  002016  EC59  F013         	call	_LCD_placeCursorInPosition
  1196  00201A                     
  1197                           ;./util.h: 189:    LCD_print("Fechada    ", 10);
  1198  00201A  0E0F               	movlw	low STR_5
  1199  00201C  6E1B               	movwf	LCD_print@text^0,c
  1200  00201E  0E08               	movlw	high STR_5
  1201  002020  6E1C               	movwf	(LCD_print@text+1)^0,c
  1202  002022  0E0A               	movlw	10
  1203  002024  6E1D               	movwf	LCD_print@delay^0,c
  1204  002026  0E00               	movlw	0
  1205  002028  6E1E               	movwf	(LCD_print@delay+1)^0,c
  1206  00202A  0E00               	movlw	0
  1207  00202C  6E1F               	movwf	(LCD_print@delay+2)^0,c
  1208  00202E  0E00               	movlw	0
  1209  002030  6E20               	movwf	(LCD_print@delay+3)^0,c
  1210  002032  ECA3  F011         	call	_LCD_print	;wreg free
  1211  002036                     
  1212                           ;./util.h: 190:    doorStatus = closed;
  1213  002036  0E04               	movlw	4
  1214  002038  6E44               	movwf	_doorStatus^0,c
  1215  00203A  0012               	return		;funcret
  1216  00203C                     __end_of_doorController_init:
  1217                           	callstack 0
  1218                           
  1219 ;; *************** function _LCD_init *****************
  1220 ;; Defined at:
  1221 ;;		line 17 in file "./lcd.h"
  1222 ;; Parameters:    Size  Location     Type
  1223 ;;		None
  1224 ;; Auto vars:     Size  Location     Type
  1225 ;;  config          7   22[COMRAM] unsigned char [7]
  1226 ;;  i               2   29[COMRAM] int 
  1227 ;; Return value:  Size  Location     Type
  1228 ;;                  1    wreg      void 
  1229 ;; Registers used:
  1230 ;;		wreg, fsr1l, fsr1h, fsr2l, fsr2h, status,2, status,0
  1231 ;; Tracked objects:
  1232 ;;		On entry : 0/0
  1233 ;;		On exit  : 0/0
  1234 ;;		Unchanged: 0/0
  1235 ;; Data sizes:     COMRAM   BANK0   BANK1   BANK2   BANK3   BANK4   BANK5   BANK6   BANK7
  1236 ;;      Params:         0       0       0       0       0       0       0       0       0
  1237 ;;      Locals:         9       0       0       0       0       0       0       0       0
  1238 ;;      Temps:          0       0       0       0       0       0       0       0       0
  1239 ;;      Totals:         9       0       0       0       0       0       0       0       0
  1240 ;;Total ram usage:        9 bytes
  1241 ;; Hardware stack levels used: 1
  1242 ;; Hardware stack levels required when called: 4
  1243 ;; This function calls:
  1244 ;;		Nothing
  1245 ;; This function is called by:
  1246 ;;		_init
  1247 ;; This function uses a non-reentrant model
  1248 ;;
  1249                           
  1250                           	psect	text4
  1251  002442                     __ptext4:
  1252                           	callstack 0
  1253  002442                     _LCD_init:
  1254                           	callstack 25
  1255  002442                     
  1256                           ;./lcd.h: 19:    TRISD = 0b00000000;
  1257  002442  0E00               	movlw	0
  1258  002444  6E95               	movwf	149,c	;volatile
  1259                           
  1260                           ;./lcd.h: 20:    TRISE = 0b00000000;
  1261  002446  0E00               	movlw	0
  1262  002448  6E96               	movwf	150,c	;volatile
  1263  00244A                     
  1264                           ;./lcd.h: 22:    PORTEbits.RE2 = 0;
  1265  00244A  9484               	bcf	132,2,c	;volatile
  1266  00244C                     
  1267                           ;./lcd.h: 23:    int i;;./lcd.h: 24:    char config[7] = {
  1268  00244C  EE20  F03D         	lfsr	2,LCD_init@F3785
  1269  002450  EE10  F017         	lfsr	1,LCD_init@config
  1270  002454  0E06               	movlw	6
  1271  002456                     u1871:
  1272  002456  CFDB FFE3          	movff	plusw2,plusw1
  1273  00245A  06E8               	decf	wreg,f,c
  1274  00245C  E2FC               	bc	u1871
  1275  00245E                     
  1276                           ;./lcd.h: 34:    for (i = 0; i < 7; i++) {
  1277  00245E  0E00               	movlw	0
  1278  002460  6E1F               	movwf	(LCD_init@i+1)^0,c
  1279  002462  0E00               	movlw	0
  1280  002464  6E1E               	movwf	LCD_init@i^0,c
  1281  002466                     l49:
  1282                           
  1283                           ;./lcd.h: 35:       PORTEbits.RE1 = 1;
  1284  002466  8284               	bsf	132,1,c	;volatile
  1285  002468                     
  1286                           ;./lcd.h: 36:       PORTD = config[i];
  1287  002468  0E17               	movlw	low LCD_init@config
  1288  00246A  241E               	addwf	LCD_init@i^0,w,c
  1289  00246C  6ED9               	movwf	fsr2l,c
  1290  00246E  0E00               	movlw	high LCD_init@config
  1291  002470  201F               	addwfc	(LCD_init@i+1)^0,w,c
  1292  002472  6EDA               	movwf	fsr2h,c
  1293  002474  50DF               	movf	indf2,w,c
  1294  002476  6E83               	movwf	131,c	;volatile
  1295  002478                     
  1296                           ;./lcd.h: 37:       _delay((unsigned long)((50)*(4000000/4000000.0)));
  1297  002478  0E10               	movlw	16
  1298  00247A                     u4097:
  1299  00247A  2EE8               	decfsz	wreg,f,c
  1300  00247C  D7FE               	bra	u4097
  1301  00247E  D000               	nop2	
  1302  002480                     
  1303                           ;./lcd.h: 38:       PORTEbits.RE1 = 0;
  1304  002480  9284               	bcf	132,1,c	;volatile
  1305  002482                     
  1306                           ;./lcd.h: 39:       _delay((unsigned long)((50)*(4000000/4000000.0)));
  1307  002482  0E10               	movlw	16
  1308  002484                     u4107:
  1309  002484  2EE8               	decfsz	wreg,f,c
  1310  002486  D7FE               	bra	u4107
  1311  002488  D000               	nop2	
  1312  00248A                     
  1313                           ;./lcd.h: 40:    }
  1314  00248A  4A1E               	infsnz	LCD_init@i^0,f,c
  1315  00248C  2A1F               	incf	(LCD_init@i+1)^0,f,c
  1316  00248E  BE1F               	btfsc	(LCD_init@i+1)^0,7,c
  1317  002490  EF53  F012         	goto	u1881
  1318  002494  501F               	movf	(LCD_init@i+1)^0,w,c
  1319  002496  E109               	bnz	u1880
  1320  002498  0E07               	movlw	7
  1321  00249A  5C1E               	subwf	LCD_init@i^0,w,c
  1322  00249C  A0D8               	btfss	status,0,c
  1323  00249E  EF53  F012         	goto	u1881
  1324  0024A2  EF55  F012         	goto	u1880
  1325  0024A6                     u1881:
  1326  0024A6  EF33  F012         	goto	l49
  1327  0024AA                     u1880:
  1328  0024AA                     
  1329                           ;./lcd.h: 41:    PORTEbits.RE2 = 1;
  1330  0024AA  8484               	bsf	132,2,c	;volatile
  1331  0024AC  0012               	return		;funcret
  1332  0024AE                     __end_of_LCD_init:
  1333                           	callstack 0
  1334                           
  1335 ;; *************** function _ADC_init *****************
  1336 ;; Defined at:
  1337 ;;		line 156 in file "./util.h"
  1338 ;; Parameters:    Size  Location     Type
  1339 ;;		None
  1340 ;; Auto vars:     Size  Location     Type
  1341 ;;		None
  1342 ;; Return value:  Size  Location     Type
  1343 ;;                  1    wreg      void 
  1344 ;; Registers used:
  1345 ;;		wreg, status,2
  1346 ;; Tracked objects:
  1347 ;;		On entry : 0/0
  1348 ;;		On exit  : 0/0
  1349 ;;		Unchanged: 0/0
  1350 ;; Data sizes:     COMRAM   BANK0   BANK1   BANK2   BANK3   BANK4   BANK5   BANK6   BANK7
  1351 ;;      Params:         0       0       0       0       0       0       0       0       0
  1352 ;;      Locals:         0       0       0       0       0       0       0       0       0
  1353 ;;      Temps:          0       0       0       0       0       0       0       0       0
  1354 ;;      Totals:         0       0       0       0       0       0       0       0       0
  1355 ;;Total ram usage:        0 bytes
  1356 ;; Hardware stack levels used: 1
  1357 ;; Hardware stack levels required when called: 4
  1358 ;; This function calls:
  1359 ;;		Nothing
  1360 ;; This function is called by:
  1361 ;;		_init
  1362 ;; This function uses a non-reentrant model
  1363 ;;
  1364                           
  1365                           	psect	text5
  1366  002776                     __ptext5:
  1367                           	callstack 0
  1368  002776                     _ADC_init:
  1369                           	callstack 25
  1370  002776                     
  1371                           ;./util.h: 158:    TRISAbits.RA1 = 1;
  1372  002776  8292               	bsf	146,1,c	;volatile
  1373  002778                     
  1374                           ;./util.h: 160:    ADCON0 = 0b00000000;
  1375  002778  0E00               	movlw	0
  1376  00277A  6EC2               	movwf	194,c	;volatile
  1377                           
  1378                           ;./util.h: 161:    ADCON1 = 0b00001110;
  1379  00277C  0E0E               	movlw	14
  1380  00277E  6EC1               	movwf	193,c	;volatile
  1381                           
  1382                           ;./util.h: 162:    ADCON2 = 0b10111110;
  1383  002780  0EBE               	movlw	190
  1384  002782  6EC0               	movwf	192,c	;volatile
  1385  002784                     
  1386                           ;./util.h: 164:    ADCON0bits.ADON = 1;
  1387  002784  80C2               	bsf	194,0,c	;volatile
  1388  002786  0012               	return		;funcret
  1389  002788                     __end_of_ADC_init:
  1390                           	callstack 0
  1391                           
  1392 ;; *************** function _doorController_openingDoor *****************
  1393 ;; Defined at:
  1394 ;;		line 196 in file "./util.h"
  1395 ;; Parameters:    Size  Location     Type
  1396 ;;		None
  1397 ;; Auto vars:     Size  Location     Type
  1398 ;;		None
  1399 ;; Return value:  Size  Location     Type
  1400 ;;                  1    wreg      void 
  1401 ;; Registers used:
  1402 ;;		wreg, status,2, status,0, tblptrl, tblptrh, tblptru, cstack
  1403 ;; Tracked objects:
  1404 ;;		On entry : 0/0
  1405 ;;		On exit  : 0/0
  1406 ;;		Unchanged: 0/0
  1407 ;; Data sizes:     COMRAM   BANK0   BANK1   BANK2   BANK3   BANK4   BANK5   BANK6   BANK7
  1408 ;;      Params:         0       0       0       0       0       0       0       0       0
  1409 ;;      Locals:         0       0       0       0       0       0       0       0       0
  1410 ;;      Temps:          0       0       0       0       0       0       0       0       0
  1411 ;;      Totals:         0       0       0       0       0       0       0       0       0
  1412 ;;Total ram usage:        0 bytes
  1413 ;; Hardware stack levels used: 1
  1414 ;; Hardware stack levels required when called: 6
  1415 ;; This function calls:
  1416 ;;		_LCD_clearScreen
  1417 ;;		_LCD_customDelay_ms
  1418 ;;		_LCD_placeCursorInPosition
  1419 ;;		_LCD_print
  1420 ;; This function is called by:
  1421 ;;		_main
  1422 ;; This function uses a non-reentrant model
  1423 ;;
  1424                           
  1425                           	psect	text6
  1426  0020E6                     __ptext6:
  1427                           	callstack 0
  1428  0020E6                     _doorController_openingDoor:
  1429                           	callstack 24
  1430  0020E6                     
  1431                           ;./util.h: 198:    if (doorStatus != opened) {
  1432  0020E6  0E03               	movlw	3
  1433  0020E8  1844               	xorwf	_doorStatus^0,w,c
  1434  0020EA  B4D8               	btfsc	status,2,c
  1435  0020EC  EF7A  F010         	goto	u2681
  1436  0020F0  EF7C  F010         	goto	u2680
  1437  0020F4                     u2681:
  1438  0020F4  EFBD  F010         	goto	l116
  1439  0020F8                     u2680:
  1440  0020F8                     
  1441                           ;./util.h: 199:       LCD_clearScreen();
  1442  0020F8  EC79  F013         	call	_LCD_clearScreen	;wreg free
  1443  0020FC                     
  1444                           ;./util.h: 200:       LCD_placeCursorInPosition(0x81);
  1445  0020FC  0E81               	movlw	129
  1446  0020FE  EC59  F013         	call	_LCD_placeCursorInPosition
  1447  002102                     
  1448                           ;./util.h: 201:       LCD_print("Status:", 10);
  1449  002102  0E7B               	movlw	low STR_4
  1450  002104  6E1B               	movwf	LCD_print@text^0,c
  1451  002106  0E08               	movlw	high STR_4
  1452  002108  6E1C               	movwf	(LCD_print@text+1)^0,c
  1453  00210A  0E0A               	movlw	10
  1454  00210C  6E1D               	movwf	LCD_print@delay^0,c
  1455  00210E  0E00               	movlw	0
  1456  002110  6E1E               	movwf	(LCD_print@delay+1)^0,c
  1457  002112  0E00               	movlw	0
  1458  002114  6E1F               	movwf	(LCD_print@delay+2)^0,c
  1459  002116  0E00               	movlw	0
  1460  002118  6E20               	movwf	(LCD_print@delay+3)^0,c
  1461  00211A  ECA3  F011         	call	_LCD_print	;wreg free
  1462  00211E                     
  1463                           ;./util.h: 203:       LCD_placeCursorInPosition(0xC3);
  1464  00211E  0EC3               	movlw	195
  1465  002120  EC59  F013         	call	_LCD_placeCursorInPosition
  1466  002124                     
  1467                           ;./util.h: 204:       LCD_print("Abrindo...", 10);
  1468  002124  0E3E               	movlw	low STR_7
  1469  002126  6E1B               	movwf	LCD_print@text^0,c
  1470  002128  0E08               	movlw	high STR_7
  1471  00212A  6E1C               	movwf	(LCD_print@text+1)^0,c
  1472  00212C  0E0A               	movlw	10
  1473  00212E  6E1D               	movwf	LCD_print@delay^0,c
  1474  002130  0E00               	movlw	0
  1475  002132  6E1E               	movwf	(LCD_print@delay+1)^0,c
  1476  002134  0E00               	movlw	0
  1477  002136  6E1F               	movwf	(LCD_print@delay+2)^0,c
  1478  002138  0E00               	movlw	0
  1479  00213A  6E20               	movwf	(LCD_print@delay+3)^0,c
  1480  00213C  ECA3  F011         	call	_LCD_print	;wreg free
  1481  002140                     
  1482                           ;./util.h: 205:       LCD_customDelay_ms(1500);
  1483  002140  0EDC               	movlw	220
  1484  002142  6E17               	movwf	LCD_customDelay_ms@ms^0,c
  1485  002144  0E05               	movlw	5
  1486  002146  6E18               	movwf	(LCD_customDelay_ms@ms+1)^0,c
  1487  002148  0E00               	movlw	0
  1488  00214A  6E19               	movwf	(LCD_customDelay_ms@ms+2)^0,c
  1489  00214C  0E00               	movlw	0
  1490  00214E  6E1A               	movwf	(LCD_customDelay_ms@ms+3)^0,c
  1491  002150  ECE7  F012         	call	_LCD_customDelay_ms	;wreg free
  1492  002154                     
  1493                           ;./util.h: 207:       LCD_placeCursorInPosition(0xC3);
  1494  002154  0EC3               	movlw	195
  1495  002156  EC59  F013         	call	_LCD_placeCursorInPosition
  1496  00215A                     
  1497                           ;./util.h: 208:       LCD_print("Aberta    ", 10);
  1498  00215A  0E33               	movlw	low STR_8
  1499  00215C  6E1B               	movwf	LCD_print@text^0,c
  1500  00215E  0E08               	movlw	high STR_8
  1501  002160  6E1C               	movwf	(LCD_print@text+1)^0,c
  1502  002162  0E0A               	movlw	10
  1503  002164  6E1D               	movwf	LCD_print@delay^0,c
  1504  002166  0E00               	movlw	0
  1505  002168  6E1E               	movwf	(LCD_print@delay+1)^0,c
  1506  00216A  0E00               	movlw	0
  1507  00216C  6E1F               	movwf	(LCD_print@delay+2)^0,c
  1508  00216E  0E00               	movlw	0
  1509  002170  6E20               	movwf	(LCD_print@delay+3)^0,c
  1510  002172  ECA3  F011         	call	_LCD_print	;wreg free
  1511  002176                     
  1512                           ;./util.h: 210:       doorStatus = opened;
  1513  002176  0E03               	movlw	3
  1514  002178  6E44               	movwf	_doorStatus^0,c
  1515  00217A                     l116:
  1516  00217A  0004               	clrwdt		;# 
  1517  00217C  0012               	return		;funcret
  1518  00217E                     __end_of_doorController_openingDoor:
  1519                           	callstack 0
  1520                           
  1521 ;; *************** function _doorController_closingDoor *****************
  1522 ;; Defined at:
  1523 ;;		line 218 in file "./util.h"
  1524 ;; Parameters:    Size  Location     Type
  1525 ;;		None
  1526 ;; Auto vars:     Size  Location     Type
  1527 ;;		None
  1528 ;; Return value:  Size  Location     Type
  1529 ;;                  1    wreg      void 
  1530 ;; Registers used:
  1531 ;;		wreg, status,2, status,0, tblptrl, tblptrh, tblptru, cstack
  1532 ;; Tracked objects:
  1533 ;;		On entry : 0/0
  1534 ;;		On exit  : 0/0
  1535 ;;		Unchanged: 0/0
  1536 ;; Data sizes:     COMRAM   BANK0   BANK1   BANK2   BANK3   BANK4   BANK5   BANK6   BANK7
  1537 ;;      Params:         0       0       0       0       0       0       0       0       0
  1538 ;;      Locals:         0       0       0       0       0       0       0       0       0
  1539 ;;      Temps:          0       0       0       0       0       0       0       0       0
  1540 ;;      Totals:         0       0       0       0       0       0       0       0       0
  1541 ;;Total ram usage:        0 bytes
  1542 ;; Hardware stack levels used: 1
  1543 ;; Hardware stack levels required when called: 6
  1544 ;; This function calls:
  1545 ;;		_LCD_clearScreen
  1546 ;;		_LCD_customDelay_ms
  1547 ;;		_LCD_placeCursorInPosition
  1548 ;;		_LCD_print
  1549 ;; This function is called by:
  1550 ;;		_main
  1551 ;; This function uses a non-reentrant model
  1552 ;;
  1553                           
  1554                           	psect	text7
  1555  00217E                     __ptext7:
  1556                           	callstack 0
  1557  00217E                     _doorController_closingDoor:
  1558                           	callstack 24
  1559  00217E                     
  1560                           ;./util.h: 220:    if (doorStatus != closed) {
  1561  00217E  0E04               	movlw	4
  1562  002180  1844               	xorwf	_doorStatus^0,w,c
  1563  002182  B4D8               	btfsc	status,2,c
  1564  002184  EFC6  F010         	goto	u2691
  1565  002188  EFC8  F010         	goto	u2690
  1566  00218C                     u2691:
  1567  00218C  EF09  F011         	goto	l120
  1568  002190                     u2690:
  1569  002190                     
  1570                           ;./util.h: 221:       LCD_clearScreen();
  1571  002190  EC79  F013         	call	_LCD_clearScreen	;wreg free
  1572  002194                     
  1573                           ;./util.h: 222:       LCD_placeCursorInPosition(0x81);
  1574  002194  0E81               	movlw	129
  1575  002196  EC59  F013         	call	_LCD_placeCursorInPosition
  1576  00219A                     
  1577                           ;./util.h: 223:       LCD_print("Status:", 10);
  1578  00219A  0E7B               	movlw	low STR_4
  1579  00219C  6E1B               	movwf	LCD_print@text^0,c
  1580  00219E  0E08               	movlw	high STR_4
  1581  0021A0  6E1C               	movwf	(LCD_print@text+1)^0,c
  1582  0021A2  0E0A               	movlw	10
  1583  0021A4  6E1D               	movwf	LCD_print@delay^0,c
  1584  0021A6  0E00               	movlw	0
  1585  0021A8  6E1E               	movwf	(LCD_print@delay+1)^0,c
  1586  0021AA  0E00               	movlw	0
  1587  0021AC  6E1F               	movwf	(LCD_print@delay+2)^0,c
  1588  0021AE  0E00               	movlw	0
  1589  0021B0  6E20               	movwf	(LCD_print@delay+3)^0,c
  1590  0021B2  ECA3  F011         	call	_LCD_print	;wreg free
  1591  0021B6                     
  1592                           ;./util.h: 225:       LCD_placeCursorInPosition(0xC3);
  1593  0021B6  0EC3               	movlw	195
  1594  0021B8  EC59  F013         	call	_LCD_placeCursorInPosition
  1595  0021BC                     
  1596                           ;./util.h: 226:       LCD_print("Fechando...", 10);
  1597  0021BC  0E1B               	movlw	low STR_10
  1598  0021BE  6E1B               	movwf	LCD_print@text^0,c
  1599  0021C0  0E08               	movlw	high STR_10
  1600  0021C2  6E1C               	movwf	(LCD_print@text+1)^0,c
  1601  0021C4  0E0A               	movlw	10
  1602  0021C6  6E1D               	movwf	LCD_print@delay^0,c
  1603  0021C8  0E00               	movlw	0
  1604  0021CA  6E1E               	movwf	(LCD_print@delay+1)^0,c
  1605  0021CC  0E00               	movlw	0
  1606  0021CE  6E1F               	movwf	(LCD_print@delay+2)^0,c
  1607  0021D0  0E00               	movlw	0
  1608  0021D2  6E20               	movwf	(LCD_print@delay+3)^0,c
  1609  0021D4  ECA3  F011         	call	_LCD_print	;wreg free
  1610  0021D8                     
  1611                           ;./util.h: 227:       LCD_customDelay_ms(1500);
  1612  0021D8  0EDC               	movlw	220
  1613  0021DA  6E17               	movwf	LCD_customDelay_ms@ms^0,c
  1614  0021DC  0E05               	movlw	5
  1615  0021DE  6E18               	movwf	(LCD_customDelay_ms@ms+1)^0,c
  1616  0021E0  0E00               	movlw	0
  1617  0021E2  6E19               	movwf	(LCD_customDelay_ms@ms+2)^0,c
  1618  0021E4  0E00               	movlw	0
  1619  0021E6  6E1A               	movwf	(LCD_customDelay_ms@ms+3)^0,c
  1620  0021E8  ECE7  F012         	call	_LCD_customDelay_ms	;wreg free
  1621  0021EC                     
  1622                           ;./util.h: 229:       LCD_placeCursorInPosition(0xC3);
  1623  0021EC  0EC3               	movlw	195
  1624  0021EE  EC59  F013         	call	_LCD_placeCursorInPosition
  1625  0021F2                     
  1626                           ;./util.h: 230:       LCD_print("Fechada    ", 10);
  1627  0021F2  0E0F               	movlw	low STR_5
  1628  0021F4  6E1B               	movwf	LCD_print@text^0,c
  1629  0021F6  0E08               	movlw	high STR_5
  1630  0021F8  6E1C               	movwf	(LCD_print@text+1)^0,c
  1631  0021FA  0E0A               	movlw	10
  1632  0021FC  6E1D               	movwf	LCD_print@delay^0,c
  1633  0021FE  0E00               	movlw	0
  1634  002200  6E1E               	movwf	(LCD_print@delay+1)^0,c
  1635  002202  0E00               	movlw	0
  1636  002204  6E1F               	movwf	(LCD_print@delay+2)^0,c
  1637  002206  0E00               	movlw	0
  1638  002208  6E20               	movwf	(LCD_print@delay+3)^0,c
  1639  00220A  ECA3  F011         	call	_LCD_print	;wreg free
  1640  00220E                     
  1641                           ;./util.h: 232:       doorStatus = closed;
  1642  00220E  0E04               	movlw	4
  1643  002210  6E44               	movwf	_doorStatus^0,c
  1644  002212                     l120:
  1645  002212  0004               	clrwdt		;# 
  1646  002214  0012               	return		;funcret
  1647  002216                     __end_of_doorController_closingDoor:
  1648                           	callstack 0
  1649                           
  1650 ;; *************** function _LCD_print *****************
  1651 ;; Defined at:
  1652 ;;		line 73 in file "./lcd.h"
  1653 ;; Parameters:    Size  Location     Type
  1654 ;;  text            2   26[COMRAM] PTR unsigned char 
  1655 ;;		 -> STR_16(11), STR_15(11), STR_14(9), STR_13(11), 
  1656 ;;		 -> STR_12(10), STR_11(12), STR_10(12), STR_9(8), 
  1657 ;;		 -> STR_8(11), STR_7(11), STR_6(8), STR_5(12), 
  1658 ;;		 -> STR_4(8), STR_3(9), STR_2(12), STR_1(14), 
  1659 ;;  delay           4   28[COMRAM] long 
  1660 ;; Auto vars:     Size  Location     Type
  1661 ;;  i               2   36[COMRAM] int 
  1662 ;;  length          2   34[COMRAM] int 
  1663 ;; Return value:  Size  Location     Type
  1664 ;;                  1    wreg      void 
  1665 ;; Registers used:
  1666 ;;		wreg, status,2, status,0, tblptrl, tblptrh, tblptru, cstack
  1667 ;; Tracked objects:
  1668 ;;		On entry : 0/0
  1669 ;;		On exit  : 0/0
  1670 ;;		Unchanged: 0/0
  1671 ;; Data sizes:     COMRAM   BANK0   BANK1   BANK2   BANK3   BANK4   BANK5   BANK6   BANK7
  1672 ;;      Params:         6       0       0       0       0       0       0       0       0
  1673 ;;      Locals:         4       0       0       0       0       0       0       0       0
  1674 ;;      Temps:          2       0       0       0       0       0       0       0       0
  1675 ;;      Totals:        12       0       0       0       0       0       0       0       0
  1676 ;;Total ram usage:       12 bytes
  1677 ;; Hardware stack levels used: 1
  1678 ;; Hardware stack levels required when called: 5
  1679 ;; This function calls:
  1680 ;;		_LCD_customDelay_ms
  1681 ;;		_strlen
  1682 ;; This function is called by:
  1683 ;;		_doorController_init
  1684 ;;		_doorController_openingDoor
  1685 ;;		_doorController_closingDoor
  1686 ;;		_main
  1687 ;; This function uses a non-reentrant model
  1688 ;;
  1689                           
  1690                           	psect	text8
  1691  002346                     __ptext8:
  1692                           	callstack 0
  1693  002346                     _LCD_print:
  1694                           	callstack 23
  1695  002346                     
  1696                           ;./lcd.h: 73: void LCD_print(char text[], long delay);./lcd.h: 74: {;./lcd.h: 75:    int
      +                           i, length;;./lcd.h: 76:    length = (int) strlen(text);
  1697  002346  C01B  F017         	movff	LCD_print@text,strlen@s
  1698  00234A  C01C  F018         	movff	LCD_print@text+1,strlen@s+1
  1699  00234E  ECCA  F012         	call	_strlen	;wreg free
  1700  002352  C017  F023         	movff	?_strlen,LCD_print@length
  1701  002356  C018  F024         	movff	?_strlen+1,LCD_print@length+1
  1702  00235A                     
  1703                           ;./lcd.h: 77:    for (i = 0; i < length; i++) {
  1704  00235A  0E00               	movlw	0
  1705  00235C  6E26               	movwf	(LCD_print@i+1)^0,c
  1706  00235E  0E00               	movlw	0
  1707  002360  6E25               	movwf	LCD_print@i^0,c
  1708  002362  EFD2  F011         	goto	l1959
  1709  002366                     l67:
  1710                           
  1711                           ;./lcd.h: 78:       PORTEbits.RE1 = 1;
  1712  002366  8284               	bsf	132,1,c	;volatile
  1713  002368                     
  1714                           ;./lcd.h: 79:       PORTD = text[i];
  1715  002368  5025               	movf	LCD_print@i^0,w,c
  1716  00236A  241B               	addwf	LCD_print@text^0,w,c
  1717  00236C  6E21               	movwf	??_LCD_print^0,c
  1718  00236E  5026               	movf	(LCD_print@i+1)^0,w,c
  1719  002370  201C               	addwfc	(LCD_print@text+1)^0,w,c
  1720  002372  6E22               	movwf	(??_LCD_print+1)^0,c
  1721  002374  C021  FFF6         	movff	??_LCD_print,tblptrl
  1722  002378  C022  FFF7         	movff	??_LCD_print+1,tblptrh
  1723  00237C                     	if	0	;tblptru may be non-zero
  1724  00237C                     	endif
  1725  00237C                     	if	0	;tblptru may be non-zero
  1726  00237C                     	endif
  1727  00237C  0008               	tblrd		*
  1728  00237E  CFF5 FF83          	movff	tablat,3971	;volatile
  1729  002382                     
  1730                           ;./lcd.h: 80:       LCD_customDelay_ms(delay);
  1731  002382  C01D  F017         	movff	LCD_print@delay,LCD_customDelay_ms@ms
  1732  002386  C01E  F018         	movff	LCD_print@delay+1,LCD_customDelay_ms@ms+1
  1733  00238A  C01F  F019         	movff	LCD_print@delay+2,LCD_customDelay_ms@ms+2
  1734  00238E  C020  F01A         	movff	LCD_print@delay+3,LCD_customDelay_ms@ms+3
  1735  002392  ECE7  F012         	call	_LCD_customDelay_ms	;wreg free
  1736  002396                     
  1737                           ;./lcd.h: 82:       PORTEbits.RE1 = 0;
  1738  002396  9284               	bcf	132,1,c	;volatile
  1739  002398                     
  1740                           ;./lcd.h: 83:       _delay((unsigned long)((50)*(4000000/4000000.0)));
  1741  002398  0E10               	movlw	16
  1742  00239A                     u4117:
  1743  00239A  2EE8               	decfsz	wreg,f,c
  1744  00239C  D7FE               	bra	u4117
  1745  00239E  D000               	nop2	
  1746  0023A0                     
  1747                           ;./lcd.h: 84:    }
  1748  0023A0  4A25               	infsnz	LCD_print@i^0,f,c
  1749  0023A2  2A26               	incf	(LCD_print@i+1)^0,f,c
  1750  0023A4                     l1959:
  1751  0023A4  5023               	movf	LCD_print@length^0,w,c
  1752  0023A6  5C25               	subwf	LCD_print@i^0,w,c
  1753  0023A8  5026               	movf	(LCD_print@i+1)^0,w,c
  1754  0023AA  0A80               	xorlw	128
  1755  0023AC  6E21               	movwf	??_LCD_print^0,c
  1756  0023AE  5024               	movf	(LCD_print@length+1)^0,w,c
  1757  0023B0  0A80               	xorlw	128
  1758  0023B2  5821               	subwfb	??_LCD_print^0,w,c
  1759  0023B4  A0D8               	btfss	status,0,c
  1760  0023B6  EFDF  F011         	goto	u1451
  1761  0023BA  EFE1  F011         	goto	u1450
  1762  0023BE                     u1451:
  1763  0023BE  EFB3  F011         	goto	l67
  1764  0023C2                     u1450:
  1765  0023C2  0012               	return		;funcret
  1766  0023C4                     __end_of_LCD_print:
  1767                           	callstack 0
  1768                           
  1769 ;; *************** function _strlen *****************
  1770 ;; Defined at:
  1771 ;;		line 5 in file "C:\Program Files\Microchip\xc8\v2.32\pic\sources\c99\common\strlen.c"
  1772 ;; Parameters:    Size  Location     Type
  1773 ;;  s               2   22[COMRAM] PTR const unsigned char 
  1774 ;;		 -> STR_16(11), STR_15(11), STR_14(9), STR_13(11), 
  1775 ;;		 -> STR_12(10), STR_11(12), STR_10(12), STR_9(8), 
  1776 ;;		 -> STR_8(11), STR_7(11), STR_6(8), STR_5(12), 
  1777 ;;		 -> STR_4(8), STR_3(9), STR_2(12), STR_1(14), 
  1778 ;; Auto vars:     Size  Location     Type
  1779 ;;  a               2   24[COMRAM] PTR const unsigned char 
  1780 ;;		 -> STR_16(11), STR_15(11), STR_14(9), STR_13(11), 
  1781 ;;		 -> STR_12(10), STR_11(12), STR_10(12), STR_9(8), 
  1782 ;;		 -> STR_8(11), STR_7(11), STR_6(8), STR_5(12), 
  1783 ;;		 -> STR_4(8), STR_3(9), STR_2(12), STR_1(14), 
  1784 ;; Return value:  Size  Location     Type
  1785 ;;                  2   22[COMRAM] unsigned int 
  1786 ;; Registers used:
  1787 ;;		wreg, status,2, status,0, tblptrl, tblptrh, tblptru
  1788 ;; Tracked objects:
  1789 ;;		On entry : 0/0
  1790 ;;		On exit  : 0/0
  1791 ;;		Unchanged: 0/0
  1792 ;; Data sizes:     COMRAM   BANK0   BANK1   BANK2   BANK3   BANK4   BANK5   BANK6   BANK7
  1793 ;;      Params:         2       0       0       0       0       0       0       0       0
  1794 ;;      Locals:         2       0       0       0       0       0       0       0       0
  1795 ;;      Temps:          0       0       0       0       0       0       0       0       0
  1796 ;;      Totals:         4       0       0       0       0       0       0       0       0
  1797 ;;Total ram usage:        4 bytes
  1798 ;; Hardware stack levels used: 1
  1799 ;; Hardware stack levels required when called: 4
  1800 ;; This function calls:
  1801 ;;		Nothing
  1802 ;; This function is called by:
  1803 ;;		_LCD_print
  1804 ;; This function uses a non-reentrant model
  1805 ;;
  1806                           
  1807                           	psect	text9
  1808  002594                     __ptext9:
  1809                           	callstack 0
  1810  002594                     _strlen:
  1811                           	callstack 23
  1812  002594  C017  F019         	movff	strlen@s,strlen@a
  1813  002598  C018  F01A         	movff	strlen@s+1,strlen@a+1
  1814  00259C  EFD2  F012         	goto	l1915
  1815  0025A0                     l1913:
  1816  0025A0  4A17               	infsnz	strlen@s^0,f,c
  1817  0025A2  2A18               	incf	(strlen@s+1)^0,f,c
  1818  0025A4                     l1915:
  1819  0025A4  C017  FFF6         	movff	strlen@s,tblptrl
  1820  0025A8  C018  FFF7         	movff	strlen@s+1,tblptrh
  1821  0025AC                     	if	0	;tblptru may be non-zero
  1822  0025AC                     	endif
  1823  0025AC                     	if	0	;tblptru may be non-zero
  1824  0025AC                     	endif
  1825  0025AC  0008               	tblrd		*
  1826  0025AE  50F5               	movf	tablat,w,c
  1827  0025B0  0900               	iorlw	0
  1828  0025B2  A4D8               	btfss	status,2,c
  1829  0025B4  EFDE  F012         	goto	u1441
  1830  0025B8  EFE0  F012         	goto	u1440
  1831  0025BC                     u1441:
  1832  0025BC  EFD0  F012         	goto	l1913
  1833  0025C0                     u1440:
  1834  0025C0  5019               	movf	strlen@a^0,w,c
  1835  0025C2  5C17               	subwf	strlen@s^0,w,c
  1836  0025C4  6E17               	movwf	?_strlen^0,c
  1837  0025C6  501A               	movf	(strlen@a+1)^0,w,c
  1838  0025C8  5818               	subwfb	(strlen@s+1)^0,w,c
  1839  0025CA  6E18               	movwf	(?_strlen+1)^0,c
  1840  0025CC  0012               	return		;funcret
  1841  0025CE                     __end_of_strlen:
  1842                           	callstack 0
  1843                           
  1844 ;; *************** function _LCD_customDelay_ms *****************
  1845 ;; Defined at:
  1846 ;;		line 66 in file "./lcd.h"
  1847 ;; Parameters:    Size  Location     Type
  1848 ;;  ms              4   22[COMRAM] long 
  1849 ;; Auto vars:     Size  Location     Type
  1850 ;;		None
  1851 ;; Return value:  Size  Location     Type
  1852 ;;                  1    wreg      void 
  1853 ;; Registers used:
  1854 ;;		wreg, status,2, status,0
  1855 ;; Tracked objects:
  1856 ;;		On entry : 0/0
  1857 ;;		On exit  : 0/0
  1858 ;;		Unchanged: 0/0
  1859 ;; Data sizes:     COMRAM   BANK0   BANK1   BANK2   BANK3   BANK4   BANK5   BANK6   BANK7
  1860 ;;      Params:         4       0       0       0       0       0       0       0       0
  1861 ;;      Locals:         0       0       0       0       0       0       0       0       0
  1862 ;;      Temps:          0       0       0       0       0       0       0       0       0
  1863 ;;      Totals:         4       0       0       0       0       0       0       0       0
  1864 ;;Total ram usage:        4 bytes
  1865 ;; Hardware stack levels used: 1
  1866 ;; Hardware stack levels required when called: 4
  1867 ;; This function calls:
  1868 ;;		Nothing
  1869 ;; This function is called by:
  1870 ;;		_LCD_print
  1871 ;;		_doorController_openingDoor
  1872 ;;		_doorController_closingDoor
  1873 ;; This function uses a non-reentrant model
  1874 ;;
  1875                           
  1876                           	psect	text10
  1877  0025CE                     __ptext10:
  1878                           	callstack 0
  1879  0025CE                     _LCD_customDelay_ms:
  1880                           	callstack 23
  1881  0025CE                     
  1882                           ;./lcd.h: 66: void LCD_customDelay_ms(long ms);./lcd.h: 67: {;./lcd.h: 68:    while (ms-
      +                          -) {
  1883  0025CE  EFED  F012         	goto	l1909
  1884  0025D2                     l1907:
  1885                           
  1886                           ;./lcd.h: 69:       _delay((unsigned long)((1)*(4000000/4000.0)));
  1887  0025D2  0EC8               	movlw	200
  1888  0025D4                     u4127:
  1889  0025D4  D000               	nop2	
  1890  0025D6  2EE8               	decfsz	wreg,f,c
  1891  0025D8  D7FD               	bra	u4127
  1892  0025DA                     l1909:
  1893                           
  1894                           ;./lcd.h: 68:    while (ms--) {
  1895  0025DA  0EFF               	movlw	255
  1896  0025DC  2617               	addwf	LCD_customDelay_ms@ms^0,f,c
  1897  0025DE  0EFF               	movlw	255
  1898  0025E0  2218               	addwfc	(LCD_customDelay_ms@ms+1)^0,f,c
  1899  0025E2  0EFF               	movlw	255
  1900  0025E4  2219               	addwfc	(LCD_customDelay_ms@ms+2)^0,f,c
  1901  0025E6  0EFF               	movlw	255
  1902  0025E8  221A               	addwfc	(LCD_customDelay_ms@ms+3)^0,f,c
  1903  0025EA  2817               	incf	LCD_customDelay_ms@ms^0,w,c
  1904  0025EC  E10A               	bnz	u1431
  1905  0025EE  2818               	incf	(LCD_customDelay_ms@ms+1)^0,w,c
  1906  0025F0  E108               	bnz	u1431
  1907  0025F2  2819               	incf	(LCD_customDelay_ms@ms+2)^0,w,c
  1908  0025F4  E106               	bnz	u1431
  1909  0025F6  281A               	incf	(LCD_customDelay_ms@ms+3)^0,w,c
  1910  0025F8  A4D8               	btfss	status,2,c
  1911  0025FA  EF01  F013         	goto	u1431
  1912  0025FE  EF03  F013         	goto	u1430
  1913  002602                     u1431:
  1914  002602  EFE9  F012         	goto	l1907
  1915  002606                     u1430:
  1916  002606  0012               	return		;funcret
  1917  002608                     __end_of_LCD_customDelay_ms:
  1918                           	callstack 0
  1919                           
  1920 ;; *************** function _LCD_placeCursorInPosition *****************
  1921 ;; Defined at:
  1922 ;;		line 55 in file "./lcd.h"
  1923 ;; Parameters:    Size  Location     Type
  1924 ;;  position        1    wreg     unsigned char 
  1925 ;; Auto vars:     Size  Location     Type
  1926 ;;  position        1   22[COMRAM] unsigned char 
  1927 ;; Return value:  Size  Location     Type
  1928 ;;                  1    wreg      void 
  1929 ;; Registers used:
  1930 ;;		wreg
  1931 ;; Tracked objects:
  1932 ;;		On entry : 0/0
  1933 ;;		On exit  : 0/0
  1934 ;;		Unchanged: 0/0
  1935 ;; Data sizes:     COMRAM   BANK0   BANK1   BANK2   BANK3   BANK4   BANK5   BANK6   BANK7
  1936 ;;      Params:         0       0       0       0       0       0       0       0       0
  1937 ;;      Locals:         1       0       0       0       0       0       0       0       0
  1938 ;;      Temps:          0       0       0       0       0       0       0       0       0
  1939 ;;      Totals:         1       0       0       0       0       0       0       0       0
  1940 ;;Total ram usage:        1 bytes
  1941 ;; Hardware stack levels used: 1
  1942 ;; Hardware stack levels required when called: 4
  1943 ;; This function calls:
  1944 ;;		Nothing
  1945 ;; This function is called by:
  1946 ;;		_doorController_init
  1947 ;;		_doorController_openingDoor
  1948 ;;		_doorController_closingDoor
  1949 ;;		_main
  1950 ;; This function uses a non-reentrant model
  1951 ;;
  1952                           
  1953                           	psect	text11
  1954  0026B2                     __ptext11:
  1955                           	callstack 0
  1956  0026B2                     _LCD_placeCursorInPosition:
  1957                           	callstack 24
  1958                           
  1959                           ;incstack = 0
  1960                           ;LCD_placeCursorInPosition@position stored from wreg
  1961  0026B2  6E17               	movwf	LCD_placeCursorInPosition@position^0,c
  1962  0026B4                     
  1963                           ;./lcd.h: 55: void LCD_placeCursorInPosition(char position);./lcd.h: 56: {;./lcd.h: 57: 
      +                             PORTEbits.RE2 = 0;
  1964  0026B4  9484               	bcf	132,2,c	;volatile
  1965                           
  1966                           ;./lcd.h: 58:    PORTEbits.RE1 = 1;
  1967  0026B6  8284               	bsf	132,1,c	;volatile
  1968  0026B8                     
  1969                           ;./lcd.h: 59:    PORTD = position;
  1970  0026B8  C017  FF83         	movff	LCD_placeCursorInPosition@position,3971	;volatile
  1971  0026BC                     
  1972                           ;./lcd.h: 60:    _delay((unsigned long)((50)*(4000000/4000000.0)));
  1973  0026BC  0E10               	movlw	16
  1974  0026BE                     u4137:
  1975  0026BE  2EE8               	decfsz	wreg,f,c
  1976  0026C0  D7FE               	bra	u4137
  1977  0026C2  D000               	nop2	
  1978  0026C4                     
  1979                           ;./lcd.h: 61:    PORTEbits.RE1 = 0;
  1980  0026C4  9284               	bcf	132,1,c	;volatile
  1981  0026C6                     
  1982                           ;./lcd.h: 62:    _delay((unsigned long)((50)*(4000000/4000000.0)));
  1983  0026C6  0E10               	movlw	16
  1984  0026C8                     u4147:
  1985  0026C8  2EE8               	decfsz	wreg,f,c
  1986  0026CA  D7FE               	bra	u4147
  1987  0026CC  D000               	nop2	
  1988  0026CE                     
  1989                           ;./lcd.h: 63:    PORTEbits.RE2 = 1;
  1990  0026CE  8484               	bsf	132,2,c	;volatile
  1991  0026D0  0012               	return		;funcret
  1992  0026D2                     __end_of_LCD_placeCursorInPosition:
  1993                           	callstack 0
  1994                           
  1995 ;; *************** function _LCD_clearScreen *****************
  1996 ;; Defined at:
  1997 ;;		line 44 in file "./lcd.h"
  1998 ;; Parameters:    Size  Location     Type
  1999 ;;		None
  2000 ;; Auto vars:     Size  Location     Type
  2001 ;;		None
  2002 ;; Return value:  Size  Location     Type
  2003 ;;                  1    wreg      void 
  2004 ;; Registers used:
  2005 ;;		wreg, status,2
  2006 ;; Tracked objects:
  2007 ;;		On entry : 0/0
  2008 ;;		On exit  : 0/0
  2009 ;;		Unchanged: 0/0
  2010 ;; Data sizes:     COMRAM   BANK0   BANK1   BANK2   BANK3   BANK4   BANK5   BANK6   BANK7
  2011 ;;      Params:         0       0       0       0       0       0       0       0       0
  2012 ;;      Locals:         0       0       0       0       0       0       0       0       0
  2013 ;;      Temps:          0       0       0       0       0       0       0       0       0
  2014 ;;      Totals:         0       0       0       0       0       0       0       0       0
  2015 ;;Total ram usage:        0 bytes
  2016 ;; Hardware stack levels used: 1
  2017 ;; Hardware stack levels required when called: 4
  2018 ;; This function calls:
  2019 ;;		Nothing
  2020 ;; This function is called by:
  2021 ;;		_doorController_init
  2022 ;;		_doorController_openingDoor
  2023 ;;		_doorController_closingDoor
  2024 ;; This function uses a non-reentrant model
  2025 ;;
  2026                           
  2027                           	psect	text12
  2028  0026F2                     __ptext12:
  2029                           	callstack 0
  2030  0026F2                     _LCD_clearScreen:
  2031                           	callstack 24
  2032  0026F2                     
  2033                           ;./lcd.h: 46:    PORTEbits.RE2 = 0;
  2034  0026F2  9484               	bcf	132,2,c	;volatile
  2035                           
  2036                           ;./lcd.h: 47:    PORTEbits.RE1 = 1;
  2037  0026F4  8284               	bsf	132,1,c	;volatile
  2038  0026F6                     
  2039                           ;./lcd.h: 48:    PORTD = 0x01;
  2040  0026F6  0E01               	movlw	1
  2041  0026F8  6E83               	movwf	131,c	;volatile
  2042  0026FA                     
  2043                           ;./lcd.h: 49:    _delay((unsigned long)((50)*(4000000/4000000.0)));
  2044  0026FA  0E10               	movlw	16
  2045  0026FC                     u4157:
  2046  0026FC  2EE8               	decfsz	wreg,f,c
  2047  0026FE  D7FE               	bra	u4157
  2048  002700  D000               	nop2	
  2049  002702                     
  2050                           ;./lcd.h: 50:    PORTEbits.RE1 = 0;
  2051  002702  9284               	bcf	132,1,c	;volatile
  2052  002704                     
  2053                           ;./lcd.h: 51:    _delay((unsigned long)((50)*(4000000/4000000.0)));
  2054  002704  0E10               	movlw	16
  2055  002706                     u4167:
  2056  002706  2EE8               	decfsz	wreg,f,c
  2057  002708  D7FE               	bra	u4167
  2058  00270A  D000               	nop2	
  2059  00270C                     
  2060                           ;./lcd.h: 52:    PORTEbits.RE2 = 1;
  2061  00270C  8484               	bsf	132,2,c	;volatile
  2062  00270E  0012               	return		;funcret
  2063  002710                     __end_of_LCD_clearScreen:
  2064                           	callstack 0
  2065                           
  2066 ;; *************** function ___fleq *****************
  2067 ;; Defined at:
  2068 ;;		line 4 in file "C:\Program Files\Microchip\xc8\v2.32\pic\sources\c99\common\fleq.c"
  2069 ;; Parameters:    Size  Location     Type
  2070 ;;  ff1             4   22[COMRAM] void 
  2071 ;;  ff2             4   26[COMRAM] void 
  2072 ;; Auto vars:     Size  Location     Type
  2073 ;;		None
  2074 ;; Return value:  Size  Location     Type
  2075 ;;		None               void
  2076 ;; Registers used:
  2077 ;;		wreg, status,2, status,0
  2078 ;; Tracked objects:
  2079 ;;		On entry : 0/0
  2080 ;;		On exit  : 0/0
  2081 ;;		Unchanged: 0/0
  2082 ;; Data sizes:     COMRAM   BANK0   BANK1   BANK2   BANK3   BANK4   BANK5   BANK6   BANK7
  2083 ;;      Params:         8       0       0       0       0       0       0       0       0
  2084 ;;      Locals:         0       0       0       0       0       0       0       0       0
  2085 ;;      Temps:          4       0       0       0       0       0       0       0       0
  2086 ;;      Totals:        12       0       0       0       0       0       0       0       0
  2087 ;;Total ram usage:       12 bytes
  2088 ;; Hardware stack levels used: 1
  2089 ;; Hardware stack levels required when called: 4
  2090 ;; This function calls:
  2091 ;;		Nothing
  2092 ;; This function is called by:
  2093 ;;		_main
  2094 ;; This function uses a non-reentrant model
  2095 ;;
  2096                           
  2097                           	psect	text13
  2098  00203C                     __ptext13:
  2099                           	callstack 0
  2100  00203C                     ___fleq:
  2101                           	callstack 26
  2102  00203C  0E00               	movlw	0
  2103  00203E  1417               	andwf	___fleq@ff1^0,w,c
  2104  002040  6E1F               	movwf	??___fleq^0,c
  2105  002042  0E00               	movlw	0
  2106  002044  1418               	andwf	(___fleq@ff1+1)^0,w,c
  2107  002046  6E20               	movwf	(??___fleq+1)^0,c
  2108  002048  0E80               	movlw	128
  2109  00204A  1419               	andwf	(___fleq@ff1+2)^0,w,c
  2110  00204C  6E21               	movwf	(??___fleq+2)^0,c
  2111  00204E  0E7F               	movlw	127
  2112  002050  141A               	andwf	(___fleq@ff1+3)^0,w,c
  2113  002052  6E22               	movwf	(??___fleq+3)^0,c
  2114  002054  501F               	movf	??___fleq^0,w,c
  2115  002056  1020               	iorwf	(??___fleq+1)^0,w,c
  2116  002058  1021               	iorwf	(??___fleq+2)^0,w,c
  2117  00205A  1022               	iorwf	(??___fleq+3)^0,w,c
  2118  00205C  A4D8               	btfss	status,2,c
  2119  00205E  EF33  F010         	goto	u2701
  2120  002062  EF35  F010         	goto	u2700
  2121  002066                     u2701:
  2122  002066  EF3D  F010         	goto	l2795
  2123  00206A                     u2700:
  2124  00206A  0E00               	movlw	0
  2125  00206C  6E17               	movwf	___fleq@ff1^0,c
  2126  00206E  0E00               	movlw	0
  2127  002070  6E18               	movwf	(___fleq@ff1+1)^0,c
  2128  002072  0E00               	movlw	0
  2129  002074  6E19               	movwf	(___fleq@ff1+2)^0,c
  2130  002076  0E00               	movlw	0
  2131  002078  6E1A               	movwf	(___fleq@ff1+3)^0,c
  2132  00207A                     l2795:
  2133  00207A  0E00               	movlw	0
  2134  00207C  141B               	andwf	___fleq@ff2^0,w,c
  2135  00207E  6E1F               	movwf	??___fleq^0,c
  2136  002080  0E00               	movlw	0
  2137  002082  141C               	andwf	(___fleq@ff2+1)^0,w,c
  2138  002084  6E20               	movwf	(??___fleq+1)^0,c
  2139  002086  0E80               	movlw	128
  2140  002088  141D               	andwf	(___fleq@ff2+2)^0,w,c
  2141  00208A  6E21               	movwf	(??___fleq+2)^0,c
  2142  00208C  0E7F               	movlw	127
  2143  00208E  141E               	andwf	(___fleq@ff2+3)^0,w,c
  2144  002090  6E22               	movwf	(??___fleq+3)^0,c
  2145  002092  501F               	movf	??___fleq^0,w,c
  2146  002094  1020               	iorwf	(??___fleq+1)^0,w,c
  2147  002096  1021               	iorwf	(??___fleq+2)^0,w,c
  2148  002098  1022               	iorwf	(??___fleq+3)^0,w,c
  2149  00209A  A4D8               	btfss	status,2,c
  2150  00209C  EF52  F010         	goto	u2711
  2151  0020A0  EF54  F010         	goto	u2710
  2152  0020A4                     u2711:
  2153  0020A4  EF5C  F010         	goto	l2799
  2154  0020A8                     u2710:
  2155  0020A8  0E00               	movlw	0
  2156  0020AA  6E1B               	movwf	___fleq@ff2^0,c
  2157  0020AC  0E00               	movlw	0
  2158  0020AE  6E1C               	movwf	(___fleq@ff2+1)^0,c
  2159  0020B0  0E00               	movlw	0
  2160  0020B2  6E1D               	movwf	(___fleq@ff2+2)^0,c
  2161  0020B4  0E00               	movlw	0
  2162  0020B6  6E1E               	movwf	(___fleq@ff2+3)^0,c
  2163  0020B8                     l2799:
  2164  0020B8  501B               	movf	___fleq@ff2^0,w,c
  2165  0020BA  1817               	xorwf	___fleq@ff1^0,w,c
  2166  0020BC  E10F               	bnz	u2720
  2167  0020BE  501C               	movf	(___fleq@ff2+1)^0,w,c
  2168  0020C0  1818               	xorwf	(___fleq@ff1+1)^0,w,c
  2169  0020C2  E10C               	bnz	u2720
  2170  0020C4  501D               	movf	(___fleq@ff2+2)^0,w,c
  2171  0020C6  1819               	xorwf	(___fleq@ff1+2)^0,w,c
  2172  0020C8  E109               	bnz	u2720
  2173  0020CA  501E               	movf	(___fleq@ff2+3)^0,w,c
  2174  0020CC  181A               	xorwf	(___fleq@ff1+3)^0,w,c
  2175  0020CE  B4D8               	btfsc	status,2,c
  2176  0020D0  EF6C  F010         	goto	u2721
  2177  0020D4  EF6E  F010         	goto	u2720
  2178  0020D8                     u2721:
  2179  0020D8  EF71  F010         	goto	l2803
  2180  0020DC                     u2720:
  2181  0020DC  90D8               	bcf	status,0,c
  2182  0020DE  EF72  F010         	goto	l408
  2183  0020E2                     l2803:
  2184  0020E2  80D8               	bsf	status,0,c
  2185  0020E4                     l408:
  2186  0020E4  0012               	return		;funcret
  2187  0020E6                     __end_of___fleq:
  2188                           	callstack 0
  2189                           
  2190 ;; *************** function _LCD_printFloatNumber *****************
  2191 ;; Defined at:
  2192 ;;		line 96 in file "./lcd.h"
  2193 ;; Parameters:    Size  Location     Type
  2194 ;;  number          4   26[BANK0 ] void 
  2195 ;;  precision       2   30[BANK0 ] int 
  2196 ;; Auto vars:     Size  Location     Type
  2197 ;;  counter         1   39[BANK0 ] unsigned char 
  2198 ;;  aux             1   38[BANK0 ] unsigned char 
  2199 ;;  digit           1   37[BANK0 ] unsigned char 
  2200 ;; Return value:  Size  Location     Type
  2201 ;;                  1    wreg      void 
  2202 ;; Registers used:
  2203 ;;		wreg, status,2, status,0, prodl, prodh, cstack
  2204 ;; Tracked objects:
  2205 ;;		On entry : 0/0
  2206 ;;		On exit  : 0/0
  2207 ;;		Unchanged: 0/0
  2208 ;; Data sizes:     COMRAM   BANK0   BANK1   BANK2   BANK3   BANK4   BANK5   BANK6   BANK7
  2209 ;;      Params:         0       6       0       0       0       0       0       0       0
  2210 ;;      Locals:         0       3       0       0       0       0       0       0       0
  2211 ;;      Temps:          0       5       0       0       0       0       0       0       0
  2212 ;;      Totals:         0      14       0       0       0       0       0       0       0
  2213 ;;Total ram usage:       14 bytes
  2214 ;; Hardware stack levels used: 1
  2215 ;; Hardware stack levels required when called: 6
  2216 ;; This function calls:
  2217 ;;		_LCD_printChar
  2218 ;;		___fldiv
  2219 ;;		___flge
  2220 ;;		___flmul
  2221 ;;		___flsub
  2222 ;;		___fltol
  2223 ;;		___xxtofl
  2224 ;;		_floorf
  2225 ;; This function is called by:
  2226 ;;		_main
  2227 ;; This function uses a non-reentrant model
  2228 ;;
  2229                           
  2230                           	psect	text14
  2231  001AC2                     __ptext14:
  2232                           	callstack 0
  2233  001AC2                     _LCD_printFloatNumber:
  2234                           	callstack 24
  2235  001AC2                     
  2236                           ;./lcd.h: 96: void LCD_printFloatNumber(double number, int precision);./lcd.h: 97: {;./l
      +                          cd.h: 98:    char digit, counter, aux;;./lcd.h: 99:    counter = 0;
  2237  001AC2  0E00               	movlw	0
  2238  001AC4  0100               	movlb	0	; () banked
  2239  001AC6  6F87               	movwf	LCD_printFloatNumber@counter& (0+255),b
  2240                           
  2241                           ;./lcd.h: 100:    aux = 0;
  2242  001AC8  0E00               	movlw	0
  2243  001ACA  6F86               	movwf	LCD_printFloatNumber@aux& (0+255),b
  2244                           
  2245                           ;./lcd.h: 101:    while (number >= 1) {
  2246  001ACC  EF84  F00D         	goto	l3589
  2247  001AD0                     l3585:
  2248                           
  2249                           ;./lcd.h: 102:       number /= 10;
  2250  001AD0  C07A  F031         	movff	LCD_printFloatNumber@number,___fldiv@b
  2251  001AD4  C07B  F032         	movff	LCD_printFloatNumber@number+1,___fldiv@b+1
  2252  001AD8  C07C  F033         	movff	LCD_printFloatNumber@number+2,___fldiv@b+2
  2253  001ADC  C07D  F034         	movff	LCD_printFloatNumber@number+3,___fldiv@b+3
  2254  001AE0  0E00               	movlw	0
  2255  001AE2  6E35               	movwf	___fldiv@a^0,c
  2256  001AE4  0E00               	movlw	0
  2257  001AE6  6E36               	movwf	(___fldiv@a+1)^0,c
  2258  001AE8  0E20               	movlw	32
  2259  001AEA  6E37               	movwf	(___fldiv@a+2)^0,c
  2260  001AEC  0E41               	movlw	65
  2261  001AEE  6E38               	movwf	(___fldiv@a+3)^0,c
  2262  001AF0  ECB8  F008         	call	___fldiv	;wreg free
  2263  001AF4  C031  F07A         	movff	?___fldiv,LCD_printFloatNumber@number
  2264  001AF8  C032  F07B         	movff	?___fldiv+1,LCD_printFloatNumber@number+1
  2265  001AFC  C033  F07C         	movff	?___fldiv+2,LCD_printFloatNumber@number+2
  2266  001B00  C034  F07D         	movff	?___fldiv+3,LCD_printFloatNumber@number+3
  2267  001B04                     
  2268                           ;./lcd.h: 103:       counter++;
  2269  001B04  0100               	movlb	0	; () banked
  2270  001B06  2B87               	incf	LCD_printFloatNumber@counter& (0+255),f,b
  2271  001B08                     l3589:
  2272                           
  2273                           ; BSR set to: 0
  2274                           ;./lcd.h: 101:    while (number >= 1) {
  2275  001B08  C07A  F017         	movff	LCD_printFloatNumber@number,___flge@ff1
  2276  001B0C  C07B  F018         	movff	LCD_printFloatNumber@number+1,___flge@ff1+1
  2277  001B10  C07C  F019         	movff	LCD_printFloatNumber@number+2,___flge@ff1+2
  2278  001B14  C07D  F01A         	movff	LCD_printFloatNumber@number+3,___flge@ff1+3
  2279  001B18  0E00               	movlw	0
  2280  001B1A  6E1B               	movwf	___flge@ff2^0,c
  2281  001B1C  0E00               	movlw	0
  2282  001B1E  6E1C               	movwf	(___flge@ff2+1)^0,c
  2283  001B20  0E80               	movlw	128
  2284  001B22  6E1D               	movwf	(___flge@ff2+2)^0,c
  2285  001B24  0E3F               	movlw	63
  2286  001B26  6E1E               	movwf	(___flge@ff2+3)^0,c
  2287  001B28  EC35  F00F         	call	___flge	;wreg free
  2288  001B2C  B0D8               	btfsc	status,0,c
  2289  001B2E  EF9B  F00D         	goto	u3981
  2290  001B32  EF9D  F00D         	goto	u3980
  2291  001B36                     u3981:
  2292  001B36  EF68  F00D         	goto	l3585
  2293  001B3A                     u3980:
  2294  001B3A                     
  2295                           ;./lcd.h: 105:    if (counter == 0) {
  2296  001B3A  0100               	movlb	0	; () banked
  2297  001B3C  5187               	movf	LCD_printFloatNumber@counter& (0+255),w,b
  2298  001B3E  A4D8               	btfss	status,2,c
  2299  001B40  EFA4  F00D         	goto	u3991
  2300  001B44  EFA6  F00D         	goto	u3990
  2301  001B48                     u3991:
  2302  001B48  EF14  F00E         	goto	l3609
  2303  001B4C                     u3990:
  2304  001B4C                     
  2305                           ; BSR set to: 0
  2306                           ;./lcd.h: 106:       LCD_printChar(48);
  2307  001B4C  0E30               	movlw	48
  2308  001B4E  EC97  F013         	call	_LCD_printChar
  2309                           
  2310                           ;./lcd.h: 107:       LCD_printChar(46);
  2311  001B52  0E2E               	movlw	46
  2312  001B54  EC97  F013         	call	_LCD_printChar
  2313  001B58  EF14  F00E         	goto	l3609
  2314  001B5C                     l3595:
  2315                           
  2316                           ; BSR set to: 0
  2317                           ;./lcd.h: 110:       aux++;
  2318  001B5C  2B86               	incf	LCD_printFloatNumber@aux& (0+255),f,b
  2319  001B5E                     
  2320                           ; BSR set to: 0
  2321                           ;./lcd.h: 111:       number *= 10;
  2322  001B5E  C07A  F025         	movff	LCD_printFloatNumber@number,___flmul@b
  2323  001B62  C07B  F026         	movff	LCD_printFloatNumber@number+1,___flmul@b+1
  2324  001B66  C07C  F027         	movff	LCD_printFloatNumber@number+2,___flmul@b+2
  2325  001B6A  C07D  F028         	movff	LCD_printFloatNumber@number+3,___flmul@b+3
  2326  001B6E  0E00               	movlw	0
  2327  001B70  6E29               	movwf	___flmul@a^0,c
  2328  001B72  0E00               	movlw	0
  2329  001B74  6E2A               	movwf	(___flmul@a+1)^0,c
  2330  001B76  0E20               	movlw	32
  2331  001B78  6E2B               	movwf	(___flmul@a+2)^0,c
  2332  001B7A  0E41               	movlw	65
  2333  001B7C  6E2C               	movwf	(___flmul@a+3)^0,c
  2334  001B7E  ECA2  F006         	call	___flmul	;wreg free
  2335  001B82  C025  F07A         	movff	?___flmul,LCD_printFloatNumber@number
  2336  001B86  C026  F07B         	movff	?___flmul+1,LCD_printFloatNumber@number+1
  2337  001B8A  C027  F07C         	movff	?___flmul+2,LCD_printFloatNumber@number+2
  2338  001B8E  C028  F07D         	movff	?___flmul+3,LCD_printFloatNumber@number+3
  2339  001B92                     
  2340                           ;./lcd.h: 112:       digit = (char)floorf(number);
  2341  001B92  C07A  F017         	movff	LCD_printFloatNumber@number,floorf@x
  2342  001B96  C07B  F018         	movff	LCD_printFloatNumber@number+1,floorf@x+1
  2343  001B9A  C07C  F019         	movff	LCD_printFloatNumber@number+2,floorf@x+2
  2344  001B9E  C07D  F01A         	movff	LCD_printFloatNumber@number+3,floorf@x+3
  2345  001BA2  EC86  F00A         	call	_floorf	;wreg free
  2346  001BA6  C017  F02B         	movff	?_floorf,___fltol@f1
  2347  001BAA  C018  F02C         	movff	?_floorf+1,___fltol@f1+1
  2348  001BAE  C019  F02D         	movff	?_floorf+2,___fltol@f1+2
  2349  001BB2  C01A  F02E         	movff	?_floorf+3,___fltol@f1+3
  2350  001BB6  ECB2  F00E         	call	___fltol	;wreg free
  2351  001BBA  502B               	movf	?___fltol^0,w,c
  2352  001BBC  0100               	movlb	0	; () banked
  2353  001BBE  6F85               	movwf	LCD_printFloatNumber@digit& (0+255),b
  2354  001BC0                     
  2355                           ; BSR set to: 0
  2356                           ;./lcd.h: 113:       number -= digit;
  2357  001BC0  C07A  F027         	movff	LCD_printFloatNumber@number,___flsub@b
  2358  001BC4  C07B  F028         	movff	LCD_printFloatNumber@number+1,___flsub@b+1
  2359  001BC8  C07C  F029         	movff	LCD_printFloatNumber@number+2,___flsub@b+2
  2360  001BCC  C07D  F02A         	movff	LCD_printFloatNumber@number+3,___flsub@b+3
  2361  001BD0  5185               	movf	LCD_printFloatNumber@digit& (0+255),w,b
  2362  001BD2  6E17               	movwf	___xxtofl@val^0,c
  2363  001BD4  6A18               	clrf	(___xxtofl@val+1)^0,c
  2364  001BD6  6A19               	clrf	(___xxtofl@val+2)^0,c
  2365  001BD8  6A1A               	clrf	(___xxtofl@val+3)^0,c
  2366  001BDA  0E01               	movlw	1
  2367  001BDC  EC87  F00C         	call	___xxtofl
  2368  001BE0  C017  F02B         	movff	?___xxtofl,___flsub@a
  2369  001BE4  C018  F02C         	movff	?___xxtofl+1,___flsub@a+1
  2370  001BE8  C019  F02D         	movff	?___xxtofl+2,___flsub@a+2
  2371  001BEC  C01A  F02E         	movff	?___xxtofl+3,___flsub@a+3
  2372  001BF0  ECA7  F012         	call	___flsub	;wreg free
  2373  001BF4  C027  F07A         	movff	?___flsub,LCD_printFloatNumber@number
  2374  001BF8  C028  F07B         	movff	?___flsub+1,LCD_printFloatNumber@number+1
  2375  001BFC  C029  F07C         	movff	?___flsub+2,LCD_printFloatNumber@number+2
  2376  001C00  C02A  F07D         	movff	?___flsub+3,LCD_printFloatNumber@number+3
  2377  001C04                     
  2378                           ;./lcd.h: 114:       LCD_printChar(48 + digit);
  2379  001C04  0100               	movlb	0	; () banked
  2380  001C06  5185               	movf	LCD_printFloatNumber@digit& (0+255),w,b
  2381  001C08  0F30               	addlw	48
  2382  001C0A  EC97  F013         	call	_LCD_printChar
  2383  001C0E                     
  2384                           ;./lcd.h: 115:       if (aux == counter)
  2385  001C0E  0100               	movlb	0	; () banked
  2386  001C10  5187               	movf	LCD_printFloatNumber@counter& (0+255),w,b
  2387  001C12  1986               	xorwf	LCD_printFloatNumber@aux& (0+255),w,b
  2388  001C14  A4D8               	btfss	status,2,c
  2389  001C16  EF0F  F00E         	goto	u4001
  2390  001C1A  EF11  F00E         	goto	u4000
  2391  001C1E                     u4001:
  2392  001C1E  EF14  F00E         	goto	l3609
  2393  001C22                     u4000:
  2394  001C22                     
  2395                           ; BSR set to: 0
  2396                           ;./lcd.h: 116:          LCD_printChar(46);
  2397  001C22  0E2E               	movlw	46
  2398  001C24  EC97  F013         	call	_LCD_printChar
  2399  001C28                     l3609:
  2400                           
  2401                           ;./lcd.h: 109:    while ( aux < counter + precision) {
  2402  001C28  0100               	movlb	0	; () banked
  2403  001C2A  5187               	movf	LCD_printFloatNumber@counter& (0+255),w,b
  2404  001C2C  257E               	addwf	LCD_printFloatNumber@precision& (0+255),w,b
  2405  001C2E  6F80               	movwf	??_LCD_printFloatNumber& (0+255),b
  2406  001C30  0E00               	movlw	0
  2407  001C32  217F               	addwfc	(LCD_printFloatNumber@precision+1)& (0+255),w,b
  2408  001C34  6F81               	movwf	(??_LCD_printFloatNumber+1)& (0+255),b
  2409  001C36  5186               	movf	LCD_printFloatNumber@aux& (0+255),w,b
  2410  001C38  6F82               	movwf	(??_LCD_printFloatNumber+2)& (0+255),b
  2411  001C3A  6B83               	clrf	(??_LCD_printFloatNumber+3)& (0+255),b
  2412  001C3C  5180               	movf	??_LCD_printFloatNumber& (0+255),w,b
  2413  001C3E  5D82               	subwf	(??_LCD_printFloatNumber+2)& (0+255),w,b
  2414  001C40  5183               	movf	(??_LCD_printFloatNumber+3)& (0+255),w,b
  2415  001C42  0A80               	xorlw	128
  2416  001C44  6F84               	movwf	(??_LCD_printFloatNumber+4)& (0+255),b
  2417  001C46  5181               	movf	(??_LCD_printFloatNumber+1)& (0+255),w,b
  2418  001C48  0A80               	xorlw	128
  2419  001C4A  5984               	subwfb	(??_LCD_printFloatNumber+4)& (0+255),w,b
  2420  001C4C  A0D8               	btfss	status,0,c
  2421  001C4E  EF2B  F00E         	goto	u4011
  2422  001C52  EF2D  F00E         	goto	u4010
  2423  001C56                     u4011:
  2424  001C56  EFAE  F00D         	goto	l3595
  2425  001C5A                     u4010:
  2426  001C5A                     
  2427                           ; BSR set to: 0
  2428  001C5A  0012               	return		;funcret
  2429  001C5C                     __end_of_LCD_printFloatNumber:
  2430                           	callstack 0
  2431                           
  2432 ;; *************** function _floorf *****************
  2433 ;; Defined at:
  2434 ;;		line 3 in file "C:\Program Files\Microchip\xc8\v2.32\pic\sources\c99\common\floorf.c"
  2435 ;; Parameters:    Size  Location     Type
  2436 ;;  x               4   22[COMRAM] float 
  2437 ;; Auto vars:     Size  Location     Type
  2438 ;;  u               4   38[COMRAM] struct .
  2439 ;;  m               4   32[COMRAM] unsigned long 
  2440 ;;  e               2   36[COMRAM] int 
  2441 ;; Return value:  Size  Location     Type
  2442 ;;                  4   22[COMRAM] float 
  2443 ;; Registers used:
  2444 ;;		wreg, status,2, status,0
  2445 ;; Tracked objects:
  2446 ;;		On entry : 0/0
  2447 ;;		On exit  : 0/0
  2448 ;;		Unchanged: 0/0
  2449 ;; Data sizes:     COMRAM   BANK0   BANK1   BANK2   BANK3   BANK4   BANK5   BANK6   BANK7
  2450 ;;      Params:         4       0       0       0       0       0       0       0       0
  2451 ;;      Locals:        10       0       0       0       0       0       0       0       0
  2452 ;;      Temps:          6       0       0       0       0       0       0       0       0
  2453 ;;      Totals:        20       0       0       0       0       0       0       0       0
  2454 ;;Total ram usage:       20 bytes
  2455 ;; Hardware stack levels used: 1
  2456 ;; Hardware stack levels required when called: 4
  2457 ;; This function calls:
  2458 ;;		Nothing
  2459 ;; This function is called by:
  2460 ;;		_LCD_printFloatNumber
  2461 ;; This function uses a non-reentrant model
  2462 ;;
  2463                           
  2464                           	psect	text15
  2465  00150C                     __ptext15:
  2466                           	callstack 0
  2467  00150C                     _floorf:
  2468                           	callstack 25
  2469  00150C  C045  F027         	movff	floorf@F527,floorf@u
  2470  001510  C046  F028         	movff	floorf@F527+1,floorf@u+1
  2471  001514  C047  F029         	movff	floorf@F527+2,floorf@u+2
  2472  001518  C048  F02A         	movff	floorf@F527+3,floorf@u+3
  2473  00151C  C017  F027         	movff	floorf@x,floorf@u
  2474  001520  C018  F028         	movff	floorf@x+1,floorf@u+1
  2475  001524  C019  F029         	movff	floorf@x+2,floorf@u+2
  2476  001528  C01A  F02A         	movff	floorf@x+3,floorf@u+3
  2477  00152C  0E81               	movlw	129
  2478  00152E  6E1B               	movwf	??_floorf^0,c
  2479  001530  0EFF               	movlw	255
  2480  001532  6E1C               	movwf	(??_floorf+1)^0,c
  2481  001534  C027  F01D         	movff	floorf@u,??_floorf+2
  2482  001538  C028  F01E         	movff	floorf@u+1,??_floorf+3
  2483  00153C  C029  F01F         	movff	floorf@u+2,??_floorf+4
  2484  001540  C02A  F020         	movff	floorf@u+3,??_floorf+5
  2485  001544  0E18               	movlw	24
  2486  001546  EFAA  F00A         	goto	u3240
  2487  00154A                     u3245:
  2488  00154A  90D8               	bcf	status,0,c
  2489  00154C  3220               	rrcf	(??_floorf+5)^0,f,c
  2490  00154E  321F               	rrcf	(??_floorf+4)^0,f,c
  2491  001550  321E               	rrcf	(??_floorf+3)^0,f,c
  2492  001552  321D               	rrcf	(??_floorf+2)^0,f,c
  2493  001554                     u3240:
  2494  001554  2EE8               	decfsz	wreg,f,c
  2495  001556  EFA5  F00A         	goto	u3245
  2496  00155A  501D               	movf	(??_floorf+2)^0,w,c
  2497  00155C  241B               	addwf	??_floorf^0,w,c
  2498  00155E  6E25               	movwf	floorf@e^0,c
  2499  001560  0E00               	movlw	0
  2500  001562  201C               	addwfc	(??_floorf+1)^0,w,c
  2501  001564  6E26               	movwf	(floorf@e+1)^0,c
  2502  001566  BE26               	btfsc	(floorf@e+1)^0,7,c
  2503  001568  EFBF  F00A         	goto	u3251
  2504  00156C  5026               	movf	(floorf@e+1)^0,w,c
  2505  00156E  E109               	bnz	u3250
  2506  001570  0E17               	movlw	23
  2507  001572  5C25               	subwf	floorf@e^0,w,c
  2508  001574  A0D8               	btfss	status,0,c
  2509  001576  EFBF  F00A         	goto	u3251
  2510  00157A  EFC1  F00A         	goto	u3250
  2511  00157E                     u3251:
  2512  00157E  EFCB  F00A         	goto	l3175
  2513  001582                     u3250:
  2514  001582                     l3173:
  2515  001582  C017  F017         	movff	floorf@x,?_floorf
  2516  001586  C018  F018         	movff	floorf@x+1,?_floorf+1
  2517  00158A  C019  F019         	movff	floorf@x+2,?_floorf+2
  2518  00158E  C01A  F01A         	movff	floorf@x+3,?_floorf+3
  2519  001592  EF8E  F00B         	goto	l826
  2520  001596                     l3175:
  2521  001596  BE26               	btfsc	(floorf@e+1)^0,7,c
  2522  001598  EFD0  F00A         	goto	u3261
  2523  00159C  EFD2  F00A         	goto	u3260
  2524  0015A0                     u3261:
  2525  0015A0  EF42  F00B         	goto	l3185
  2526  0015A4                     u3260:
  2527  0015A4  C025  F01B         	movff	floorf@e,??_floorf
  2528  0015A8  0EFF               	movlw	255
  2529  0015AA  6E1C               	movwf	(??_floorf+1)^0,c
  2530  0015AC  0EFF               	movlw	255
  2531  0015AE  6E1D               	movwf	(??_floorf+2)^0,c
  2532  0015B0  0E7F               	movlw	127
  2533  0015B2  6E1E               	movwf	(??_floorf+3)^0,c
  2534  0015B4  0E00               	movlw	0
  2535  0015B6  6E1F               	movwf	(??_floorf+4)^0,c
  2536  0015B8                     u3275:
  2537  0015B8  661B               	tstfsz	??_floorf^0,c
  2538  0015BA  EFE1  F00A         	goto	u3276
  2539  0015BE  EFE9  F00A         	goto	u3277
  2540  0015C2                     u3276:
  2541  0015C2  341F               	rlcf	(??_floorf+4)^0,w,c
  2542  0015C4  321F               	rrcf	(??_floorf+4)^0,f,c
  2543  0015C6  321E               	rrcf	(??_floorf+3)^0,f,c
  2544  0015C8  321D               	rrcf	(??_floorf+2)^0,f,c
  2545  0015CA  321C               	rrcf	(??_floorf+1)^0,f,c
  2546  0015CC  2E1B               	decfsz	??_floorf^0,f,c
  2547  0015CE  EFDC  F00A         	goto	u3275
  2548  0015D2                     u3277:
  2549  0015D2  C01C  F021         	movff	??_floorf+1,floorf@m
  2550  0015D6  C01D  F022         	movff	??_floorf+2,floorf@m+1
  2551  0015DA  C01E  F023         	movff	??_floorf+3,floorf@m+2
  2552  0015DE  C01F  F024         	movff	??_floorf+4,floorf@m+3
  2553  0015E2  5021               	movf	floorf@m^0,w,c
  2554  0015E4  1427               	andwf	floorf@u^0,w,c
  2555  0015E6  6E1B               	movwf	??_floorf^0,c
  2556  0015E8  5022               	movf	(floorf@m+1)^0,w,c
  2557  0015EA  1428               	andwf	(floorf@u+1)^0,w,c
  2558  0015EC  6E1C               	movwf	(??_floorf+1)^0,c
  2559  0015EE  5023               	movf	(floorf@m+2)^0,w,c
  2560  0015F0  1429               	andwf	(floorf@u+2)^0,w,c
  2561  0015F2  6E1D               	movwf	(??_floorf+2)^0,c
  2562  0015F4  5024               	movf	(floorf@m+3)^0,w,c
  2563  0015F6  142A               	andwf	(floorf@u+3)^0,w,c
  2564  0015F8  6E1E               	movwf	(??_floorf+3)^0,c
  2565  0015FA  501B               	movf	??_floorf^0,w,c
  2566  0015FC  101C               	iorwf	(??_floorf+1)^0,w,c
  2567  0015FE  101D               	iorwf	(??_floorf+2)^0,w,c
  2568  001600  101E               	iorwf	(??_floorf+3)^0,w,c
  2569  001602  A4D8               	btfss	status,2,c
  2570  001604  EF06  F00B         	goto	u3281
  2571  001608  EF08  F00B         	goto	u3280
  2572  00160C                     u3281:
  2573  00160C  EF0A  F00B         	goto	l3181
  2574  001610                     u3280:
  2575  001610  EFC1  F00A         	goto	l3173
  2576  001614                     l3181:
  2577  001614  C027  F01B         	movff	floorf@u,??_floorf
  2578  001618  C028  F01C         	movff	floorf@u+1,??_floorf+1
  2579  00161C  C029  F01D         	movff	floorf@u+2,??_floorf+2
  2580  001620  C02A  F01E         	movff	floorf@u+3,??_floorf+3
  2581  001624  0E20               	movlw	32
  2582  001626  EF1A  F00B         	goto	u3290
  2583  00162A                     u3295:
  2584  00162A  90D8               	bcf	status,0,c
  2585  00162C  321E               	rrcf	(??_floorf+3)^0,f,c
  2586  00162E  321D               	rrcf	(??_floorf+2)^0,f,c
  2587  001630  321C               	rrcf	(??_floorf+1)^0,f,c
  2588  001632  321B               	rrcf	??_floorf^0,f,c
  2589  001634                     u3290:
  2590  001634  2EE8               	decfsz	wreg,f,c
  2591  001636  EF15  F00B         	goto	u3295
  2592  00163A  501B               	movf	??_floorf^0,w,c
  2593  00163C  101C               	iorwf	(??_floorf+1)^0,w,c
  2594  00163E  101D               	iorwf	(??_floorf+2)^0,w,c
  2595  001640  101E               	iorwf	(??_floorf+3)^0,w,c
  2596  001642  B4D8               	btfsc	status,2,c
  2597  001644  EF26  F00B         	goto	u3301
  2598  001648  EF28  F00B         	goto	u3300
  2599  00164C                     u3301:
  2600  00164C  EF30  F00B         	goto	l829
  2601  001650                     u3300:
  2602  001650  5021               	movf	floorf@m^0,w,c
  2603  001652  2627               	addwf	floorf@u^0,f,c
  2604  001654  5022               	movf	(floorf@m+1)^0,w,c
  2605  001656  2228               	addwfc	(floorf@u+1)^0,f,c
  2606  001658  5023               	movf	(floorf@m+2)^0,w,c
  2607  00165A  2229               	addwfc	(floorf@u+2)^0,f,c
  2608  00165C  5024               	movf	(floorf@m+3)^0,w,c
  2609  00165E  222A               	addwfc	(floorf@u+3)^0,f,c
  2610  001660                     l829:
  2611  001660  1C21               	comf	floorf@m^0,w,c
  2612  001662  6E1B               	movwf	??_floorf^0,c
  2613  001664  1C22               	comf	(floorf@m+1)^0,w,c
  2614  001666  6E1C               	movwf	(??_floorf+1)^0,c
  2615  001668  1C23               	comf	(floorf@m+2)^0,w,c
  2616  00166A  6E1D               	movwf	(??_floorf+2)^0,c
  2617  00166C  1C24               	comf	(floorf@m+3)^0,w,c
  2618  00166E  6E1E               	movwf	(??_floorf+3)^0,c
  2619  001670  501B               	movf	??_floorf^0,w,c
  2620  001672  1627               	andwf	floorf@u^0,f,c
  2621  001674  501C               	movf	(??_floorf+1)^0,w,c
  2622  001676  1628               	andwf	(floorf@u+1)^0,f,c
  2623  001678  501D               	movf	(??_floorf+2)^0,w,c
  2624  00167A  1629               	andwf	(floorf@u+2)^0,f,c
  2625  00167C  501E               	movf	(??_floorf+3)^0,w,c
  2626  00167E  162A               	andwf	(floorf@u+3)^0,f,c
  2627  001680  EF86  F00B         	goto	l3193
  2628  001684                     l3185:
  2629  001684  C027  F01B         	movff	floorf@u,??_floorf
  2630  001688  C028  F01C         	movff	floorf@u+1,??_floorf+1
  2631  00168C  C029  F01D         	movff	floorf@u+2,??_floorf+2
  2632  001690  C02A  F01E         	movff	floorf@u+3,??_floorf+3
  2633  001694  0E20               	movlw	32
  2634  001696  EF52  F00B         	goto	u3310
  2635  00169A                     u3315:
  2636  00169A  90D8               	bcf	status,0,c
  2637  00169C  321E               	rrcf	(??_floorf+3)^0,f,c
  2638  00169E  321D               	rrcf	(??_floorf+2)^0,f,c
  2639  0016A0  321C               	rrcf	(??_floorf+1)^0,f,c
  2640  0016A2  321B               	rrcf	??_floorf^0,f,c
  2641  0016A4                     u3310:
  2642  0016A4  2EE8               	decfsz	wreg,f,c
  2643  0016A6  EF4D  F00B         	goto	u3315
  2644  0016AA  501B               	movf	??_floorf^0,w,c
  2645  0016AC  101C               	iorwf	(??_floorf+1)^0,w,c
  2646  0016AE  101D               	iorwf	(??_floorf+2)^0,w,c
  2647  0016B0  101E               	iorwf	(??_floorf+3)^0,w,c
  2648  0016B2  A4D8               	btfss	status,2,c
  2649  0016B4  EF5E  F00B         	goto	u3321
  2650  0016B8  EF60  F00B         	goto	u3320
  2651  0016BC                     u3321:
  2652  0016BC  EF6A  F00B         	goto	l3189
  2653  0016C0                     u3320:
  2654  0016C0  0E00               	movlw	0
  2655  0016C2  6E27               	movwf	floorf@u^0,c
  2656  0016C4  0E00               	movlw	0
  2657  0016C6  6E28               	movwf	(floorf@u+1)^0,c
  2658  0016C8  0E00               	movlw	0
  2659  0016CA  6E29               	movwf	(floorf@u+2)^0,c
  2660  0016CC  0E00               	movlw	0
  2661  0016CE  6E2A               	movwf	(floorf@u+3)^0,c
  2662  0016D0  EF86  F00B         	goto	l3193
  2663  0016D4                     l3189:
  2664  0016D4  90D8               	bcf	status,0,c
  2665  0016D6  3427               	rlcf	floorf@u^0,w,c
  2666  0016D8  6E1B               	movwf	??_floorf^0,c
  2667  0016DA  3428               	rlcf	(floorf@u+1)^0,w,c
  2668  0016DC  6E1C               	movwf	(??_floorf+1)^0,c
  2669  0016DE  3429               	rlcf	(floorf@u+2)^0,w,c
  2670  0016E0  6E1D               	movwf	(??_floorf+2)^0,c
  2671  0016E2  342A               	rlcf	(floorf@u+3)^0,w,c
  2672  0016E4  6E1E               	movwf	(??_floorf+3)^0,c
  2673  0016E6  501B               	movf	??_floorf^0,w,c
  2674  0016E8  101C               	iorwf	(??_floorf+1)^0,w,c
  2675  0016EA  101D               	iorwf	(??_floorf+2)^0,w,c
  2676  0016EC  101E               	iorwf	(??_floorf+3)^0,w,c
  2677  0016EE  B4D8               	btfsc	status,2,c
  2678  0016F0  EF7C  F00B         	goto	u3331
  2679  0016F4  EF7E  F00B         	goto	u3330
  2680  0016F8                     u3331:
  2681  0016F8  EF86  F00B         	goto	l3193
  2682  0016FC                     u3330:
  2683  0016FC  0E00               	movlw	0
  2684  0016FE  6E27               	movwf	floorf@u^0,c
  2685  001700  0E00               	movlw	0
  2686  001702  6E28               	movwf	(floorf@u+1)^0,c
  2687  001704  0E80               	movlw	128
  2688  001706  6E29               	movwf	(floorf@u+2)^0,c
  2689  001708  0EBF               	movlw	191
  2690  00170A  6E2A               	movwf	(floorf@u+3)^0,c
  2691  00170C                     l3193:
  2692  00170C  C027  F017         	movff	floorf@u,?_floorf
  2693  001710  C028  F018         	movff	floorf@u+1,?_floorf+1
  2694  001714  C029  F019         	movff	floorf@u+2,?_floorf+2
  2695  001718  C02A  F01A         	movff	floorf@u+3,?_floorf+3
  2696  00171C                     l826:
  2697  00171C  0012               	return		;funcret
  2698  00171E                     __end_of_floorf:
  2699                           	callstack 0
  2700                           
  2701 ;; *************** function ___xxtofl *****************
  2702 ;; Defined at:
  2703 ;;		line 10 in file "C:\Program Files\Microchip\xc8\v2.32\pic\sources\c99\common\xxtofl.c"
  2704 ;; Parameters:    Size  Location     Type
  2705 ;;  sign            1    wreg     unsigned char 
  2706 ;;  val             4   22[COMRAM] long 
  2707 ;; Auto vars:     Size  Location     Type
  2708 ;;  sign            1   30[COMRAM] unsigned char 
  2709 ;;  arg             4   32[COMRAM] unsigned long 
  2710 ;;  exp             1   31[COMRAM] unsigned char 
  2711 ;; Return value:  Size  Location     Type
  2712 ;;                  4   22[COMRAM] unsigned char 
  2713 ;; Registers used:
  2714 ;;		wreg, status,2, status,0
  2715 ;; Tracked objects:
  2716 ;;		On entry : 0/0
  2717 ;;		On exit  : 0/0
  2718 ;;		Unchanged: 0/0
  2719 ;; Data sizes:     COMRAM   BANK0   BANK1   BANK2   BANK3   BANK4   BANK5   BANK6   BANK7
  2720 ;;      Params:         4       0       0       0       0       0       0       0       0
  2721 ;;      Locals:         6       0       0       0       0       0       0       0       0
  2722 ;;      Temps:          4       0       0       0       0       0       0       0       0
  2723 ;;      Totals:        14       0       0       0       0       0       0       0       0
  2724 ;;Total ram usage:       14 bytes
  2725 ;; Hardware stack levels used: 1
  2726 ;; Hardware stack levels required when called: 4
  2727 ;; This function calls:
  2728 ;;		Nothing
  2729 ;; This function is called by:
  2730 ;;		_LCD_printFloatNumber
  2731 ;;		_main
  2732 ;; This function uses a non-reentrant model
  2733 ;;
  2734                           
  2735                           	psect	text16
  2736  00190E                     __ptext16:
  2737                           	callstack 0
  2738  00190E                     ___xxtofl:
  2739                           	callstack 26
  2740                           
  2741                           ;incstack = 0
  2742                           ;___xxtofl@sign stored from wreg
  2743  00190E  6E1F               	movwf	___xxtofl@sign^0,c
  2744  001910  501F               	movf	___xxtofl@sign^0,w,c
  2745  001912  B4D8               	btfsc	status,2,c
  2746  001914  EF8E  F00C         	goto	u3881
  2747  001918  EF90  F00C         	goto	u3880
  2748  00191C                     u3881:
  2749  00191C  EFB2  F00C         	goto	l804
  2750  001920                     u3880:
  2751  001920  BE1A               	btfsc	(___xxtofl@val+3)^0,7,c
  2752  001922  EF97  F00C         	goto	u3890
  2753  001926  EF95  F00C         	goto	u3891
  2754  00192A                     u3891:
  2755  00192A  EFB2  F00C         	goto	l804
  2756  00192E                     u3890:
  2757  00192E  C017  F01B         	movff	___xxtofl@val,??___xxtofl
  2758  001932  C018  F01C         	movff	___xxtofl@val+1,??___xxtofl+1
  2759  001936  C019  F01D         	movff	___xxtofl@val+2,??___xxtofl+2
  2760  00193A  C01A  F01E         	movff	___xxtofl@val+3,??___xxtofl+3
  2761  00193E  1E1B               	comf	??___xxtofl^0,f,c
  2762  001940  1E1C               	comf	(??___xxtofl+1)^0,f,c
  2763  001942  1E1D               	comf	(??___xxtofl+2)^0,f,c
  2764  001944  1E1E               	comf	(??___xxtofl+3)^0,f,c
  2765  001946  2A1B               	incf	??___xxtofl^0,f,c
  2766  001948  0E00               	movlw	0
  2767  00194A  221C               	addwfc	(??___xxtofl+1)^0,f,c
  2768  00194C  221D               	addwfc	(??___xxtofl+2)^0,f,c
  2769  00194E  221E               	addwfc	(??___xxtofl+3)^0,f,c
  2770  001950  C01B  F021         	movff	??___xxtofl,___xxtofl@arg
  2771  001954  C01C  F022         	movff	??___xxtofl+1,___xxtofl@arg+1
  2772  001958  C01D  F023         	movff	??___xxtofl+2,___xxtofl@arg+2
  2773  00195C  C01E  F024         	movff	??___xxtofl+3,___xxtofl@arg+3
  2774  001960  EFBA  F00C         	goto	l3543
  2775  001964                     l804:
  2776  001964  C017  F021         	movff	___xxtofl@val,___xxtofl@arg
  2777  001968  C018  F022         	movff	___xxtofl@val+1,___xxtofl@arg+1
  2778  00196C  C019  F023         	movff	___xxtofl@val+2,___xxtofl@arg+2
  2779  001970  C01A  F024         	movff	___xxtofl@val+3,___xxtofl@arg+3
  2780  001974                     l3543:
  2781  001974  5017               	movf	___xxtofl@val^0,w,c
  2782  001976  1018               	iorwf	(___xxtofl@val+1)^0,w,c
  2783  001978  1019               	iorwf	(___xxtofl@val+2)^0,w,c
  2784  00197A  101A               	iorwf	(___xxtofl@val+3)^0,w,c
  2785  00197C  A4D8               	btfss	status,2,c
  2786  00197E  EFC3  F00C         	goto	u3901
  2787  001982  EFC5  F00C         	goto	u3900
  2788  001986                     u3901:
  2789  001986  EFCF  F00C         	goto	l3549
  2790  00198A                     u3900:
  2791  00198A  0E00               	movlw	0
  2792  00198C  6E17               	movwf	?___xxtofl^0,c
  2793  00198E  0E00               	movlw	0
  2794  001990  6E18               	movwf	(?___xxtofl+1)^0,c
  2795  001992  0E00               	movlw	0
  2796  001994  6E19               	movwf	(?___xxtofl+2)^0,c
  2797  001996  0E00               	movlw	0
  2798  001998  6E1A               	movwf	(?___xxtofl+3)^0,c
  2799  00199A  EF60  F00D         	goto	l807
  2800  00199E                     l3549:
  2801  00199E  0E96               	movlw	150
  2802  0019A0  6E20               	movwf	___xxtofl@exp^0,c
  2803  0019A2  EFD9  F00C         	goto	l3553
  2804  0019A6                     l3551:
  2805  0019A6  2A20               	incf	___xxtofl@exp^0,f,c
  2806  0019A8  90D8               	bcf	status,0,c
  2807  0019AA  3224               	rrcf	(___xxtofl@arg+3)^0,f,c
  2808  0019AC  3223               	rrcf	(___xxtofl@arg+2)^0,f,c
  2809  0019AE  3222               	rrcf	(___xxtofl@arg+1)^0,f,c
  2810  0019B0  3221               	rrcf	___xxtofl@arg^0,f,c
  2811  0019B2                     l3553:
  2812  0019B2  0E00               	movlw	0
  2813  0019B4  1421               	andwf	___xxtofl@arg^0,w,c
  2814  0019B6  6E1B               	movwf	??___xxtofl^0,c
  2815  0019B8  0E00               	movlw	0
  2816  0019BA  1422               	andwf	(___xxtofl@arg+1)^0,w,c
  2817  0019BC  6E1C               	movwf	(??___xxtofl+1)^0,c
  2818  0019BE  0E00               	movlw	0
  2819  0019C0  1423               	andwf	(___xxtofl@arg+2)^0,w,c
  2820  0019C2  6E1D               	movwf	(??___xxtofl+2)^0,c
  2821  0019C4  0EFE               	movlw	254
  2822  0019C6  1424               	andwf	(___xxtofl@arg+3)^0,w,c
  2823  0019C8  6E1E               	movwf	(??___xxtofl+3)^0,c
  2824  0019CA  501B               	movf	??___xxtofl^0,w,c
  2825  0019CC  101C               	iorwf	(??___xxtofl+1)^0,w,c
  2826  0019CE  101D               	iorwf	(??___xxtofl+2)^0,w,c
  2827  0019D0  101E               	iorwf	(??___xxtofl+3)^0,w,c
  2828  0019D2  A4D8               	btfss	status,2,c
  2829  0019D4  EFEE  F00C         	goto	u3911
  2830  0019D8  EFF0  F00C         	goto	u3910
  2831  0019DC                     u3911:
  2832  0019DC  EFD3  F00C         	goto	l3551
  2833  0019E0                     u3910:
  2834  0019E0  EFFE  F00C         	goto	l811
  2835  0019E4                     l3555:
  2836  0019E4  2A20               	incf	___xxtofl@exp^0,f,c
  2837  0019E6  0E01               	movlw	1
  2838  0019E8  2621               	addwf	___xxtofl@arg^0,f,c
  2839  0019EA  0E00               	movlw	0
  2840  0019EC  2222               	addwfc	(___xxtofl@arg+1)^0,f,c
  2841  0019EE  2223               	addwfc	(___xxtofl@arg+2)^0,f,c
  2842  0019F0  2224               	addwfc	(___xxtofl@arg+3)^0,f,c
  2843  0019F2  90D8               	bcf	status,0,c
  2844  0019F4  3224               	rrcf	(___xxtofl@arg+3)^0,f,c
  2845  0019F6  3223               	rrcf	(___xxtofl@arg+2)^0,f,c
  2846  0019F8  3222               	rrcf	(___xxtofl@arg+1)^0,f,c
  2847  0019FA  3221               	rrcf	___xxtofl@arg^0,f,c
  2848  0019FC                     l811:
  2849  0019FC  0E00               	movlw	0
  2850  0019FE  1421               	andwf	___xxtofl@arg^0,w,c
  2851  001A00  6E1B               	movwf	??___xxtofl^0,c
  2852  001A02  0E00               	movlw	0
  2853  001A04  1422               	andwf	(___xxtofl@arg+1)^0,w,c
  2854  001A06  6E1C               	movwf	(??___xxtofl+1)^0,c
  2855  001A08  0E00               	movlw	0
  2856  001A0A  1423               	andwf	(___xxtofl@arg+2)^0,w,c
  2857  001A0C  6E1D               	movwf	(??___xxtofl+2)^0,c
  2858  001A0E  0EFF               	movlw	255
  2859  001A10  1424               	andwf	(___xxtofl@arg+3)^0,w,c
  2860  001A12  6E1E               	movwf	(??___xxtofl+3)^0,c
  2861  001A14  501B               	movf	??___xxtofl^0,w,c
  2862  001A16  101C               	iorwf	(??___xxtofl+1)^0,w,c
  2863  001A18  101D               	iorwf	(??___xxtofl+2)^0,w,c
  2864  001A1A  101E               	iorwf	(??___xxtofl+3)^0,w,c
  2865  001A1C  A4D8               	btfss	status,2,c
  2866  001A1E  EF13  F00D         	goto	u3921
  2867  001A22  EF15  F00D         	goto	u3920
  2868  001A26                     u3921:
  2869  001A26  EFF2  F00C         	goto	l3555
  2870  001A2A                     u3920:
  2871  001A2A  EF1D  F00D         	goto	l3563
  2872  001A2E                     l3561:
  2873  001A2E  0620               	decf	___xxtofl@exp^0,f,c
  2874  001A30  90D8               	bcf	status,0,c
  2875  001A32  3621               	rlcf	___xxtofl@arg^0,f,c
  2876  001A34  3622               	rlcf	(___xxtofl@arg+1)^0,f,c
  2877  001A36  3623               	rlcf	(___xxtofl@arg+2)^0,f,c
  2878  001A38  3624               	rlcf	(___xxtofl@arg+3)^0,f,c
  2879  001A3A                     l3563:
  2880  001A3A  BE23               	btfsc	(___xxtofl@arg+2)^0,7,c
  2881  001A3C  EF22  F00D         	goto	u3931
  2882  001A40  EF24  F00D         	goto	u3930
  2883  001A44                     u3931:
  2884  001A44  EF2C  F00D         	goto	l818
  2885  001A48                     u3930:
  2886  001A48  0E02               	movlw	2
  2887  001A4A  6020               	cpfslt	___xxtofl@exp^0,c
  2888  001A4C  EF2A  F00D         	goto	u3941
  2889  001A50  EF2C  F00D         	goto	u3940
  2890  001A54                     u3941:
  2891  001A54  EF17  F00D         	goto	l3561
  2892  001A58                     u3940:
  2893  001A58                     l818:
  2894  001A58  B020               	btfsc	___xxtofl@exp^0,0,c
  2895  001A5A  EF31  F00D         	goto	u3951
  2896  001A5E  EF33  F00D         	goto	u3950
  2897  001A62                     u3951:
  2898  001A62  EF34  F00D         	goto	l3569
  2899  001A66                     u3950:
  2900  001A66  9E23               	bcf	(___xxtofl@arg+2)^0,7,c
  2901  001A68                     l3569:
  2902  001A68  90D8               	bcf	status,0,c
  2903  001A6A  3220               	rrcf	___xxtofl@exp^0,f,c
  2904  001A6C  C020  F01B         	movff	___xxtofl@exp,??___xxtofl
  2905  001A70  6A1C               	clrf	(??___xxtofl+1)^0,c
  2906  001A72  6A1D               	clrf	(??___xxtofl+2)^0,c
  2907  001A74  6A1E               	clrf	(??___xxtofl+3)^0,c
  2908  001A76  C01B  F01E         	movff	??___xxtofl,??___xxtofl+3
  2909  001A7A  6A1D               	clrf	(??___xxtofl+2)^0,c
  2910  001A7C  6A1C               	clrf	(??___xxtofl+1)^0,c
  2911  001A7E  6A1B               	clrf	??___xxtofl^0,c
  2912  001A80  501B               	movf	??___xxtofl^0,w,c
  2913  001A82  1221               	iorwf	___xxtofl@arg^0,f,c
  2914  001A84  501C               	movf	(??___xxtofl+1)^0,w,c
  2915  001A86  1222               	iorwf	(___xxtofl@arg+1)^0,f,c
  2916  001A88  501D               	movf	(??___xxtofl+2)^0,w,c
  2917  001A8A  1223               	iorwf	(___xxtofl@arg+2)^0,f,c
  2918  001A8C  501E               	movf	(??___xxtofl+3)^0,w,c
  2919  001A8E  1224               	iorwf	(___xxtofl@arg+3)^0,f,c
  2920  001A90  501F               	movf	___xxtofl@sign^0,w,c
  2921  001A92  B4D8               	btfsc	status,2,c
  2922  001A94  EF4E  F00D         	goto	u3961
  2923  001A98  EF50  F00D         	goto	u3960
  2924  001A9C                     u3961:
  2925  001A9C  EF58  F00D         	goto	l3579
  2926  001AA0                     u3960:
  2927  001AA0  BE1A               	btfsc	(___xxtofl@val+3)^0,7,c
  2928  001AA2  EF57  F00D         	goto	u3970
  2929  001AA6  EF55  F00D         	goto	u3971
  2930  001AAA                     u3971:
  2931  001AAA  EF58  F00D         	goto	l3579
  2932  001AAE                     u3970:
  2933  001AAE  8E24               	bsf	(___xxtofl@arg+3)^0,7,c
  2934  001AB0                     l3579:
  2935  001AB0  C021  F017         	movff	___xxtofl@arg,?___xxtofl
  2936  001AB4  C022  F018         	movff	___xxtofl@arg+1,?___xxtofl+1
  2937  001AB8  C023  F019         	movff	___xxtofl@arg+2,?___xxtofl+2
  2938  001ABC  C024  F01A         	movff	___xxtofl@arg+3,?___xxtofl+3
  2939  001AC0                     l807:
  2940  001AC0  0012               	return		;funcret
  2941  001AC2                     __end_of___xxtofl:
  2942                           	callstack 0
  2943                           
  2944 ;; *************** function ___fltol *****************
  2945 ;; Defined at:
  2946 ;;		line 43 in file "C:\Program Files\Microchip\xc8\v2.32\pic\sources\c99\common\fltol.c"
  2947 ;; Parameters:    Size  Location     Type
  2948 ;;  f1              4   42[COMRAM] unsigned char 
  2949 ;; Auto vars:     Size  Location     Type
  2950 ;;  exp1            1   51[COMRAM] unsigned char 
  2951 ;;  sign1           1   50[COMRAM] unsigned char 
  2952 ;; Return value:  Size  Location     Type
  2953 ;;                  4   42[COMRAM] long 
  2954 ;; Registers used:
  2955 ;;		wreg, status,2, status,0
  2956 ;; Tracked objects:
  2957 ;;		On entry : 0/0
  2958 ;;		On exit  : 0/0
  2959 ;;		Unchanged: 0/0
  2960 ;; Data sizes:     COMRAM   BANK0   BANK1   BANK2   BANK3   BANK4   BANK5   BANK6   BANK7
  2961 ;;      Params:         4       0       0       0       0       0       0       0       0
  2962 ;;      Locals:         2       0       0       0       0       0       0       0       0
  2963 ;;      Temps:          4       0       0       0       0       0       0       0       0
  2964 ;;      Totals:        10       0       0       0       0       0       0       0       0
  2965 ;;Total ram usage:       10 bytes
  2966 ;; Hardware stack levels used: 1
  2967 ;; Hardware stack levels required when called: 4
  2968 ;; This function calls:
  2969 ;;		Nothing
  2970 ;; This function is called by:
  2971 ;;		_LCD_printFloatNumber
  2972 ;; This function uses a non-reentrant model
  2973 ;;
  2974                           
  2975                           	psect	text17
  2976  001D64                     __ptext17:
  2977                           	callstack 0
  2978  001D64                     ___fltol:
  2979                           	callstack 25
  2980  001D64  342D               	rlcf	(___fltol@f1+2)^0,w,c
  2981  001D66  342E               	rlcf	(___fltol@f1+3)^0,w,c
  2982  001D68  6E34               	movwf	___fltol@exp1^0,c
  2983  001D6A  5034               	movf	___fltol@exp1^0,w,c
  2984  001D6C  A4D8               	btfss	status,2,c
  2985  001D6E  EFBB  F00E         	goto	u3811
  2986  001D72  EFBD  F00E         	goto	u3810
  2987  001D76                     u3811:
  2988  001D76  EFC7  F00E         	goto	l3499
  2989  001D7A                     u3810:
  2990  001D7A                     l3495:
  2991  001D7A  0E00               	movlw	0
  2992  001D7C  6E2B               	movwf	?___fltol^0,c
  2993  001D7E  0E00               	movlw	0
  2994  001D80  6E2C               	movwf	(?___fltol+1)^0,c
  2995  001D82  0E00               	movlw	0
  2996  001D84  6E2D               	movwf	(?___fltol+2)^0,c
  2997  001D86  0E00               	movlw	0
  2998  001D88  6E2E               	movwf	(?___fltol+3)^0,c
  2999  001D8A  EF34  F00F         	goto	l446
  3000  001D8E                     l3499:
  3001  001D8E  C02B  F02F         	movff	___fltol@f1,??___fltol
  3002  001D92  C02C  F030         	movff	___fltol@f1+1,??___fltol+1
  3003  001D96  C02D  F031         	movff	___fltol@f1+2,??___fltol+2
  3004  001D9A  C02E  F032         	movff	___fltol@f1+3,??___fltol+3
  3005  001D9E  0E20               	movlw	32
  3006  001DA0  EFD7  F00E         	goto	u3820
  3007  001DA4                     u3825:
  3008  001DA4  90D8               	bcf	status,0,c
  3009  001DA6  3232               	rrcf	(??___fltol+3)^0,f,c
  3010  001DA8  3231               	rrcf	(??___fltol+2)^0,f,c
  3011  001DAA  3230               	rrcf	(??___fltol+1)^0,f,c
  3012  001DAC  322F               	rrcf	??___fltol^0,f,c
  3013  001DAE                     u3820:
  3014  001DAE  2EE8               	decfsz	wreg,f,c
  3015  001DB0  EFD2  F00E         	goto	u3825
  3016  001DB4  502F               	movf	??___fltol^0,w,c
  3017  001DB6  6E33               	movwf	___fltol@sign1^0,c
  3018  001DB8  8E2D               	bsf	(___fltol@f1+2)^0,7,c
  3019  001DBA  0EFF               	movlw	255
  3020  001DBC  162B               	andwf	___fltol@f1^0,f,c
  3021  001DBE  0EFF               	movlw	255
  3022  001DC0  162C               	andwf	(___fltol@f1+1)^0,f,c
  3023  001DC2  0EFF               	movlw	255
  3024  001DC4  162D               	andwf	(___fltol@f1+2)^0,f,c
  3025  001DC6  0E00               	movlw	0
  3026  001DC8  162E               	andwf	(___fltol@f1+3)^0,f,c
  3027  001DCA  0E96               	movlw	150
  3028  001DCC  5E34               	subwf	___fltol@exp1^0,f,c
  3029  001DCE  BE34               	btfsc	___fltol@exp1^0,7,c
  3030  001DD0  EFEE  F00E         	goto	u3830
  3031  001DD4  EFEC  F00E         	goto	u3831
  3032  001DD8                     u3831:
  3033  001DD8  EF04  F00F         	goto	l3519
  3034  001DDC                     u3830:
  3035  001DDC  5034               	movf	___fltol@exp1^0,w,c
  3036  001DDE  0A80               	xorlw	128
  3037  001DE0  0F97               	addlw	151
  3038  001DE2  B0D8               	btfsc	status,0,c
  3039  001DE4  EFF6  F00E         	goto	u3841
  3040  001DE8  EFF8  F00E         	goto	u3840
  3041  001DEC                     u3841:
  3042  001DEC  EFFA  F00E         	goto	l3515
  3043  001DF0                     u3840:
  3044  001DF0  EFBD  F00E         	goto	l3495
  3045  001DF4                     l3515:
  3046  001DF4  90D8               	bcf	status,0,c
  3047  001DF6  322E               	rrcf	(___fltol@f1+3)^0,f,c
  3048  001DF8  322D               	rrcf	(___fltol@f1+2)^0,f,c
  3049  001DFA  322C               	rrcf	(___fltol@f1+1)^0,f,c
  3050  001DFC  322B               	rrcf	___fltol@f1^0,f,c
  3051  001DFE  3E34               	incfsz	___fltol@exp1^0,f,c
  3052  001E00  EFFA  F00E         	goto	l3515
  3053  001E04  EF1C  F00F         	goto	l3529
  3054  001E08                     l3519:
  3055  001E08  0E1F               	movlw	31
  3056  001E0A  6434               	cpfsgt	___fltol@exp1^0,c
  3057  001E0C  EF0A  F00F         	goto	u3851
  3058  001E10  EF0C  F00F         	goto	u3850
  3059  001E14                     u3851:
  3060  001E14  EF14  F00F         	goto	l3527
  3061  001E18                     u3850:
  3062  001E18  EFBD  F00E         	goto	l3495
  3063  001E1C                     l3525:
  3064  001E1C  90D8               	bcf	status,0,c
  3065  001E1E  362B               	rlcf	___fltol@f1^0,f,c
  3066  001E20  362C               	rlcf	(___fltol@f1+1)^0,f,c
  3067  001E22  362D               	rlcf	(___fltol@f1+2)^0,f,c
  3068  001E24  362E               	rlcf	(___fltol@f1+3)^0,f,c
  3069  001E26  0634               	decf	___fltol@exp1^0,f,c
  3070  001E28                     l3527:
  3071  001E28  5034               	movf	___fltol@exp1^0,w,c
  3072  001E2A  A4D8               	btfss	status,2,c
  3073  001E2C  EF1A  F00F         	goto	u3861
  3074  001E30  EF1C  F00F         	goto	u3860
  3075  001E34                     u3861:
  3076  001E34  EF0E  F00F         	goto	l3525
  3077  001E38                     u3860:
  3078  001E38                     l3529:
  3079  001E38  5033               	movf	___fltol@sign1^0,w,c
  3080  001E3A  B4D8               	btfsc	status,2,c
  3081  001E3C  EF22  F00F         	goto	u3871
  3082  001E40  EF24  F00F         	goto	u3870
  3083  001E44                     u3871:
  3084  001E44  EF2C  F00F         	goto	l3533
  3085  001E48                     u3870:
  3086  001E48  1E2E               	comf	(___fltol@f1+3)^0,f,c
  3087  001E4A  1E2D               	comf	(___fltol@f1+2)^0,f,c
  3088  001E4C  1E2C               	comf	(___fltol@f1+1)^0,f,c
  3089  001E4E  6C2B               	negf	___fltol@f1^0,c
  3090  001E50  0E00               	movlw	0
  3091  001E52  222C               	addwfc	(___fltol@f1+1)^0,f,c
  3092  001E54  222D               	addwfc	(___fltol@f1+2)^0,f,c
  3093  001E56  222E               	addwfc	(___fltol@f1+3)^0,f,c
  3094  001E58                     l3533:
  3095  001E58  C02B  F02B         	movff	___fltol@f1,?___fltol
  3096  001E5C  C02C  F02C         	movff	___fltol@f1+1,?___fltol+1
  3097  001E60  C02D  F02D         	movff	___fltol@f1+2,?___fltol+2
  3098  001E64  C02E  F02E         	movff	___fltol@f1+3,?___fltol+3
  3099  001E68                     l446:
  3100  001E68  0012               	return		;funcret
  3101  001E6A                     __end_of___fltol:
  3102                           	callstack 0
  3103                           
  3104 ;; *************** function ___flsub *****************
  3105 ;; Defined at:
  3106 ;;		line 245 in file "C:\Program Files\Microchip\xc8\v2.32\pic\sources\c99\common\sprcadd.c"
  3107 ;; Parameters:    Size  Location     Type
  3108 ;;  b               4   38[COMRAM] long 
  3109 ;;  a               4   42[COMRAM] long 
  3110 ;; Auto vars:     Size  Location     Type
  3111 ;;		None
  3112 ;; Return value:  Size  Location     Type
  3113 ;;                  4   38[COMRAM] long 
  3114 ;; Registers used:
  3115 ;;		wreg, status,2, status,0, cstack
  3116 ;; Tracked objects:
  3117 ;;		On entry : 0/0
  3118 ;;		On exit  : 0/0
  3119 ;;		Unchanged: 0/0
  3120 ;; Data sizes:     COMRAM   BANK0   BANK1   BANK2   BANK3   BANK4   BANK5   BANK6   BANK7
  3121 ;;      Params:         8       0       0       0       0       0       0       0       0
  3122 ;;      Locals:         0       0       0       0       0       0       0       0       0
  3123 ;;      Temps:          0       0       0       0       0       0       0       0       0
  3124 ;;      Totals:         8       0       0       0       0       0       0       0       0
  3125 ;;Total ram usage:        8 bytes
  3126 ;; Hardware stack levels used: 1
  3127 ;; Hardware stack levels required when called: 5
  3128 ;; This function calls:
  3129 ;;		___fladd
  3130 ;; This function is called by:
  3131 ;;		_LCD_printFloatNumber
  3132 ;;		_main
  3133 ;; This function uses a non-reentrant model
  3134 ;;
  3135                           
  3136                           	psect	text18
  3137  00254E                     __ptext18:
  3138                           	callstack 0
  3139  00254E                     ___flsub:
  3140                           	callstack 25
  3141  00254E  0E00               	movlw	0
  3142  002550  1A2B               	xorwf	___flsub@a^0,f,c
  3143  002552  0E00               	movlw	0
  3144  002554  1A2C               	xorwf	(___flsub@a+1)^0,f,c
  3145  002556  0E00               	movlw	0
  3146  002558  1A2D               	xorwf	(___flsub@a+2)^0,f,c
  3147  00255A  0E80               	movlw	128
  3148  00255C  1A2E               	xorwf	(___flsub@a+3)^0,f,c
  3149  00255E  C027  F017         	movff	___flsub@b,___fladd@b
  3150  002562  C028  F018         	movff	___flsub@b+1,___fladd@b+1
  3151  002566  C029  F019         	movff	___flsub@b+2,___fladd@b+2
  3152  00256A  C02A  F01A         	movff	___flsub@b+3,___fladd@b+3
  3153  00256E  C02B  F01B         	movff	___flsub@a,___fladd@a
  3154  002572  C02C  F01C         	movff	___flsub@a+1,___fladd@a+1
  3155  002576  C02D  F01D         	movff	___flsub@a+2,___fladd@a+2
  3156  00257A  C02E  F01E         	movff	___flsub@a+3,___fladd@a+3
  3157  00257E  EC42  F004         	call	___fladd	;wreg free
  3158  002582  C017  F027         	movff	?___fladd,?___flsub
  3159  002586  C018  F028         	movff	?___fladd+1,?___flsub+1
  3160  00258A  C019  F029         	movff	?___fladd+2,?___flsub+2
  3161  00258E  C01A  F02A         	movff	?___fladd+3,?___flsub+3
  3162  002592  0012               	return		;funcret
  3163  002594                     __end_of___flsub:
  3164                           	callstack 0
  3165                           
  3166 ;; *************** function ___fladd *****************
  3167 ;; Defined at:
  3168 ;;		line 10 in file "C:\Program Files\Microchip\xc8\v2.32\pic\sources\c99\common\sprcadd.c"
  3169 ;; Parameters:    Size  Location     Type
  3170 ;;  b               4   22[COMRAM] long 
  3171 ;;  a               4   26[COMRAM] long 
  3172 ;; Auto vars:     Size  Location     Type
  3173 ;;  grs             1   37[COMRAM] unsigned char 
  3174 ;;  bexp            1   36[COMRAM] unsigned char 
  3175 ;;  aexp            1   35[COMRAM] unsigned char 
  3176 ;;  signs           1   34[COMRAM] unsigned char 
  3177 ;; Return value:  Size  Location     Type
  3178 ;;                  4   22[COMRAM] unsigned char 
  3179 ;; Registers used:
  3180 ;;		wreg, status,2, status,0
  3181 ;; Tracked objects:
  3182 ;;		On entry : 0/0
  3183 ;;		On exit  : 0/0
  3184 ;;		Unchanged: 0/0
  3185 ;; Data sizes:     COMRAM   BANK0   BANK1   BANK2   BANK3   BANK4   BANK5   BANK6   BANK7
  3186 ;;      Params:         8       0       0       0       0       0       0       0       0
  3187 ;;      Locals:         4       0       0       0       0       0       0       0       0
  3188 ;;      Temps:          4       0       0       0       0       0       0       0       0
  3189 ;;      Totals:        16       0       0       0       0       0       0       0       0
  3190 ;;Total ram usage:       16 bytes
  3191 ;; Hardware stack levels used: 1
  3192 ;; Hardware stack levels required when called: 4
  3193 ;; This function calls:
  3194 ;;		Nothing
  3195 ;; This function is called by:
  3196 ;;		___flsub
  3197 ;; This function uses a non-reentrant model
  3198 ;;
  3199                           
  3200                           	psect	text19
  3201  000884                     __ptext19:
  3202                           	callstack 0
  3203  000884                     ___fladd:
  3204                           	callstack 25
  3205  000884  501A               	movf	(___fladd@b+3)^0,w,c
  3206  000886  0B80               	andlw	128
  3207  000888  6E23               	movwf	___fladd@signs^0,c
  3208  00088A  501A               	movf	(___fladd@b+3)^0,w,c
  3209  00088C  241A               	addwf	(___fladd@b+3)^0,w,c
  3210  00088E  6E25               	movwf	___fladd@bexp^0,c
  3211  000890  AE19               	btfss	(___fladd@b+2)^0,7,c
  3212  000892  EF4D  F004         	goto	u2851
  3213  000896  EF4F  F004         	goto	u2850
  3214  00089A                     u2851:
  3215  00089A  EF50  F004         	goto	l2963
  3216  00089E                     u2850:
  3217  00089E  8025               	bsf	___fladd@bexp^0,0,c
  3218  0008A0                     l2963:
  3219  0008A0  5025               	movf	___fladd@bexp^0,w,c
  3220  0008A2  B4D8               	btfsc	status,2,c
  3221  0008A4  EF56  F004         	goto	u2861
  3222  0008A8  EF58  F004         	goto	u2860
  3223  0008AC                     u2861:
  3224  0008AC  EF6D  F004         	goto	l2973
  3225  0008B0                     u2860:
  3226  0008B0  2825               	incf	___fladd@bexp^0,w,c
  3227  0008B2  A4D8               	btfss	status,2,c
  3228  0008B4  EF5E  F004         	goto	u2871
  3229  0008B8  EF60  F004         	goto	u2870
  3230  0008BC                     u2871:
  3231  0008BC  EF68  F004         	goto	l2969
  3232  0008C0                     u2870:
  3233  0008C0  0E00               	movlw	0
  3234  0008C2  6E17               	movwf	___fladd@b^0,c
  3235  0008C4  0E00               	movlw	0
  3236  0008C6  6E18               	movwf	(___fladd@b+1)^0,c
  3237  0008C8  0E00               	movlw	0
  3238  0008CA  6E19               	movwf	(___fladd@b+2)^0,c
  3239  0008CC  0E00               	movlw	0
  3240  0008CE  6E1A               	movwf	(___fladd@b+3)^0,c
  3241  0008D0                     l2969:
  3242  0008D0  8E19               	bsf	(___fladd@b+2)^0,7,c
  3243  0008D2  0E00               	movlw	0
  3244  0008D4  6E1A               	movwf	(___fladd@b+3)^0,c
  3245  0008D6  EF75  F004         	goto	l2975
  3246  0008DA                     l2973:
  3247  0008DA  0E00               	movlw	0
  3248  0008DC  6E17               	movwf	___fladd@b^0,c
  3249  0008DE  0E00               	movlw	0
  3250  0008E0  6E18               	movwf	(___fladd@b+1)^0,c
  3251  0008E2  0E00               	movlw	0
  3252  0008E4  6E19               	movwf	(___fladd@b+2)^0,c
  3253  0008E6  0E00               	movlw	0
  3254  0008E8  6E1A               	movwf	(___fladd@b+3)^0,c
  3255  0008EA                     l2975:
  3256  0008EA  501E               	movf	(___fladd@a+3)^0,w,c
  3257  0008EC  0B80               	andlw	128
  3258  0008EE  6E24               	movwf	___fladd@aexp^0,c
  3259  0008F0  5023               	movf	___fladd@signs^0,w,c
  3260  0008F2  1824               	xorwf	___fladd@aexp^0,w,c
  3261  0008F4  B4D8               	btfsc	status,2,c
  3262  0008F6  EF7F  F004         	goto	u2881
  3263  0008FA  EF81  F004         	goto	u2880
  3264  0008FE                     u2881:
  3265  0008FE  EF82  F004         	goto	l2981
  3266  000902                     u2880:
  3267  000902  8C23               	bsf	___fladd@signs^0,6,c
  3268  000904                     l2981:
  3269  000904  501E               	movf	(___fladd@a+3)^0,w,c
  3270  000906  241E               	addwf	(___fladd@a+3)^0,w,c
  3271  000908  6E24               	movwf	___fladd@aexp^0,c
  3272  00090A  AE1D               	btfss	(___fladd@a+2)^0,7,c
  3273  00090C  EF8A  F004         	goto	u2891
  3274  000910  EF8C  F004         	goto	u2890
  3275  000914                     u2891:
  3276  000914  EF8D  F004         	goto	l2987
  3277  000918                     u2890:
  3278  000918  8024               	bsf	___fladd@aexp^0,0,c
  3279  00091A                     l2987:
  3280  00091A  5024               	movf	___fladd@aexp^0,w,c
  3281  00091C  B4D8               	btfsc	status,2,c
  3282  00091E  EF93  F004         	goto	u2901
  3283  000922  EF95  F004         	goto	u2900
  3284  000926                     u2901:
  3285  000926  EFAA  F004         	goto	l2997
  3286  00092A                     u2900:
  3287  00092A  2824               	incf	___fladd@aexp^0,w,c
  3288  00092C  A4D8               	btfss	status,2,c
  3289  00092E  EF9B  F004         	goto	u2911
  3290  000932  EF9D  F004         	goto	u2910
  3291  000936                     u2911:
  3292  000936  EFA5  F004         	goto	l2993
  3293  00093A                     u2910:
  3294  00093A  0E00               	movlw	0
  3295  00093C  6E1B               	movwf	___fladd@a^0,c
  3296  00093E  0E00               	movlw	0
  3297  000940  6E1C               	movwf	(___fladd@a+1)^0,c
  3298  000942  0E00               	movlw	0
  3299  000944  6E1D               	movwf	(___fladd@a+2)^0,c
  3300  000946  0E00               	movlw	0
  3301  000948  6E1E               	movwf	(___fladd@a+3)^0,c
  3302  00094A                     l2993:
  3303  00094A  8E1D               	bsf	(___fladd@a+2)^0,7,c
  3304  00094C  0E00               	movlw	0
  3305  00094E  6E1E               	movwf	(___fladd@a+3)^0,c
  3306  000950  EFB2  F004         	goto	l2999
  3307  000954                     l2997:
  3308  000954  0E00               	movlw	0
  3309  000956  6E1B               	movwf	___fladd@a^0,c
  3310  000958  0E00               	movlw	0
  3311  00095A  6E1C               	movwf	(___fladd@a+1)^0,c
  3312  00095C  0E00               	movlw	0
  3313  00095E  6E1D               	movwf	(___fladd@a+2)^0,c
  3314  000960  0E00               	movlw	0
  3315  000962  6E1E               	movwf	(___fladd@a+3)^0,c
  3316  000964                     l2999:
  3317  000964  5025               	movf	___fladd@bexp^0,w,c
  3318  000966  5C24               	subwf	___fladd@aexp^0,w,c
  3319  000968  B0D8               	btfsc	status,0,c
  3320  00096A  EFB9  F004         	goto	u2921
  3321  00096E  EFBB  F004         	goto	u2920
  3322  000972                     u2921:
  3323  000972  EFE2  F004         	goto	l3035
  3324  000976                     u2920:
  3325  000976  AC23               	btfss	___fladd@signs^0,6,c
  3326  000978  EFC0  F004         	goto	u2931
  3327  00097C  EFC2  F004         	goto	u2930
  3328  000980                     u2931:
  3329  000980  EFC4  F004         	goto	l3005
  3330  000984                     u2930:
  3331  000984  0E80               	movlw	128
  3332  000986  1A23               	xorwf	___fladd@signs^0,f,c
  3333  000988                     l3005:
  3334  000988  C025  F026         	movff	___fladd@bexp,___fladd@grs
  3335  00098C  C024  F025         	movff	___fladd@aexp,___fladd@bexp
  3336  000990  C026  F024         	movff	___fladd@grs,___fladd@aexp
  3337  000994  C017  F026         	movff	___fladd@b,___fladd@grs
  3338  000998  C01B  F017         	movff	___fladd@a,___fladd@b
  3339  00099C  C026  F01B         	movff	___fladd@grs,___fladd@a
  3340  0009A0  C018  F026         	movff	___fladd@b+1,___fladd@grs
  3341  0009A4  C01C  F018         	movff	___fladd@a+1,___fladd@b+1
  3342  0009A8  C026  F01C         	movff	___fladd@grs,___fladd@a+1
  3343  0009AC  C019  F026         	movff	___fladd@b+2,___fladd@grs
  3344  0009B0  C01D  F019         	movff	___fladd@a+2,___fladd@b+2
  3345  0009B4  C026  F01D         	movff	___fladd@grs,___fladd@a+2
  3346  0009B8  C01A  F026         	movff	___fladd@b+3,___fladd@grs
  3347  0009BC  C01E  F01A         	movff	___fladd@a+3,___fladd@b+3
  3348  0009C0  C026  F01E         	movff	___fladd@grs,___fladd@a+3
  3349  0009C4                     l3035:
  3350  0009C4  0E00               	movlw	0
  3351  0009C6  6E26               	movwf	___fladd@grs^0,c
  3352  0009C8  5025               	movf	___fladd@bexp^0,w,c
  3353  0009CA  C024  F01F         	movff	___fladd@aexp,??___fladd
  3354  0009CE  6A20               	clrf	(??___fladd+1)^0,c
  3355  0009D0  5E1F               	subwf	??___fladd^0,f,c
  3356  0009D2  0E00               	movlw	0
  3357  0009D4  5A20               	subwfb	(??___fladd+1)^0,f,c
  3358  0009D6  BE20               	btfsc	(??___fladd+1)^0,7,c
  3359  0009D8  EFF7  F004         	goto	u2941
  3360  0009DC  5020               	movf	(??___fladd+1)^0,w,c
  3361  0009DE  E109               	bnz	u2940
  3362  0009E0  0E1A               	movlw	26
  3363  0009E2  5C1F               	subwf	??___fladd^0,w,c
  3364  0009E4  A0D8               	btfss	status,0,c
  3365  0009E6  EFF7  F004         	goto	u2941
  3366  0009EA  EFF9  F004         	goto	u2940
  3367  0009EE                     u2941:
  3368  0009EE  EF30  F005         	goto	l678
  3369  0009F2                     u2940:
  3370  0009F2  5017               	movf	___fladd@b^0,w,c
  3371  0009F4  1018               	iorwf	(___fladd@b+1)^0,w,c
  3372  0009F6  1019               	iorwf	(___fladd@b+2)^0,w,c
  3373  0009F8  101A               	iorwf	(___fladd@b+3)^0,w,c
  3374  0009FA  A4D8               	btfss	status,2,c
  3375  0009FC  EF02  F005         	goto	u2951
  3376  000A00  EF05  F005         	goto	u2950
  3377  000A04                     u2951:
  3378  000A04  0E01               	movlw	1
  3379  000A06  EF06  F005         	goto	u2960
  3380  000A0A                     u2950:
  3381  000A0A  0E00               	movlw	0
  3382  000A0C                     u2960:
  3383  000A0C  6E26               	movwf	___fladd@grs^0,c
  3384  000A0E  0E00               	movlw	0
  3385  000A10  6E17               	movwf	___fladd@b^0,c
  3386  000A12  0E00               	movlw	0
  3387  000A14  6E18               	movwf	(___fladd@b+1)^0,c
  3388  000A16  0E00               	movlw	0
  3389  000A18  6E19               	movwf	(___fladd@b+2)^0,c
  3390  000A1A  0E00               	movlw	0
  3391  000A1C  6E1A               	movwf	(___fladd@b+3)^0,c
  3392  000A1E  C024  F025         	movff	___fladd@aexp,___fladd@bexp
  3393  000A22  EF39  F005         	goto	l677
  3394  000A26                     l679:
  3395  000A26  A026               	btfss	___fladd@grs^0,0,c
  3396  000A28  EF18  F005         	goto	u2971
  3397  000A2C  EF1A  F005         	goto	u2970
  3398  000A30                     u2971:
  3399  000A30  EF20  F005         	goto	l3047
  3400  000A34                     u2970:
  3401  000A34  90D8               	bcf	status,0,c
  3402  000A36  3026               	rrcf	___fladd@grs^0,w,c
  3403  000A38  0901               	iorlw	1
  3404  000A3A  6E26               	movwf	___fladd@grs^0,c
  3405  000A3C  EF22  F005         	goto	l3049
  3406  000A40                     l3047:
  3407  000A40  90D8               	bcf	status,0,c
  3408  000A42  3226               	rrcf	___fladd@grs^0,f,c
  3409  000A44                     l3049:
  3410  000A44  A017               	btfss	___fladd@b^0,0,c
  3411  000A46  EF27  F005         	goto	u2981
  3412  000A4A  EF29  F005         	goto	u2980
  3413  000A4E                     u2981:
  3414  000A4E  EF2A  F005         	goto	l3053
  3415  000A52                     u2980:
  3416  000A52  8E26               	bsf	___fladd@grs^0,7,c
  3417  000A54                     l3053:
  3418  000A54  341A               	rlcf	(___fladd@b+3)^0,w,c
  3419  000A56  321A               	rrcf	(___fladd@b+3)^0,f,c
  3420  000A58  3219               	rrcf	(___fladd@b+2)^0,f,c
  3421  000A5A  3218               	rrcf	(___fladd@b+1)^0,f,c
  3422  000A5C  3217               	rrcf	___fladd@b^0,f,c
  3423  000A5E  2A25               	incf	___fladd@bexp^0,f,c
  3424  000A60                     l678:
  3425  000A60  5024               	movf	___fladd@aexp^0,w,c
  3426  000A62  5C25               	subwf	___fladd@bexp^0,w,c
  3427  000A64  A0D8               	btfss	status,0,c
  3428  000A66  EF37  F005         	goto	u2991
  3429  000A6A  EF39  F005         	goto	u2990
  3430  000A6E                     u2991:
  3431  000A6E  EF13  F005         	goto	l679
  3432  000A72                     u2990:
  3433  000A72                     l677:
  3434  000A72  BC23               	btfsc	___fladd@signs^0,6,c
  3435  000A74  EF3E  F005         	goto	u3001
  3436  000A78  EF40  F005         	goto	u3000
  3437  000A7C                     u3001:
  3438  000A7C  EF80  F005         	goto	l3081
  3439  000A80                     u3000:
  3440  000A80  5025               	movf	___fladd@bexp^0,w,c
  3441  000A82  A4D8               	btfss	status,2,c
  3442  000A84  EF46  F005         	goto	u3011
  3443  000A88  EF48  F005         	goto	u3010
  3444  000A8C                     u3011:
  3445  000A8C  EF52  F005         	goto	l3063
  3446  000A90                     u3010:
  3447  000A90  0E00               	movlw	0
  3448  000A92  6E17               	movwf	?___fladd^0,c
  3449  000A94  0E00               	movlw	0
  3450  000A96  6E18               	movwf	(?___fladd+1)^0,c
  3451  000A98  0E00               	movlw	0
  3452  000A9A  6E19               	movwf	(?___fladd+2)^0,c
  3453  000A9C  0E00               	movlw	0
  3454  000A9E  6E1A               	movwf	(?___fladd+3)^0,c
  3455  000AA0  EFA1  F006         	goto	l686
  3456  000AA4                     l3063:
  3457  000AA4  501B               	movf	___fladd@a^0,w,c
  3458  000AA6  2617               	addwf	___fladd@b^0,f,c
  3459  000AA8  501C               	movf	(___fladd@a+1)^0,w,c
  3460  000AAA  2218               	addwfc	(___fladd@b+1)^0,f,c
  3461  000AAC  501D               	movf	(___fladd@a+2)^0,w,c
  3462  000AAE  2219               	addwfc	(___fladd@b+2)^0,f,c
  3463  000AB0  501E               	movf	(___fladd@a+3)^0,w,c
  3464  000AB2  221A               	addwfc	(___fladd@b+3)^0,f,c
  3465  000AB4  A01A               	btfss	(___fladd@b+3)^0,0,c
  3466  000AB6  EF5F  F005         	goto	u3021
  3467  000ABA  EF61  F005         	goto	u3020
  3468  000ABE                     u3021:
  3469  000ABE  EF0D  F006         	goto	l3117
  3470  000AC2                     u3020:
  3471  000AC2  A026               	btfss	___fladd@grs^0,0,c
  3472  000AC4  EF66  F005         	goto	u3031
  3473  000AC8  EF68  F005         	goto	u3030
  3474  000ACC                     u3031:
  3475  000ACC  EF6E  F005         	goto	l3071
  3476  000AD0                     u3030:
  3477  000AD0  90D8               	bcf	status,0,c
  3478  000AD2  3026               	rrcf	___fladd@grs^0,w,c
  3479  000AD4  0901               	iorlw	1
  3480  000AD6  6E26               	movwf	___fladd@grs^0,c
  3481  000AD8  EF70  F005         	goto	l3073
  3482  000ADC                     l3071:
  3483  000ADC  90D8               	bcf	status,0,c
  3484  000ADE  3226               	rrcf	___fladd@grs^0,f,c
  3485  000AE0                     l3073:
  3486  000AE0  A017               	btfss	___fladd@b^0,0,c
  3487  000AE2  EF75  F005         	goto	u3041
  3488  000AE6  EF77  F005         	goto	u3040
  3489  000AEA                     u3041:
  3490  000AEA  EF78  F005         	goto	l3077
  3491  000AEE                     u3040:
  3492  000AEE  8E26               	bsf	___fladd@grs^0,7,c
  3493  000AF0                     l3077:
  3494  000AF0  341A               	rlcf	(___fladd@b+3)^0,w,c
  3495  000AF2  321A               	rrcf	(___fladd@b+3)^0,f,c
  3496  000AF4  3219               	rrcf	(___fladd@b+2)^0,f,c
  3497  000AF6  3218               	rrcf	(___fladd@b+1)^0,f,c
  3498  000AF8  3217               	rrcf	___fladd@b^0,f,c
  3499  000AFA  2A25               	incf	___fladd@bexp^0,f,c
  3500  000AFC  EF0D  F006         	goto	l3117
  3501  000B00                     l3081:
  3502  000B00  501B               	movf	___fladd@a^0,w,c
  3503  000B02  5C17               	subwf	___fladd@b^0,w,c
  3504  000B04  501C               	movf	(___fladd@a+1)^0,w,c
  3505  000B06  5818               	subwfb	(___fladd@b+1)^0,w,c
  3506  000B08  501D               	movf	(___fladd@a+2)^0,w,c
  3507  000B0A  5819               	subwfb	(___fladd@b+2)^0,w,c
  3508  000B0C  501A               	movf	(___fladd@b+3)^0,w,c
  3509  000B0E  0A80               	xorlw	128
  3510  000B10  6E1F               	movwf	??___fladd^0,c
  3511  000B12  501E               	movf	(___fladd@a+3)^0,w,c
  3512  000B14  0A80               	xorlw	128
  3513  000B16  581F               	subwfb	??___fladd^0,w,c
  3514  000B18  B0D8               	btfsc	status,0,c
  3515  000B1A  EF91  F005         	goto	u3051
  3516  000B1E  EF93  F005         	goto	u3050
  3517  000B22                     u3051:
  3518  000B22  EFBE  F005         	goto	l3091
  3519  000B26                     u3050:
  3520  000B26  5017               	movf	___fladd@b^0,w,c
  3521  000B28  5C1B               	subwf	___fladd@a^0,w,c
  3522  000B2A  6E1F               	movwf	??___fladd^0,c
  3523  000B2C  5018               	movf	(___fladd@b+1)^0,w,c
  3524  000B2E  581C               	subwfb	(___fladd@a+1)^0,w,c
  3525  000B30  6E20               	movwf	(??___fladd+1)^0,c
  3526  000B32  5019               	movf	(___fladd@b+2)^0,w,c
  3527  000B34  581D               	subwfb	(___fladd@a+2)^0,w,c
  3528  000B36  6E21               	movwf	(??___fladd+2)^0,c
  3529  000B38  501A               	movf	(___fladd@b+3)^0,w,c
  3530  000B3A  581E               	subwfb	(___fladd@a+3)^0,w,c
  3531  000B3C  6E22               	movwf	(??___fladd+3)^0,c
  3532  000B3E  0EFF               	movlw	255
  3533  000B40  241F               	addwf	??___fladd^0,w,c
  3534  000B42  6E17               	movwf	___fladd@b^0,c
  3535  000B44  0EFF               	movlw	255
  3536  000B46  2020               	addwfc	(??___fladd+1)^0,w,c
  3537  000B48  6E18               	movwf	(___fladd@b+1)^0,c
  3538  000B4A  0EFF               	movlw	255
  3539  000B4C  2021               	addwfc	(??___fladd+2)^0,w,c
  3540  000B4E  6E19               	movwf	(___fladd@b+2)^0,c
  3541  000B50  0EFF               	movlw	255
  3542  000B52  2022               	addwfc	(??___fladd+3)^0,w,c
  3543  000B54  6E1A               	movwf	(___fladd@b+3)^0,c
  3544  000B56  0E80               	movlw	128
  3545  000B58  1A23               	xorwf	___fladd@signs^0,f,c
  3546  000B5A  6C26               	negf	___fladd@grs^0,c
  3547  000B5C  5026               	movf	___fladd@grs^0,w,c
  3548  000B5E  A4D8               	btfss	status,2,c
  3549  000B60  EFB4  F005         	goto	u3061
  3550  000B64  EFB6  F005         	goto	u3060
  3551  000B68                     u3061:
  3552  000B68  EFC6  F005         	goto	l694
  3553  000B6C                     u3060:
  3554  000B6C  0E01               	movlw	1
  3555  000B6E  2617               	addwf	___fladd@b^0,f,c
  3556  000B70  0E00               	movlw	0
  3557  000B72  2218               	addwfc	(___fladd@b+1)^0,f,c
  3558  000B74  2219               	addwfc	(___fladd@b+2)^0,f,c
  3559  000B76  221A               	addwfc	(___fladd@b+3)^0,f,c
  3560  000B78  EFC6  F005         	goto	l694
  3561  000B7C                     l3091:
  3562  000B7C  501B               	movf	___fladd@a^0,w,c
  3563  000B7E  5E17               	subwf	___fladd@b^0,f,c
  3564  000B80  501C               	movf	(___fladd@a+1)^0,w,c
  3565  000B82  5A18               	subwfb	(___fladd@b+1)^0,f,c
  3566  000B84  501D               	movf	(___fladd@a+2)^0,w,c
  3567  000B86  5A19               	subwfb	(___fladd@b+2)^0,f,c
  3568  000B88  501E               	movf	(___fladd@a+3)^0,w,c
  3569  000B8A  5A1A               	subwfb	(___fladd@b+3)^0,f,c
  3570  000B8C                     l694:
  3571  000B8C  5017               	movf	___fladd@b^0,w,c
  3572  000B8E  1018               	iorwf	(___fladd@b+1)^0,w,c
  3573  000B90  1019               	iorwf	(___fladd@b+2)^0,w,c
  3574  000B92  101A               	iorwf	(___fladd@b+3)^0,w,c
  3575  000B94  A4D8               	btfss	status,2,c
  3576  000B96  EFCF  F005         	goto	u3071
  3577  000B9A  EFD1  F005         	goto	u3070
  3578  000B9E                     u3071:
  3579  000B9E  EF06  F006         	goto	l3115
  3580  000BA2                     u3070:
  3581  000BA2  5026               	movf	___fladd@grs^0,w,c
  3582  000BA4  A4D8               	btfss	status,2,c
  3583  000BA6  EFD7  F005         	goto	u3081
  3584  000BAA  EFD9  F005         	goto	u3080
  3585  000BAE                     u3081:
  3586  000BAE  EF06  F006         	goto	l3115
  3587  000BB2                     u3080:
  3588  000BB2  0E00               	movlw	0
  3589  000BB4  6E17               	movwf	?___fladd^0,c
  3590  000BB6  0E00               	movlw	0
  3591  000BB8  6E18               	movwf	(?___fladd+1)^0,c
  3592  000BBA  0E00               	movlw	0
  3593  000BBC  6E19               	movwf	(?___fladd+2)^0,c
  3594  000BBE  0E00               	movlw	0
  3595  000BC0  6E1A               	movwf	(?___fladd+3)^0,c
  3596  000BC2  EFA1  F006         	goto	l686
  3597  000BC6                     l3099:
  3598  000BC6  90D8               	bcf	status,0,c
  3599  000BC8  3617               	rlcf	___fladd@b^0,f,c
  3600  000BCA  3618               	rlcf	(___fladd@b+1)^0,f,c
  3601  000BCC  3619               	rlcf	(___fladd@b+2)^0,f,c
  3602  000BCE  361A               	rlcf	(___fladd@b+3)^0,f,c
  3603  000BD0  AE26               	btfss	___fladd@grs^0,7,c
  3604  000BD2  EFED  F005         	goto	u3091
  3605  000BD6  EFEF  F005         	goto	u3090
  3606  000BDA                     u3091:
  3607  000BDA  EFF0  F005         	goto	l3105
  3608  000BDE                     u3090:
  3609  000BDE  8017               	bsf	___fladd@b^0,0,c
  3610  000BE0                     l3105:
  3611  000BE0  A026               	btfss	___fladd@grs^0,0,c
  3612  000BE2  EFF5  F005         	goto	u3101
  3613  000BE6  EFF7  F005         	goto	u3100
  3614  000BEA                     u3101:
  3615  000BEA  EFFB  F005         	goto	l3109
  3616  000BEE                     u3100:
  3617  000BEE  80D8               	bsf	status,0,c
  3618  000BF0  3626               	rlcf	___fladd@grs^0,f,c
  3619  000BF2  EFFD  F005         	goto	l3111
  3620  000BF6                     l3109:
  3621  000BF6  90D8               	bcf	status,0,c
  3622  000BF8  3626               	rlcf	___fladd@grs^0,f,c
  3623  000BFA                     l3111:
  3624  000BFA  5025               	movf	___fladd@bexp^0,w,c
  3625  000BFC  B4D8               	btfsc	status,2,c
  3626  000BFE  EF03  F006         	goto	u3111
  3627  000C02  EF05  F006         	goto	u3110
  3628  000C06                     u3111:
  3629  000C06  EF06  F006         	goto	l3115
  3630  000C0A                     u3110:
  3631  000C0A  0625               	decf	___fladd@bexp^0,f,c
  3632  000C0C                     l3115:
  3633  000C0C  AE19               	btfss	(___fladd@b+2)^0,7,c
  3634  000C0E  EF0B  F006         	goto	u3121
  3635  000C12  EF0D  F006         	goto	u3120
  3636  000C16                     u3121:
  3637  000C16  EFE3  F005         	goto	l3099
  3638  000C1A                     u3120:
  3639  000C1A                     l3117:
  3640  000C1A  0E00               	movlw	0
  3641  000C1C  6E24               	movwf	___fladd@aexp^0,c
  3642  000C1E  AE26               	btfss	___fladd@grs^0,7,c
  3643  000C20  EF14  F006         	goto	u3131
  3644  000C24  EF16  F006         	goto	u3130
  3645  000C28                     u3131:
  3646  000C28  EF2E  F006         	goto	l703
  3647  000C2C                     u3130:
  3648  000C2C  C026  F01F         	movff	___fladd@grs,??___fladd
  3649  000C30  0E7F               	movlw	127
  3650  000C32  161F               	andwf	??___fladd^0,f,c
  3651  000C34  B4D8               	btfsc	status,2,c
  3652  000C36  EF1F  F006         	goto	u3141
  3653  000C3A  EF21  F006         	goto	u3140
  3654  000C3E                     u3141:
  3655  000C3E  EF25  F006         	goto	l704
  3656  000C42                     u3140:
  3657  000C42                     l3123:
  3658  000C42  0E01               	movlw	1
  3659  000C44  6E24               	movwf	___fladd@aexp^0,c
  3660  000C46  EF2E  F006         	goto	l703
  3661  000C4A                     l704:
  3662  000C4A  A017               	btfss	___fladd@b^0,0,c
  3663  000C4C  EF2A  F006         	goto	u3151
  3664  000C50  EF2C  F006         	goto	u3150
  3665  000C54                     u3151:
  3666  000C54  EF2E  F006         	goto	l703
  3667  000C58                     u3150:
  3668  000C58  EF21  F006         	goto	l3123
  3669  000C5C                     l703:
  3670  000C5C  5024               	movf	___fladd@aexp^0,w,c
  3671  000C5E  B4D8               	btfsc	status,2,c
  3672  000C60  EF34  F006         	goto	u3161
  3673  000C64  EF36  F006         	goto	u3160
  3674  000C68                     u3161:
  3675  000C68  EF61  F006         	goto	l3135
  3676  000C6C                     u3160:
  3677  000C6C  0E01               	movlw	1
  3678  000C6E  2617               	addwf	___fladd@b^0,f,c
  3679  000C70  0E00               	movlw	0
  3680  000C72  2218               	addwfc	(___fladd@b+1)^0,f,c
  3681  000C74  2219               	addwfc	(___fladd@b+2)^0,f,c
  3682  000C76  221A               	addwfc	(___fladd@b+3)^0,f,c
  3683  000C78  A01A               	btfss	(___fladd@b+3)^0,0,c
  3684  000C7A  EF41  F006         	goto	u3171
  3685  000C7E  EF43  F006         	goto	u3170
  3686  000C82                     u3171:
  3687  000C82  EF61  F006         	goto	l3135
  3688  000C86                     u3170:
  3689  000C86  C017  F01F         	movff	___fladd@b,??___fladd
  3690  000C8A  C018  F020         	movff	___fladd@b+1,??___fladd+1
  3691  000C8E  C019  F021         	movff	___fladd@b+2,??___fladd+2
  3692  000C92  C01A  F022         	movff	___fladd@b+3,??___fladd+3
  3693  000C96  3422               	rlcf	(??___fladd+3)^0,w,c
  3694  000C98  3222               	rrcf	(??___fladd+3)^0,f,c
  3695  000C9A  3221               	rrcf	(??___fladd+2)^0,f,c
  3696  000C9C  3220               	rrcf	(??___fladd+1)^0,f,c
  3697  000C9E  321F               	rrcf	??___fladd^0,f,c
  3698  000CA0  C01F  F017         	movff	??___fladd,___fladd@b
  3699  000CA4  C020  F018         	movff	??___fladd+1,___fladd@b+1
  3700  000CA8  C021  F019         	movff	??___fladd+2,___fladd@b+2
  3701  000CAC  C022  F01A         	movff	??___fladd+3,___fladd@b+3
  3702  000CB0  2825               	incf	___fladd@bexp^0,w,c
  3703  000CB2  B4D8               	btfsc	status,2,c
  3704  000CB4  EF5E  F006         	goto	u3181
  3705  000CB8  EF60  F006         	goto	u3180
  3706  000CBC                     u3181:
  3707  000CBC  EF61  F006         	goto	l3135
  3708  000CC0                     u3180:
  3709  000CC0  2A25               	incf	___fladd@bexp^0,f,c
  3710  000CC2                     l3135:
  3711  000CC2  2825               	incf	___fladd@bexp^0,w,c
  3712  000CC4  B4D8               	btfsc	status,2,c
  3713  000CC6  EF67  F006         	goto	u3191
  3714  000CCA  EF69  F006         	goto	u3190
  3715  000CCE                     u3191:
  3716  000CCE  EF71  F006         	goto	l3139
  3717  000CD2                     u3190:
  3718  000CD2  5025               	movf	___fladd@bexp^0,w,c
  3719  000CD4  A4D8               	btfss	status,2,c
  3720  000CD6  EF6F  F006         	goto	u3201
  3721  000CDA  EF71  F006         	goto	u3200
  3722  000CDE                     u3201:
  3723  000CDE  EF83  F006         	goto	l3143
  3724  000CE2                     u3200:
  3725  000CE2                     l3139:
  3726  000CE2  0E00               	movlw	0
  3727  000CE4  6E17               	movwf	___fladd@b^0,c
  3728  000CE6  0E00               	movlw	0
  3729  000CE8  6E18               	movwf	(___fladd@b+1)^0,c
  3730  000CEA  0E00               	movlw	0
  3731  000CEC  6E19               	movwf	(___fladd@b+2)^0,c
  3732  000CEE  0E00               	movlw	0
  3733  000CF0  6E1A               	movwf	(___fladd@b+3)^0,c
  3734  000CF2  5025               	movf	___fladd@bexp^0,w,c
  3735  000CF4  A4D8               	btfss	status,2,c
  3736  000CF6  EF7F  F006         	goto	u3211
  3737  000CFA  EF81  F006         	goto	u3210
  3738  000CFE                     u3211:
  3739  000CFE  EF83  F006         	goto	l3143
  3740  000D02                     u3210:
  3741  000D02  0E00               	movlw	0
  3742  000D04  6E23               	movwf	___fladd@signs^0,c
  3743  000D06                     l3143:
  3744  000D06  A025               	btfss	___fladd@bexp^0,0,c
  3745  000D08  EF88  F006         	goto	u3221
  3746  000D0C  EF8A  F006         	goto	u3220
  3747  000D10                     u3221:
  3748  000D10  EF8D  F006         	goto	l3147
  3749  000D14                     u3220:
  3750  000D14  8E19               	bsf	(___fladd@b+2)^0,7,c
  3751  000D16  EF8E  F006         	goto	l3149
  3752  000D1A                     l3147:
  3753  000D1A  9E19               	bcf	(___fladd@b+2)^0,7,c
  3754  000D1C                     l3149:
  3755  000D1C  90D8               	bcf	status,0,c
  3756  000D1E  3025               	rrcf	___fladd@bexp^0,w,c
  3757  000D20  6E1A               	movwf	(___fladd@b+3)^0,c
  3758  000D22  AE23               	btfss	___fladd@signs^0,7,c
  3759  000D24  EF96  F006         	goto	u3231
  3760  000D28  EF98  F006         	goto	u3230
  3761  000D2C                     u3231:
  3762  000D2C  EF99  F006         	goto	l3155
  3763  000D30                     u3230:
  3764  000D30  8E1A               	bsf	(___fladd@b+3)^0,7,c
  3765  000D32                     l3155:
  3766  000D32  C017  F017         	movff	___fladd@b,?___fladd
  3767  000D36  C018  F018         	movff	___fladd@b+1,?___fladd+1
  3768  000D3A  C019  F019         	movff	___fladd@b+2,?___fladd+2
  3769  000D3E  C01A  F01A         	movff	___fladd@b+3,?___fladd+3
  3770  000D42                     l686:
  3771  000D42  0012               	return		;funcret
  3772  000D44                     __end_of___fladd:
  3773                           	callstack 0
  3774                           
  3775 ;; *************** function ___flmul *****************
  3776 ;; Defined at:
  3777 ;;		line 8 in file "C:\Program Files\Microchip\xc8\v2.32\pic\sources\c99\common\sprcmul.c"
  3778 ;; Parameters:    Size  Location     Type
  3779 ;;  b               4   36[COMRAM] unsigned char 
  3780 ;;  a               4   40[COMRAM] unsigned char 
  3781 ;; Auto vars:     Size  Location     Type
  3782 ;;  prod            4    7[BANK0 ] struct .
  3783 ;;  grs             4    2[BANK0 ] unsigned long 
  3784 ;;  temp            2   11[BANK0 ] struct .
  3785 ;;  bexp            1    6[BANK0 ] unsigned char 
  3786 ;;  aexp            1    1[BANK0 ] unsigned char 
  3787 ;;  sign            1    0[BANK0 ] unsigned char 
  3788 ;; Return value:  Size  Location     Type
  3789 ;;                  4   36[COMRAM] unsigned char 
  3790 ;; Registers used:
  3791 ;;		wreg, status,2, status,0, prodl, prodh
  3792 ;; Tracked objects:
  3793 ;;		On entry : 0/0
  3794 ;;		On exit  : 0/0
  3795 ;;		Unchanged: 0/0
  3796 ;; Data sizes:     COMRAM   BANK0   BANK1   BANK2   BANK3   BANK4   BANK5   BANK6   BANK7
  3797 ;;      Params:         8       0       0       0       0       0       0       0       0
  3798 ;;      Locals:         0      13       0       0       0       0       0       0       0
  3799 ;;      Temps:          4       0       0       0       0       0       0       0       0
  3800 ;;      Totals:        12      13       0       0       0       0       0       0       0
  3801 ;;Total ram usage:       25 bytes
  3802 ;; Hardware stack levels used: 1
  3803 ;; Hardware stack levels required when called: 4
  3804 ;; This function calls:
  3805 ;;		Nothing
  3806 ;; This function is called by:
  3807 ;;		_LCD_printFloatNumber
  3808 ;;		_main
  3809 ;; This function uses a non-reentrant model
  3810 ;;
  3811                           
  3812                           	psect	text20
  3813  000D44                     __ptext20:
  3814                           	callstack 0
  3815  000D44                     ___flmul:
  3816                           	callstack 26
  3817  000D44  5028               	movf	(___flmul@b+3)^0,w,c
  3818  000D46  0B80               	andlw	128
  3819  000D48  0100               	movlb	0	; () banked
  3820  000D4A  6F60               	movwf	___flmul@sign& (0+255),b
  3821  000D4C  5028               	movf	(___flmul@b+3)^0,w,c
  3822  000D4E  2428               	addwf	(___flmul@b+3)^0,w,c
  3823  000D50  6F66               	movwf	___flmul@bexp& (0+255),b
  3824  000D52                     
  3825                           ; BSR set to: 0
  3826  000D52  AE27               	btfss	(___flmul@b+2)^0,7,c
  3827  000D54  EFAE  F006         	goto	u3571
  3828  000D58  EFB0  F006         	goto	u3570
  3829  000D5C                     u3571:
  3830  000D5C  EFB1  F006         	goto	l3341
  3831  000D60                     u3570:
  3832  000D60                     
  3833                           ; BSR set to: 0
  3834  000D60  8166               	bsf	___flmul@bexp& (0+255),0,b
  3835  000D62                     l3341:
  3836                           
  3837                           ; BSR set to: 0
  3838  000D62  5166               	movf	___flmul@bexp& (0+255),w,b
  3839  000D64  B4D8               	btfsc	status,2,c
  3840  000D66  EFB7  F006         	goto	u3581
  3841  000D6A  EFB9  F006         	goto	u3580
  3842  000D6E                     u3581:
  3843  000D6E  EFCC  F006         	goto	l3349
  3844  000D72                     u3580:
  3845  000D72                     
  3846                           ; BSR set to: 0
  3847  000D72  2966               	incf	___flmul@bexp& (0+255),w,b
  3848  000D74  A4D8               	btfss	status,2,c
  3849  000D76  EFBF  F006         	goto	u3591
  3850  000D7A  EFC1  F006         	goto	u3590
  3851  000D7E                     u3591:
  3852  000D7E  EFC9  F006         	goto	l3347
  3853  000D82                     u3590:
  3854  000D82                     
  3855                           ; BSR set to: 0
  3856  000D82  0E00               	movlw	0
  3857  000D84  6E25               	movwf	___flmul@b^0,c
  3858  000D86  0E00               	movlw	0
  3859  000D88  6E26               	movwf	(___flmul@b+1)^0,c
  3860  000D8A  0E00               	movlw	0
  3861  000D8C  6E27               	movwf	(___flmul@b+2)^0,c
  3862  000D8E  0E00               	movlw	0
  3863  000D90  6E28               	movwf	(___flmul@b+3)^0,c
  3864  000D92                     l3347:
  3865                           
  3866                           ; BSR set to: 0
  3867  000D92  8E27               	bsf	(___flmul@b+2)^0,7,c
  3868  000D94  EFD4  F006         	goto	l3351
  3869  000D98                     l3349:
  3870                           
  3871                           ; BSR set to: 0
  3872  000D98  0E00               	movlw	0
  3873  000D9A  6E25               	movwf	___flmul@b^0,c
  3874  000D9C  0E00               	movlw	0
  3875  000D9E  6E26               	movwf	(___flmul@b+1)^0,c
  3876  000DA0  0E00               	movlw	0
  3877  000DA2  6E27               	movwf	(___flmul@b+2)^0,c
  3878  000DA4  0E00               	movlw	0
  3879  000DA6  6E28               	movwf	(___flmul@b+3)^0,c
  3880  000DA8                     l3351:
  3881                           
  3882                           ; BSR set to: 0
  3883  000DA8  502C               	movf	(___flmul@a+3)^0,w,c
  3884  000DAA  0B80               	andlw	128
  3885  000DAC  1B60               	xorwf	___flmul@sign& (0+255),f,b
  3886  000DAE                     
  3887                           ; BSR set to: 0
  3888  000DAE  502C               	movf	(___flmul@a+3)^0,w,c
  3889  000DB0  242C               	addwf	(___flmul@a+3)^0,w,c
  3890  000DB2  6F61               	movwf	___flmul@aexp& (0+255),b
  3891  000DB4                     
  3892                           ; BSR set to: 0
  3893  000DB4  AE2B               	btfss	(___flmul@a+2)^0,7,c
  3894  000DB6  EFDF  F006         	goto	u3601
  3895  000DBA  EFE1  F006         	goto	u3600
  3896  000DBE                     u3601:
  3897  000DBE  EFE2  F006         	goto	l3359
  3898  000DC2                     u3600:
  3899  000DC2                     
  3900                           ; BSR set to: 0
  3901  000DC2  8161               	bsf	___flmul@aexp& (0+255),0,b
  3902  000DC4                     l3359:
  3903                           
  3904                           ; BSR set to: 0
  3905  000DC4  5161               	movf	___flmul@aexp& (0+255),w,b
  3906  000DC6  B4D8               	btfsc	status,2,c
  3907  000DC8  EFE8  F006         	goto	u3611
  3908  000DCC  EFEA  F006         	goto	u3610
  3909  000DD0                     u3611:
  3910  000DD0  EFFD  F006         	goto	l3367
  3911  000DD4                     u3610:
  3912  000DD4                     
  3913                           ; BSR set to: 0
  3914  000DD4  2961               	incf	___flmul@aexp& (0+255),w,b
  3915  000DD6  A4D8               	btfss	status,2,c
  3916  000DD8  EFF0  F006         	goto	u3621
  3917  000DDC  EFF2  F006         	goto	u3620
  3918  000DE0                     u3621:
  3919  000DE0  EFFA  F006         	goto	l3365
  3920  000DE4                     u3620:
  3921  000DE4                     
  3922                           ; BSR set to: 0
  3923  000DE4  0E00               	movlw	0
  3924  000DE6  6E29               	movwf	___flmul@a^0,c
  3925  000DE8  0E00               	movlw	0
  3926  000DEA  6E2A               	movwf	(___flmul@a+1)^0,c
  3927  000DEC  0E00               	movlw	0
  3928  000DEE  6E2B               	movwf	(___flmul@a+2)^0,c
  3929  000DF0  0E00               	movlw	0
  3930  000DF2  6E2C               	movwf	(___flmul@a+3)^0,c
  3931  000DF4                     l3365:
  3932                           
  3933                           ; BSR set to: 0
  3934  000DF4  8E2B               	bsf	(___flmul@a+2)^0,7,c
  3935  000DF6  EF05  F007         	goto	l763
  3936  000DFA                     l3367:
  3937                           
  3938                           ; BSR set to: 0
  3939  000DFA  0E00               	movlw	0
  3940  000DFC  6E29               	movwf	___flmul@a^0,c
  3941  000DFE  0E00               	movlw	0
  3942  000E00  6E2A               	movwf	(___flmul@a+1)^0,c
  3943  000E02  0E00               	movlw	0
  3944  000E04  6E2B               	movwf	(___flmul@a+2)^0,c
  3945  000E06  0E00               	movlw	0
  3946  000E08  6E2C               	movwf	(___flmul@a+3)^0,c
  3947  000E0A                     l763:
  3948                           
  3949                           ; BSR set to: 0
  3950  000E0A  5161               	movf	___flmul@aexp& (0+255),w,b
  3951  000E0C  B4D8               	btfsc	status,2,c
  3952  000E0E  EF0B  F007         	goto	u3631
  3953  000E12  EF0D  F007         	goto	u3630
  3954  000E16                     u3631:
  3955  000E16  EF15  F007         	goto	l3371
  3956  000E1A                     u3630:
  3957  000E1A                     
  3958                           ; BSR set to: 0
  3959  000E1A  5166               	movf	___flmul@bexp& (0+255),w,b
  3960  000E1C  A4D8               	btfss	status,2,c
  3961  000E1E  EF13  F007         	goto	u3641
  3962  000E22  EF15  F007         	goto	u3640
  3963  000E26                     u3641:
  3964  000E26  EF1F  F007         	goto	l3375
  3965  000E2A                     u3640:
  3966  000E2A                     l3371:
  3967                           
  3968                           ; BSR set to: 0
  3969  000E2A  0E00               	movlw	0
  3970  000E2C  6E25               	movwf	?___flmul^0,c
  3971  000E2E  0E00               	movlw	0
  3972  000E30  6E26               	movwf	(?___flmul+1)^0,c
  3973  000E32  0E00               	movlw	0
  3974  000E34  6E27               	movwf	(?___flmul+2)^0,c
  3975  000E36  0E00               	movlw	0
  3976  000E38  6E28               	movwf	(?___flmul+3)^0,c
  3977  000E3A  EFB7  F008         	goto	l767
  3978  000E3E                     l3375:
  3979                           
  3980                           ; BSR set to: 0
  3981  000E3E  502B               	movf	(___flmul@a+2)^0,w,c
  3982  000E40  0225               	mulwf	___flmul@b^0,c
  3983  000E42  CFF3 F06B          	movff	prodl,___flmul@temp
  3984  000E46  CFF4 F06C          	movff	prodh,___flmul@temp+1
  3985  000E4A                     
  3986                           ; BSR set to: 0
  3987  000E4A  516B               	movf	___flmul@temp& (0+255),w,b
  3988  000E4C  6F62               	movwf	___flmul@grs& (0+255),b
  3989  000E4E  6B63               	clrf	(___flmul@grs+1)& (0+255),b
  3990  000E50  6B64               	clrf	(___flmul@grs+2)& (0+255),b
  3991  000E52  6B65               	clrf	(___flmul@grs+3)& (0+255),b
  3992  000E54                     
  3993                           ; BSR set to: 0
  3994  000E54  516C               	movf	(___flmul@temp+1)& (0+255),w,b
  3995  000E56  6F67               	movwf	___flmul@prod& (0+255),b
  3996  000E58  6B68               	clrf	(___flmul@prod+1)& (0+255),b
  3997  000E5A  6B69               	clrf	(___flmul@prod+2)& (0+255),b
  3998  000E5C  6B6A               	clrf	(___flmul@prod+3)& (0+255),b
  3999  000E5E  502A               	movf	(___flmul@a+1)^0,w,c
  4000  000E60  0226               	mulwf	(___flmul@b+1)^0,c
  4001  000E62  CFF3 F06B          	movff	prodl,___flmul@temp
  4002  000E66  CFF4 F06C          	movff	prodh,___flmul@temp+1
  4003  000E6A                     
  4004                           ; BSR set to: 0
  4005  000E6A  516B               	movf	___flmul@temp& (0+255),w,b
  4006  000E6C  2762               	addwf	___flmul@grs& (0+255),f,b
  4007  000E6E  0E00               	movlw	0
  4008  000E70  2363               	addwfc	(___flmul@grs+1)& (0+255),f,b
  4009  000E72  2364               	addwfc	(___flmul@grs+2)& (0+255),f,b
  4010  000E74  2365               	addwfc	(___flmul@grs+3)& (0+255),f,b
  4011  000E76                     
  4012                           ; BSR set to: 0
  4013  000E76  516C               	movf	(___flmul@temp+1)& (0+255),w,b
  4014  000E78  2767               	addwf	___flmul@prod& (0+255),f,b
  4015  000E7A  0E00               	movlw	0
  4016  000E7C  2368               	addwfc	(___flmul@prod+1)& (0+255),f,b
  4017  000E7E  2369               	addwfc	(___flmul@prod+2)& (0+255),f,b
  4018  000E80  236A               	addwfc	(___flmul@prod+3)& (0+255),f,b
  4019  000E82  5029               	movf	___flmul@a^0,w,c
  4020  000E84  0227               	mulwf	(___flmul@b+2)^0,c
  4021  000E86  CFF3 F06B          	movff	prodl,___flmul@temp
  4022  000E8A  CFF4 F06C          	movff	prodh,___flmul@temp+1
  4023  000E8E                     
  4024                           ; BSR set to: 0
  4025  000E8E  516B               	movf	___flmul@temp& (0+255),w,b
  4026  000E90  2762               	addwf	___flmul@grs& (0+255),f,b
  4027  000E92  0E00               	movlw	0
  4028  000E94  2363               	addwfc	(___flmul@grs+1)& (0+255),f,b
  4029  000E96  2364               	addwfc	(___flmul@grs+2)& (0+255),f,b
  4030  000E98  2365               	addwfc	(___flmul@grs+3)& (0+255),f,b
  4031  000E9A                     
  4032                           ; BSR set to: 0
  4033  000E9A  516C               	movf	(___flmul@temp+1)& (0+255),w,b
  4034  000E9C  2767               	addwf	___flmul@prod& (0+255),f,b
  4035  000E9E  0E00               	movlw	0
  4036  000EA0  2368               	addwfc	(___flmul@prod+1)& (0+255),f,b
  4037  000EA2  2369               	addwfc	(___flmul@prod+2)& (0+255),f,b
  4038  000EA4  236A               	addwfc	(___flmul@prod+3)& (0+255),f,b
  4039  000EA6                     
  4040                           ; BSR set to: 0
  4041  000EA6  C064  F065         	movff	___flmul@grs+2,___flmul@grs+3
  4042  000EAA  C063  F064         	movff	___flmul@grs+1,___flmul@grs+2
  4043  000EAE  C062  F063         	movff	___flmul@grs,___flmul@grs+1
  4044  000EB2  6B62               	clrf	___flmul@grs& (0+255),b
  4045  000EB4                     
  4046                           ; BSR set to: 0
  4047  000EB4  5029               	movf	___flmul@a^0,w,c
  4048  000EB6  0226               	mulwf	(___flmul@b+1)^0,c
  4049  000EB8  CFF3 F06B          	movff	prodl,___flmul@temp
  4050  000EBC  CFF4 F06C          	movff	prodh,___flmul@temp+1
  4051  000EC0                     
  4052                           ; BSR set to: 0
  4053  000EC0  516B               	movf	___flmul@temp& (0+255),w,b
  4054  000EC2  2762               	addwf	___flmul@grs& (0+255),f,b
  4055  000EC4  516C               	movf	(___flmul@temp+1)& (0+255),w,b
  4056  000EC6  2363               	addwfc	(___flmul@grs+1)& (0+255),f,b
  4057  000EC8  0E00               	movlw	0
  4058  000ECA  2364               	addwfc	(___flmul@grs+2)& (0+255),f,b
  4059  000ECC  0E00               	movlw	0
  4060  000ECE  2365               	addwfc	(___flmul@grs+3)& (0+255),f,b
  4061  000ED0                     
  4062                           ; BSR set to: 0
  4063  000ED0  502A               	movf	(___flmul@a+1)^0,w,c
  4064  000ED2  0225               	mulwf	___flmul@b^0,c
  4065  000ED4  CFF3 F06B          	movff	prodl,___flmul@temp
  4066  000ED8  CFF4 F06C          	movff	prodh,___flmul@temp+1
  4067  000EDC                     
  4068                           ; BSR set to: 0
  4069  000EDC  516B               	movf	___flmul@temp& (0+255),w,b
  4070  000EDE  2762               	addwf	___flmul@grs& (0+255),f,b
  4071  000EE0  516C               	movf	(___flmul@temp+1)& (0+255),w,b
  4072  000EE2  2363               	addwfc	(___flmul@grs+1)& (0+255),f,b
  4073  000EE4  0E00               	movlw	0
  4074  000EE6  2364               	addwfc	(___flmul@grs+2)& (0+255),f,b
  4075  000EE8  0E00               	movlw	0
  4076  000EEA  2365               	addwfc	(___flmul@grs+3)& (0+255),f,b
  4077  000EEC                     
  4078                           ; BSR set to: 0
  4079  000EEC  C064  F065         	movff	___flmul@grs+2,___flmul@grs+3
  4080  000EF0  C063  F064         	movff	___flmul@grs+1,___flmul@grs+2
  4081  000EF4  C062  F063         	movff	___flmul@grs,___flmul@grs+1
  4082  000EF8  6B62               	clrf	___flmul@grs& (0+255),b
  4083  000EFA  5029               	movf	___flmul@a^0,w,c
  4084  000EFC  0225               	mulwf	___flmul@b^0,c
  4085  000EFE  CFF3 F06B          	movff	prodl,___flmul@temp
  4086  000F02  CFF4 F06C          	movff	prodh,___flmul@temp+1
  4087  000F06                     
  4088                           ; BSR set to: 0
  4089  000F06  516B               	movf	___flmul@temp& (0+255),w,b
  4090  000F08  2762               	addwf	___flmul@grs& (0+255),f,b
  4091  000F0A  516C               	movf	(___flmul@temp+1)& (0+255),w,b
  4092  000F0C  2363               	addwfc	(___flmul@grs+1)& (0+255),f,b
  4093  000F0E  0E00               	movlw	0
  4094  000F10  2364               	addwfc	(___flmul@grs+2)& (0+255),f,b
  4095  000F12  0E00               	movlw	0
  4096  000F14  2365               	addwfc	(___flmul@grs+3)& (0+255),f,b
  4097  000F16                     
  4098                           ; BSR set to: 0
  4099  000F16  502B               	movf	(___flmul@a+2)^0,w,c
  4100  000F18  0226               	mulwf	(___flmul@b+1)^0,c
  4101  000F1A  CFF3 F06B          	movff	prodl,___flmul@temp
  4102  000F1E  CFF4 F06C          	movff	prodh,___flmul@temp+1
  4103  000F22  516B               	movf	___flmul@temp& (0+255),w,b
  4104  000F24  2767               	addwf	___flmul@prod& (0+255),f,b
  4105  000F26  516C               	movf	(___flmul@temp+1)& (0+255),w,b
  4106  000F28  2368               	addwfc	(___flmul@prod+1)& (0+255),f,b
  4107  000F2A  0E00               	movlw	0
  4108  000F2C  2369               	addwfc	(___flmul@prod+2)& (0+255),f,b
  4109  000F2E  0E00               	movlw	0
  4110  000F30  236A               	addwfc	(___flmul@prod+3)& (0+255),f,b
  4111  000F32                     
  4112                           ; BSR set to: 0
  4113  000F32  502A               	movf	(___flmul@a+1)^0,w,c
  4114  000F34  0227               	mulwf	(___flmul@b+2)^0,c
  4115  000F36  CFF3 F06B          	movff	prodl,___flmul@temp
  4116  000F3A  CFF4 F06C          	movff	prodh,___flmul@temp+1
  4117  000F3E                     
  4118                           ; BSR set to: 0
  4119  000F3E  516B               	movf	___flmul@temp& (0+255),w,b
  4120  000F40  2767               	addwf	___flmul@prod& (0+255),f,b
  4121  000F42  516C               	movf	(___flmul@temp+1)& (0+255),w,b
  4122  000F44  2368               	addwfc	(___flmul@prod+1)& (0+255),f,b
  4123  000F46  0E00               	movlw	0
  4124  000F48  2369               	addwfc	(___flmul@prod+2)& (0+255),f,b
  4125  000F4A  0E00               	movlw	0
  4126  000F4C  236A               	addwfc	(___flmul@prod+3)& (0+255),f,b
  4127  000F4E  502B               	movf	(___flmul@a+2)^0,w,c
  4128  000F50  0227               	mulwf	(___flmul@b+2)^0,c
  4129  000F52  CFF3 F06B          	movff	prodl,___flmul@temp
  4130  000F56  CFF4 F06C          	movff	prodh,___flmul@temp+1
  4131  000F5A                     
  4132                           ; BSR set to: 0
  4133  000F5A  516B               	movf	___flmul@temp& (0+255),w,b
  4134  000F5C  6E2D               	movwf	??___flmul^0,c
  4135  000F5E  516C               	movf	(___flmul@temp+1)& (0+255),w,b
  4136  000F60  6E2E               	movwf	(??___flmul+1)^0,c
  4137  000F62  6A2F               	clrf	(??___flmul+2)^0,c
  4138  000F64  6A30               	clrf	(??___flmul+3)^0,c
  4139  000F66  C02F  F030         	movff	??___flmul+2,??___flmul+3
  4140  000F6A  C02E  F02F         	movff	??___flmul+1,??___flmul+2
  4141  000F6E  C02D  F02E         	movff	??___flmul,??___flmul+1
  4142  000F72  6A2D               	clrf	??___flmul^0,c
  4143  000F74  502D               	movf	??___flmul^0,w,c
  4144  000F76  2767               	addwf	___flmul@prod& (0+255),f,b
  4145  000F78  502E               	movf	(??___flmul+1)^0,w,c
  4146  000F7A  2368               	addwfc	(___flmul@prod+1)& (0+255),f,b
  4147  000F7C  502F               	movf	(??___flmul+2)^0,w,c
  4148  000F7E  2369               	addwfc	(___flmul@prod+2)& (0+255),f,b
  4149  000F80  5030               	movf	(??___flmul+3)^0,w,c
  4150  000F82  236A               	addwfc	(___flmul@prod+3)& (0+255),f,b
  4151  000F84                     
  4152                           ; BSR set to: 0
  4153  000F84  C062  F02D         	movff	___flmul@grs,??___flmul
  4154  000F88  C063  F02E         	movff	___flmul@grs+1,??___flmul+1
  4155  000F8C  C064  F02F         	movff	___flmul@grs+2,??___flmul+2
  4156  000F90  C065  F030         	movff	___flmul@grs+3,??___flmul+3
  4157  000F94  0E19               	movlw	25
  4158  000F96  EFD2  F007         	goto	u3650
  4159  000F9A                     u3655:
  4160  000F9A  90D8               	bcf	status,0,c
  4161  000F9C  3230               	rrcf	(??___flmul+3)^0,f,c
  4162  000F9E  322F               	rrcf	(??___flmul+2)^0,f,c
  4163  000FA0  322E               	rrcf	(??___flmul+1)^0,f,c
  4164  000FA2  322D               	rrcf	??___flmul^0,f,c
  4165  000FA4                     u3650:
  4166  000FA4  2EE8               	decfsz	wreg,f,c
  4167  000FA6  EFCD  F007         	goto	u3655
  4168  000FAA  502D               	movf	??___flmul^0,w,c
  4169  000FAC  2767               	addwf	___flmul@prod& (0+255),f,b
  4170  000FAE  502E               	movf	(??___flmul+1)^0,w,c
  4171  000FB0  2368               	addwfc	(___flmul@prod+1)& (0+255),f,b
  4172  000FB2  502F               	movf	(??___flmul+2)^0,w,c
  4173  000FB4  2369               	addwfc	(___flmul@prod+2)& (0+255),f,b
  4174  000FB6  5030               	movf	(??___flmul+3)^0,w,c
  4175  000FB8  236A               	addwfc	(___flmul@prod+3)& (0+255),f,b
  4176  000FBA                     
  4177                           ; BSR set to: 0
  4178  000FBA  C064  F065         	movff	___flmul@grs+2,___flmul@grs+3
  4179  000FBE  C063  F064         	movff	___flmul@grs+1,___flmul@grs+2
  4180  000FC2  C062  F063         	movff	___flmul@grs,___flmul@grs+1
  4181  000FC6  6B62               	clrf	___flmul@grs& (0+255),b
  4182  000FC8                     
  4183                           ; BSR set to: 0
  4184  000FC8  5161               	movf	___flmul@aexp& (0+255),w,b
  4185  000FCA  C066  F02D         	movff	___flmul@bexp,??___flmul
  4186  000FCE  6A2E               	clrf	(??___flmul+1)^0,c
  4187  000FD0  262D               	addwf	??___flmul^0,f,c
  4188  000FD2  0E00               	movlw	0
  4189  000FD4  222E               	addwfc	(??___flmul+1)^0,f,c
  4190  000FD6  0E82               	movlw	130
  4191  000FD8  242D               	addwf	??___flmul^0,w,c
  4192  000FDA  6F6B               	movwf	___flmul@temp& (0+255),b
  4193  000FDC  0EFF               	movlw	255
  4194  000FDE  202E               	addwfc	(??___flmul+1)^0,w,c
  4195  000FE0  6F6C               	movwf	(___flmul@temp+1)& (0+255),b
  4196  000FE2  EF08  F008         	goto	l3423
  4197  000FE6                     l3417:
  4198                           
  4199                           ; BSR set to: 0
  4200  000FE6  90D8               	bcf	status,0,c
  4201  000FE8  3767               	rlcf	___flmul@prod& (0+255),f,b
  4202  000FEA  3768               	rlcf	(___flmul@prod+1)& (0+255),f,b
  4203  000FEC  3769               	rlcf	(___flmul@prod+2)& (0+255),f,b
  4204  000FEE  376A               	rlcf	(___flmul@prod+3)& (0+255),f,b
  4205  000FF0                     
  4206                           ; BSR set to: 0
  4207  000FF0  AF65               	btfss	(___flmul@grs+3)& (0+255),7,b
  4208  000FF2  EFFD  F007         	goto	u3661
  4209  000FF6  EFFF  F007         	goto	u3660
  4210  000FFA                     u3661:
  4211  000FFA  EF00  F008         	goto	l770
  4212  000FFE                     u3660:
  4213  000FFE                     
  4214                           ; BSR set to: 0
  4215  000FFE  8167               	bsf	___flmul@prod& (0+255),0,b
  4216  001000                     l770:
  4217                           
  4218                           ; BSR set to: 0
  4219  001000  90D8               	bcf	status,0,c
  4220  001002  3762               	rlcf	___flmul@grs& (0+255),f,b
  4221  001004  3763               	rlcf	(___flmul@grs+1)& (0+255),f,b
  4222  001006  3764               	rlcf	(___flmul@grs+2)& (0+255),f,b
  4223  001008  3765               	rlcf	(___flmul@grs+3)& (0+255),f,b
  4224  00100A  076B               	decf	___flmul@temp& (0+255),f,b
  4225  00100C  A0D8               	btfss	status,0,c
  4226  00100E  076C               	decf	(___flmul@temp+1)& (0+255),f,b
  4227  001010                     l3423:
  4228                           
  4229                           ; BSR set to: 0
  4230  001010  AF69               	btfss	(___flmul@prod+2)& (0+255),7,b
  4231  001012  EF0D  F008         	goto	u3671
  4232  001016  EF0F  F008         	goto	u3670
  4233  00101A                     u3671:
  4234  00101A  EFF3  F007         	goto	l3417
  4235  00101E                     u3670:
  4236  00101E                     
  4237                           ; BSR set to: 0
  4238  00101E  0E00               	movlw	0
  4239  001020  6F61               	movwf	___flmul@aexp& (0+255),b
  4240  001022                     
  4241                           ; BSR set to: 0
  4242  001022  AF65               	btfss	(___flmul@grs+3)& (0+255),7,b
  4243  001024  EF16  F008         	goto	u3681
  4244  001028  EF18  F008         	goto	u3680
  4245  00102C                     u3681:
  4246  00102C  EF3C  F008         	goto	l772
  4247  001030                     u3680:
  4248  001030                     
  4249                           ; BSR set to: 0
  4250  001030  0EFF               	movlw	255
  4251  001032  1562               	andwf	___flmul@grs& (0+255),w,b
  4252  001034  6E2D               	movwf	??___flmul^0,c
  4253  001036  0EFF               	movlw	255
  4254  001038  1563               	andwf	(___flmul@grs+1)& (0+255),w,b
  4255  00103A  6E2E               	movwf	(??___flmul+1)^0,c
  4256  00103C  0EFF               	movlw	255
  4257  00103E  1564               	andwf	(___flmul@grs+2)& (0+255),w,b
  4258  001040  6E2F               	movwf	(??___flmul+2)^0,c
  4259  001042  0E7F               	movlw	127
  4260  001044  1565               	andwf	(___flmul@grs+3)& (0+255),w,b
  4261  001046  6E30               	movwf	(??___flmul+3)^0,c
  4262  001048  502D               	movf	??___flmul^0,w,c
  4263  00104A  102E               	iorwf	(??___flmul+1)^0,w,c
  4264  00104C  102F               	iorwf	(??___flmul+2)^0,w,c
  4265  00104E  1030               	iorwf	(??___flmul+3)^0,w,c
  4266  001050  B4D8               	btfsc	status,2,c
  4267  001052  EF2D  F008         	goto	u3691
  4268  001056  EF2F  F008         	goto	u3690
  4269  00105A                     u3691:
  4270  00105A  EF33  F008         	goto	l773
  4271  00105E                     u3690:
  4272  00105E                     l3431:
  4273                           
  4274                           ; BSR set to: 0
  4275  00105E  0E01               	movlw	1
  4276  001060  6F61               	movwf	___flmul@aexp& (0+255),b
  4277  001062  EF3C  F008         	goto	l772
  4278  001066                     l773:
  4279                           
  4280                           ; BSR set to: 0
  4281  001066  A167               	btfss	___flmul@prod& (0+255),0,b
  4282  001068  EF38  F008         	goto	u3701
  4283  00106C  EF3A  F008         	goto	u3700
  4284  001070                     u3701:
  4285  001070  EF3C  F008         	goto	l772
  4286  001074                     u3700:
  4287  001074  EF2F  F008         	goto	l3431
  4288  001078                     l772:
  4289                           
  4290                           ; BSR set to: 0
  4291  001078  5161               	movf	___flmul@aexp& (0+255),w,b
  4292  00107A  B4D8               	btfsc	status,2,c
  4293  00107C  EF42  F008         	goto	u3711
  4294  001080  EF44  F008         	goto	u3710
  4295  001084                     u3711:
  4296  001084  EF68  F008         	goto	l3443
  4297  001088                     u3710:
  4298  001088                     
  4299                           ; BSR set to: 0
  4300  001088  0E01               	movlw	1
  4301  00108A  2767               	addwf	___flmul@prod& (0+255),f,b
  4302  00108C  0E00               	movlw	0
  4303  00108E  2368               	addwfc	(___flmul@prod+1)& (0+255),f,b
  4304  001090  2369               	addwfc	(___flmul@prod+2)& (0+255),f,b
  4305  001092  236A               	addwfc	(___flmul@prod+3)& (0+255),f,b
  4306  001094                     
  4307                           ; BSR set to: 0
  4308  001094  A16A               	btfss	(___flmul@prod+3)& (0+255),0,b
  4309  001096  EF4F  F008         	goto	u3721
  4310  00109A  EF51  F008         	goto	u3720
  4311  00109E                     u3721:
  4312  00109E  EF68  F008         	goto	l3443
  4313  0010A2                     u3720:
  4314  0010A2                     
  4315                           ; BSR set to: 0
  4316  0010A2  C067  F02D         	movff	___flmul@prod,??___flmul
  4317  0010A6  C068  F02E         	movff	___flmul@prod+1,??___flmul+1
  4318  0010AA  C069  F02F         	movff	___flmul@prod+2,??___flmul+2
  4319  0010AE  C06A  F030         	movff	___flmul@prod+3,??___flmul+3
  4320  0010B2  3430               	rlcf	(??___flmul+3)^0,w,c
  4321  0010B4  3230               	rrcf	(??___flmul+3)^0,f,c
  4322  0010B6  322F               	rrcf	(??___flmul+2)^0,f,c
  4323  0010B8  322E               	rrcf	(??___flmul+1)^0,f,c
  4324  0010BA  322D               	rrcf	??___flmul^0,f,c
  4325  0010BC  C02D  F067         	movff	??___flmul,___flmul@prod
  4326  0010C0  C02E  F068         	movff	??___flmul+1,___flmul@prod+1
  4327  0010C4  C02F  F069         	movff	??___flmul+2,___flmul@prod+2
  4328  0010C8  C030  F06A         	movff	??___flmul+3,___flmul@prod+3
  4329  0010CC                     
  4330                           ; BSR set to: 0
  4331  0010CC  4B6B               	infsnz	___flmul@temp& (0+255),f,b
  4332  0010CE  2B6C               	incf	(___flmul@temp+1)& (0+255),f,b
  4333  0010D0                     l3443:
  4334                           
  4335                           ; BSR set to: 0
  4336  0010D0  BF6C               	btfsc	(___flmul@temp+1)& (0+255),7,b
  4337  0010D2  EF73  F008         	goto	u3731
  4338  0010D6  516C               	movf	(___flmul@temp+1)& (0+255),w,b
  4339  0010D8  E108               	bnz	u3730
  4340  0010DA  296B               	incf	___flmul@temp& (0+255),w,b
  4341  0010DC  A0D8               	btfss	status,0,c
  4342  0010DE  EF73  F008         	goto	u3731
  4343  0010E2  EF75  F008         	goto	u3730
  4344  0010E6                     u3731:
  4345  0010E6  EF7F  F008         	goto	l3447
  4346  0010EA                     u3730:
  4347  0010EA                     
  4348                           ; BSR set to: 0
  4349  0010EA  0E00               	movlw	0
  4350  0010EC  6F67               	movwf	___flmul@prod& (0+255),b
  4351  0010EE  0E00               	movlw	0
  4352  0010F0  6F68               	movwf	(___flmul@prod+1)& (0+255),b
  4353  0010F2  0E80               	movlw	128
  4354  0010F4  6F69               	movwf	(___flmul@prod+2)& (0+255),b
  4355  0010F6  0E7F               	movlw	127
  4356  0010F8  6F6A               	movwf	(___flmul@prod+3)& (0+255),b
  4357  0010FA  EFAD  F008         	goto	l3459
  4358  0010FE                     l3447:
  4359                           
  4360                           ; BSR set to: 0
  4361  0010FE  BF6C               	btfsc	(___flmul@temp+1)& (0+255),7,b
  4362  001100  EF8C  F008         	goto	u3740
  4363  001104  516C               	movf	(___flmul@temp+1)& (0+255),w,b
  4364  001106  E106               	bnz	u3741
  4365  001108  056B               	decf	___flmul@temp& (0+255),w,b
  4366  00110A  B0D8               	btfsc	status,0,c
  4367  00110C  EF8A  F008         	goto	u3741
  4368  001110  EF8C  F008         	goto	u3740
  4369  001114                     u3741:
  4370  001114  EF98  F008         	goto	l780
  4371  001118                     u3740:
  4372  001118                     
  4373                           ; BSR set to: 0
  4374  001118  0E00               	movlw	0
  4375  00111A  6F67               	movwf	___flmul@prod& (0+255),b
  4376  00111C  0E00               	movlw	0
  4377  00111E  6F68               	movwf	(___flmul@prod+1)& (0+255),b
  4378  001120  0E00               	movlw	0
  4379  001122  6F69               	movwf	(___flmul@prod+2)& (0+255),b
  4380  001124  0E00               	movlw	0
  4381  001126  6F6A               	movwf	(___flmul@prod+3)& (0+255),b
  4382  001128  0E00               	movlw	0
  4383  00112A  6F60               	movwf	___flmul@sign& (0+255),b
  4384  00112C  EFAD  F008         	goto	l3459
  4385  001130                     l780:
  4386                           
  4387                           ; BSR set to: 0
  4388  001130  C06B  F066         	movff	___flmul@temp,___flmul@bexp
  4389  001134                     
  4390                           ; BSR set to: 0
  4391  001134  0EFF               	movlw	255
  4392  001136  1767               	andwf	___flmul@prod& (0+255),f,b
  4393  001138  0EFF               	movlw	255
  4394  00113A  1768               	andwf	(___flmul@prod+1)& (0+255),f,b
  4395  00113C  0E7F               	movlw	127
  4396  00113E  1769               	andwf	(___flmul@prod+2)& (0+255),f,b
  4397  001140  0E00               	movlw	0
  4398  001142  176A               	andwf	(___flmul@prod+3)& (0+255),f,b
  4399  001144                     
  4400                           ; BSR set to: 0
  4401  001144  A166               	btfss	___flmul@bexp& (0+255),0,b
  4402  001146  EFA7  F008         	goto	u3751
  4403  00114A  EFA9  F008         	goto	u3750
  4404  00114E                     u3751:
  4405  00114E  EFAA  F008         	goto	l3457
  4406  001152                     u3750:
  4407  001152                     
  4408                           ; BSR set to: 0
  4409  001152  8F69               	bsf	(___flmul@prod+2)& (0+255),7,b
  4410  001154                     l3457:
  4411                           
  4412                           ; BSR set to: 0
  4413  001154  90D8               	bcf	status,0,c
  4414  001156  3166               	rrcf	___flmul@bexp& (0+255),w,b
  4415  001158  6F6A               	movwf	(___flmul@prod+3)& (0+255),b
  4416  00115A                     l3459:
  4417                           
  4418                           ; BSR set to: 0
  4419  00115A  5160               	movf	___flmul@sign& (0+255),w,b
  4420  00115C  136A               	iorwf	(___flmul@prod+3)& (0+255),f,b
  4421  00115E                     
  4422                           ; BSR set to: 0
  4423  00115E  C067  F025         	movff	___flmul@prod,?___flmul
  4424  001162  C068  F026         	movff	___flmul@prod+1,?___flmul+1
  4425  001166  C069  F027         	movff	___flmul@prod+2,?___flmul+2
  4426  00116A  C06A  F028         	movff	___flmul@prod+3,?___flmul+3
  4427  00116E                     l767:
  4428                           
  4429                           ; BSR set to: 0
  4430  00116E  0012               	return		;funcret
  4431  001170                     __end_of___flmul:
  4432                           	callstack 0
  4433                           
  4434 ;; *************** function ___flge *****************
  4435 ;; Defined at:
  4436 ;;		line 4 in file "C:\Program Files\Microchip\xc8\v2.32\pic\sources\c99\common\flge.c"
  4437 ;; Parameters:    Size  Location     Type
  4438 ;;  ff1             4   22[COMRAM] unsigned char 
  4439 ;;  ff2             4   26[COMRAM] unsigned char 
  4440 ;; Auto vars:     Size  Location     Type
  4441 ;;		None
  4442 ;; Return value:  Size  Location     Type
  4443 ;;		None               void
  4444 ;; Registers used:
  4445 ;;		wreg, status,2, status,0
  4446 ;; Tracked objects:
  4447 ;;		On entry : 0/0
  4448 ;;		On exit  : 0/0
  4449 ;;		Unchanged: 0/0
  4450 ;; Data sizes:     COMRAM   BANK0   BANK1   BANK2   BANK3   BANK4   BANK5   BANK6   BANK7
  4451 ;;      Params:         8       0       0       0       0       0       0       0       0
  4452 ;;      Locals:         0       0       0       0       0       0       0       0       0
  4453 ;;      Temps:          4       0       0       0       0       0       0       0       0
  4454 ;;      Totals:        12       0       0       0       0       0       0       0       0
  4455 ;;Total ram usage:       12 bytes
  4456 ;; Hardware stack levels used: 1
  4457 ;; Hardware stack levels required when called: 4
  4458 ;; This function calls:
  4459 ;;		Nothing
  4460 ;; This function is called by:
  4461 ;;		_LCD_printFloatNumber
  4462 ;;		_main
  4463 ;; This function uses a non-reentrant model
  4464 ;;
  4465                           
  4466                           	psect	text21
  4467  001E6A                     __ptext21:
  4468                           	callstack 0
  4469  001E6A                     ___flge:
  4470                           	callstack 26
  4471  001E6A  0E00               	movlw	0
  4472  001E6C  1417               	andwf	___flge@ff1^0,w,c
  4473  001E6E  6E1F               	movwf	??___flge^0,c
  4474  001E70  0E00               	movlw	0
  4475  001E72  1418               	andwf	(___flge@ff1+1)^0,w,c
  4476  001E74  6E20               	movwf	(??___flge+1)^0,c
  4477  001E76  0E80               	movlw	128
  4478  001E78  1419               	andwf	(___flge@ff1+2)^0,w,c
  4479  001E7A  6E21               	movwf	(??___flge+2)^0,c
  4480  001E7C  0E7F               	movlw	127
  4481  001E7E  141A               	andwf	(___flge@ff1+3)^0,w,c
  4482  001E80  6E22               	movwf	(??___flge+3)^0,c
  4483  001E82  501F               	movf	??___flge^0,w,c
  4484  001E84  1020               	iorwf	(??___flge+1)^0,w,c
  4485  001E86  1021               	iorwf	(??___flge+2)^0,w,c
  4486  001E88  1022               	iorwf	(??___flge+3)^0,w,c
  4487  001E8A  A4D8               	btfss	status,2,c
  4488  001E8C  EF4A  F00F         	goto	u3761
  4489  001E90  EF4C  F00F         	goto	u3760
  4490  001E94                     u3761:
  4491  001E94  EF54  F00F         	goto	l3475
  4492  001E98                     u3760:
  4493  001E98  0E00               	movlw	0
  4494  001E9A  6E17               	movwf	___flge@ff1^0,c
  4495  001E9C  0E00               	movlw	0
  4496  001E9E  6E18               	movwf	(___flge@ff1+1)^0,c
  4497  001EA0  0E00               	movlw	0
  4498  001EA2  6E19               	movwf	(___flge@ff1+2)^0,c
  4499  001EA4  0E00               	movlw	0
  4500  001EA6  6E1A               	movwf	(___flge@ff1+3)^0,c
  4501  001EA8                     l3475:
  4502  001EA8  0E00               	movlw	0
  4503  001EAA  141B               	andwf	___flge@ff2^0,w,c
  4504  001EAC  6E1F               	movwf	??___flge^0,c
  4505  001EAE  0E00               	movlw	0
  4506  001EB0  141C               	andwf	(___flge@ff2+1)^0,w,c
  4507  001EB2  6E20               	movwf	(??___flge+1)^0,c
  4508  001EB4  0E80               	movlw	128
  4509  001EB6  141D               	andwf	(___flge@ff2+2)^0,w,c
  4510  001EB8  6E21               	movwf	(??___flge+2)^0,c
  4511  001EBA  0E7F               	movlw	127
  4512  001EBC  141E               	andwf	(___flge@ff2+3)^0,w,c
  4513  001EBE  6E22               	movwf	(??___flge+3)^0,c
  4514  001EC0  501F               	movf	??___flge^0,w,c
  4515  001EC2  1020               	iorwf	(??___flge+1)^0,w,c
  4516  001EC4  1021               	iorwf	(??___flge+2)^0,w,c
  4517  001EC6  1022               	iorwf	(??___flge+3)^0,w,c
  4518  001EC8  A4D8               	btfss	status,2,c
  4519  001ECA  EF69  F00F         	goto	u3771
  4520  001ECE  EF6B  F00F         	goto	u3770
  4521  001ED2                     u3771:
  4522  001ED2  EF73  F00F         	goto	l3479
  4523  001ED6                     u3770:
  4524  001ED6  0E00               	movlw	0
  4525  001ED8  6E1B               	movwf	___flge@ff2^0,c
  4526  001EDA  0E00               	movlw	0
  4527  001EDC  6E1C               	movwf	(___flge@ff2+1)^0,c
  4528  001EDE  0E00               	movlw	0
  4529  001EE0  6E1D               	movwf	(___flge@ff2+2)^0,c
  4530  001EE2  0E00               	movlw	0
  4531  001EE4  6E1E               	movwf	(___flge@ff2+3)^0,c
  4532  001EE6                     l3479:
  4533  001EE6  AE1A               	btfss	(___flge@ff1+3)^0,7,c
  4534  001EE8  EF78  F00F         	goto	u3781
  4535  001EEC  EF7A  F00F         	goto	u3780
  4536  001EF0                     u3781:
  4537  001EF0  EF83  F00F         	goto	l3483
  4538  001EF4                     u3780:
  4539  001EF4  6C17               	negf	___flge@ff1^0,c
  4540  001EF6  1E18               	comf	(___flge@ff1+1)^0,f,c
  4541  001EF8  B0D8               	btfsc	status,0,c
  4542  001EFA  2A18               	incf	(___flge@ff1+1)^0,f,c
  4543  001EFC  1E19               	comf	(___flge@ff1+2)^0,f,c
  4544  001EFE  B0D8               	btfsc	status,0,c
  4545  001F00  2A19               	incf	(___flge@ff1+2)^0,f,c
  4546  001F02  0E80               	movlw	128
  4547  001F04  561A               	subfwb	(___flge@ff1+3)^0,f,c
  4548  001F06                     l3483:
  4549  001F06  AE1E               	btfss	(___flge@ff2+3)^0,7,c
  4550  001F08  EF88  F00F         	goto	u3791
  4551  001F0C  EF8A  F00F         	goto	u3790
  4552  001F10                     u3791:
  4553  001F10  EF93  F00F         	goto	l414
  4554  001F14                     u3790:
  4555  001F14  6C1B               	negf	___flge@ff2^0,c
  4556  001F16  1E1C               	comf	(___flge@ff2+1)^0,f,c
  4557  001F18  B0D8               	btfsc	status,0,c
  4558  001F1A  2A1C               	incf	(___flge@ff2+1)^0,f,c
  4559  001F1C  1E1D               	comf	(___flge@ff2+2)^0,f,c
  4560  001F1E  B0D8               	btfsc	status,0,c
  4561  001F20  2A1D               	incf	(___flge@ff2+2)^0,f,c
  4562  001F22  0E80               	movlw	128
  4563  001F24  561E               	subfwb	(___flge@ff2+3)^0,f,c
  4564  001F26                     l414:
  4565  001F26  0E00               	movlw	0
  4566  001F28  1A17               	xorwf	___flge@ff1^0,f,c
  4567  001F2A  0E00               	movlw	0
  4568  001F2C  1A18               	xorwf	(___flge@ff1+1)^0,f,c
  4569  001F2E  0E00               	movlw	0
  4570  001F30  1A19               	xorwf	(___flge@ff1+2)^0,f,c
  4571  001F32  0E80               	movlw	128
  4572  001F34  1A1A               	xorwf	(___flge@ff1+3)^0,f,c
  4573  001F36  0E00               	movlw	0
  4574  001F38  1A1B               	xorwf	___flge@ff2^0,f,c
  4575  001F3A  0E00               	movlw	0
  4576  001F3C  1A1C               	xorwf	(___flge@ff2+1)^0,f,c
  4577  001F3E  0E00               	movlw	0
  4578  001F40  1A1D               	xorwf	(___flge@ff2+2)^0,f,c
  4579  001F42  0E80               	movlw	128
  4580  001F44  1A1E               	xorwf	(___flge@ff2+3)^0,f,c
  4581  001F46  501B               	movf	___flge@ff2^0,w,c
  4582  001F48  5C17               	subwf	___flge@ff1^0,w,c
  4583  001F4A  501C               	movf	(___flge@ff2+1)^0,w,c
  4584  001F4C  5818               	subwfb	(___flge@ff1+1)^0,w,c
  4585  001F4E  501D               	movf	(___flge@ff2+2)^0,w,c
  4586  001F50  5819               	subwfb	(___flge@ff1+2)^0,w,c
  4587  001F52  501E               	movf	(___flge@ff2+3)^0,w,c
  4588  001F54  581A               	subwfb	(___flge@ff1+3)^0,w,c
  4589  001F56  B0D8               	btfsc	status,0,c
  4590  001F58  EFB0  F00F         	goto	u3801
  4591  001F5C  EFB2  F00F         	goto	u3800
  4592  001F60                     u3801:
  4593  001F60  EFB5  F00F         	goto	l3489
  4594  001F64                     u3800:
  4595  001F64  90D8               	bcf	status,0,c
  4596  001F66  EFB6  F00F         	goto	l419
  4597  001F6A                     l3489:
  4598  001F6A  80D8               	bsf	status,0,c
  4599  001F6C                     l419:
  4600  001F6C  0012               	return		;funcret
  4601  001F6E                     __end_of___flge:
  4602                           	callstack 0
  4603                           
  4604 ;; *************** function ___fldiv *****************
  4605 ;; Defined at:
  4606 ;;		line 11 in file "C:\Program Files\Microchip\xc8\v2.32\pic\sources\c99\common\sprcdiv.c"
  4607 ;; Parameters:    Size  Location     Type
  4608 ;;  b               4   48[COMRAM] unsigned char 
  4609 ;;  a               4   52[COMRAM] unsigned char 
  4610 ;; Auto vars:     Size  Location     Type
  4611 ;;  grs             4   20[BANK0 ] unsigned long 
  4612 ;;  rem             4   13[BANK0 ] unsigned long 
  4613 ;;  new_exp         2   18[BANK0 ] short 
  4614 ;;  aexp            1   25[BANK0 ] unsigned char 
  4615 ;;  bexp            1   24[BANK0 ] unsigned char 
  4616 ;;  sign            1   17[BANK0 ] unsigned char 
  4617 ;; Return value:  Size  Location     Type
  4618 ;;                  4   48[COMRAM] unsigned char 
  4619 ;; Registers used:
  4620 ;;		wreg, status,2, status,0
  4621 ;; Tracked objects:
  4622 ;;		On entry : 0/0
  4623 ;;		On exit  : 0/0
  4624 ;;		Unchanged: 0/0
  4625 ;; Data sizes:     COMRAM   BANK0   BANK1   BANK2   BANK3   BANK4   BANK5   BANK6   BANK7
  4626 ;;      Params:         8       0       0       0       0       0       0       0       0
  4627 ;;      Locals:         0      13       0       0       0       0       0       0       0
  4628 ;;      Temps:          4       0       0       0       0       0       0       0       0
  4629 ;;      Totals:        12      13       0       0       0       0       0       0       0
  4630 ;;Total ram usage:       25 bytes
  4631 ;; Hardware stack levels used: 1
  4632 ;; Hardware stack levels required when called: 4
  4633 ;; This function calls:
  4634 ;;		Nothing
  4635 ;; This function is called by:
  4636 ;;		_LCD_printFloatNumber
  4637 ;;		_main
  4638 ;; This function uses a non-reentrant model
  4639 ;;
  4640                           
  4641                           	psect	text22
  4642  001170                     __ptext22:
  4643                           	callstack 0
  4644  001170                     ___fldiv:
  4645                           	callstack 26
  4646  001170  5034               	movf	(___fldiv@b+3)^0,w,c
  4647  001172  0B80               	andlw	128
  4648  001174  0100               	movlb	0	; () banked
  4649  001176  6F71               	movwf	___fldiv@sign& (0+255),b
  4650  001178  5034               	movf	(___fldiv@b+3)^0,w,c
  4651  00117A  2434               	addwf	(___fldiv@b+3)^0,w,c
  4652  00117C  6F78               	movwf	___fldiv@bexp& (0+255),b
  4653  00117E                     
  4654                           ; BSR set to: 0
  4655  00117E  AE33               	btfss	(___fldiv@b+2)^0,7,c
  4656  001180  EFC4  F008         	goto	u3341
  4657  001184  EFC6  F008         	goto	u3340
  4658  001188                     u3341:
  4659  001188  EFC7  F008         	goto	l3203
  4660  00118C                     u3340:
  4661  00118C                     
  4662                           ; BSR set to: 0
  4663  00118C  8178               	bsf	___fldiv@bexp& (0+255),0,b
  4664  00118E                     l3203:
  4665                           
  4666                           ; BSR set to: 0
  4667  00118E  5178               	movf	___fldiv@bexp& (0+255),w,b
  4668  001190  B4D8               	btfsc	status,2,c
  4669  001192  EFCD  F008         	goto	u3351
  4670  001196  EFCF  F008         	goto	u3350
  4671  00119A                     u3351:
  4672  00119A  EFE4  F008         	goto	l3213
  4673  00119E                     u3350:
  4674  00119E                     
  4675                           ; BSR set to: 0
  4676  00119E  2978               	incf	___fldiv@bexp& (0+255),w,b
  4677  0011A0  A4D8               	btfss	status,2,c
  4678  0011A2  EFD5  F008         	goto	u3361
  4679  0011A6  EFD7  F008         	goto	u3360
  4680  0011AA                     u3361:
  4681  0011AA  EFDF  F008         	goto	l3209
  4682  0011AE                     u3360:
  4683  0011AE                     
  4684                           ; BSR set to: 0
  4685  0011AE  0E00               	movlw	0
  4686  0011B0  6E31               	movwf	___fldiv@b^0,c
  4687  0011B2  0E00               	movlw	0
  4688  0011B4  6E32               	movwf	(___fldiv@b+1)^0,c
  4689  0011B6  0E00               	movlw	0
  4690  0011B8  6E33               	movwf	(___fldiv@b+2)^0,c
  4691  0011BA  0E00               	movlw	0
  4692  0011BC  6E34               	movwf	(___fldiv@b+3)^0,c
  4693  0011BE                     l3209:
  4694                           
  4695                           ; BSR set to: 0
  4696  0011BE  8E33               	bsf	(___fldiv@b+2)^0,7,c
  4697  0011C0                     
  4698                           ; BSR set to: 0
  4699  0011C0  0E00               	movlw	0
  4700  0011C2  6E34               	movwf	(___fldiv@b+3)^0,c
  4701  0011C4  EFEC  F008         	goto	l3215
  4702  0011C8                     l3213:
  4703                           
  4704                           ; BSR set to: 0
  4705  0011C8  0E00               	movlw	0
  4706  0011CA  6E31               	movwf	___fldiv@b^0,c
  4707  0011CC  0E00               	movlw	0
  4708  0011CE  6E32               	movwf	(___fldiv@b+1)^0,c
  4709  0011D0  0E00               	movlw	0
  4710  0011D2  6E33               	movwf	(___fldiv@b+2)^0,c
  4711  0011D4  0E00               	movlw	0
  4712  0011D6  6E34               	movwf	(___fldiv@b+3)^0,c
  4713  0011D8                     l3215:
  4714                           
  4715                           ; BSR set to: 0
  4716  0011D8  5038               	movf	(___fldiv@a+3)^0,w,c
  4717  0011DA  0B80               	andlw	128
  4718  0011DC  1B71               	xorwf	___fldiv@sign& (0+255),f,b
  4719  0011DE                     
  4720                           ; BSR set to: 0
  4721  0011DE  5038               	movf	(___fldiv@a+3)^0,w,c
  4722  0011E0  2438               	addwf	(___fldiv@a+3)^0,w,c
  4723  0011E2  6F79               	movwf	___fldiv@aexp& (0+255),b
  4724  0011E4                     
  4725                           ; BSR set to: 0
  4726  0011E4  AE37               	btfss	(___fldiv@a+2)^0,7,c
  4727  0011E6  EFF7  F008         	goto	u3371
  4728  0011EA  EFF9  F008         	goto	u3370
  4729  0011EE                     u3371:
  4730  0011EE  EFFA  F008         	goto	l3223
  4731  0011F2                     u3370:
  4732  0011F2                     
  4733                           ; BSR set to: 0
  4734  0011F2  8179               	bsf	___fldiv@aexp& (0+255),0,b
  4735  0011F4                     l3223:
  4736                           
  4737                           ; BSR set to: 0
  4738  0011F4  5179               	movf	___fldiv@aexp& (0+255),w,b
  4739  0011F6  B4D8               	btfsc	status,2,c
  4740  0011F8  EF00  F009         	goto	u3381
  4741  0011FC  EF02  F009         	goto	u3380
  4742  001200                     u3381:
  4743  001200  EF17  F009         	goto	l3233
  4744  001204                     u3380:
  4745  001204                     
  4746                           ; BSR set to: 0
  4747  001204  2979               	incf	___fldiv@aexp& (0+255),w,b
  4748  001206  A4D8               	btfss	status,2,c
  4749  001208  EF08  F009         	goto	u3391
  4750  00120C  EF0A  F009         	goto	u3390
  4751  001210                     u3391:
  4752  001210  EF12  F009         	goto	l3229
  4753  001214                     u3390:
  4754  001214                     
  4755                           ; BSR set to: 0
  4756  001214  0E00               	movlw	0
  4757  001216  6E35               	movwf	___fldiv@a^0,c
  4758  001218  0E00               	movlw	0
  4759  00121A  6E36               	movwf	(___fldiv@a+1)^0,c
  4760  00121C  0E00               	movlw	0
  4761  00121E  6E37               	movwf	(___fldiv@a+2)^0,c
  4762  001220  0E00               	movlw	0
  4763  001222  6E38               	movwf	(___fldiv@a+3)^0,c
  4764  001224                     l3229:
  4765                           
  4766                           ; BSR set to: 0
  4767  001224  8E37               	bsf	(___fldiv@a+2)^0,7,c
  4768  001226                     
  4769                           ; BSR set to: 0
  4770  001226  0E00               	movlw	0
  4771  001228  6E38               	movwf	(___fldiv@a+3)^0,c
  4772  00122A  EF1F  F009         	goto	l3235
  4773  00122E                     l3233:
  4774                           
  4775                           ; BSR set to: 0
  4776  00122E  0E00               	movlw	0
  4777  001230  6E35               	movwf	___fldiv@a^0,c
  4778  001232  0E00               	movlw	0
  4779  001234  6E36               	movwf	(___fldiv@a+1)^0,c
  4780  001236  0E00               	movlw	0
  4781  001238  6E37               	movwf	(___fldiv@a+2)^0,c
  4782  00123A  0E00               	movlw	0
  4783  00123C  6E38               	movwf	(___fldiv@a+3)^0,c
  4784  00123E                     l3235:
  4785                           
  4786                           ; BSR set to: 0
  4787  00123E  5035               	movf	___fldiv@a^0,w,c
  4788  001240  1036               	iorwf	(___fldiv@a+1)^0,w,c
  4789  001242  1037               	iorwf	(___fldiv@a+2)^0,w,c
  4790  001244  1038               	iorwf	(___fldiv@a+3)^0,w,c
  4791  001246  A4D8               	btfss	status,2,c
  4792  001248  EF28  F009         	goto	u3401
  4793  00124C  EF2A  F009         	goto	u3400
  4794  001250                     u3401:
  4795  001250  EF42  F009         	goto	l3247
  4796  001254                     u3400:
  4797  001254                     
  4798                           ; BSR set to: 0
  4799  001254  0E00               	movlw	0
  4800  001256  6E31               	movwf	___fldiv@b^0,c
  4801  001258  0E00               	movlw	0
  4802  00125A  6E32               	movwf	(___fldiv@b+1)^0,c
  4803  00125C  0E00               	movlw	0
  4804  00125E  6E33               	movwf	(___fldiv@b+2)^0,c
  4805  001260  0E00               	movlw	0
  4806  001262  6E34               	movwf	(___fldiv@b+3)^0,c
  4807  001264                     
  4808                           ; BSR set to: 0
  4809  001264  0E80               	movlw	128
  4810  001266  1233               	iorwf	(___fldiv@b+2)^0,f,c
  4811  001268  0E7F               	movlw	127
  4812  00126A  1234               	iorwf	(___fldiv@b+3)^0,f,c
  4813  00126C                     l3241:
  4814                           
  4815                           ; BSR set to: 0
  4816  00126C  5171               	movf	___fldiv@sign& (0+255),w,b
  4817  00126E  1234               	iorwf	(___fldiv@b+3)^0,f,c
  4818  001270                     
  4819                           ; BSR set to: 0
  4820  001270  C031  F031         	movff	___fldiv@b,?___fldiv
  4821  001274  C032  F032         	movff	___fldiv@b+1,?___fldiv+1
  4822  001278  C033  F033         	movff	___fldiv@b+2,?___fldiv+2
  4823  00127C  C034  F034         	movff	___fldiv@b+3,?___fldiv+3
  4824  001280  EF85  F00A         	goto	l731
  4825  001284                     l3247:
  4826                           
  4827                           ; BSR set to: 0
  4828  001284  5178               	movf	___fldiv@bexp& (0+255),w,b
  4829  001286  A4D8               	btfss	status,2,c
  4830  001288  EF48  F009         	goto	u3411
  4831  00128C  EF4A  F009         	goto	u3410
  4832  001290                     u3411:
  4833  001290  EF54  F009         	goto	l3255
  4834  001294                     u3410:
  4835  001294                     
  4836                           ; BSR set to: 0
  4837  001294  0E00               	movlw	0
  4838  001296  6E31               	movwf	?___fldiv^0,c
  4839  001298  0E00               	movlw	0
  4840  00129A  6E32               	movwf	(?___fldiv+1)^0,c
  4841  00129C  0E00               	movlw	0
  4842  00129E  6E33               	movwf	(?___fldiv+2)^0,c
  4843  0012A0  0E00               	movlw	0
  4844  0012A2  6E34               	movwf	(?___fldiv+3)^0,c
  4845  0012A4  EF85  F00A         	goto	l731
  4846  0012A8                     l3255:
  4847                           
  4848                           ; BSR set to: 0
  4849  0012A8  5179               	movf	___fldiv@aexp& (0+255),w,b
  4850  0012AA  C078  F039         	movff	___fldiv@bexp,??___fldiv
  4851  0012AE  6A3A               	clrf	(??___fldiv+1)^0,c
  4852  0012B0  5E39               	subwf	??___fldiv^0,f,c
  4853  0012B2  0E00               	movlw	0
  4854  0012B4  5A3A               	subwfb	(??___fldiv+1)^0,f,c
  4855  0012B6  0E7F               	movlw	127
  4856  0012B8  2439               	addwf	??___fldiv^0,w,c
  4857  0012BA  6F72               	movwf	___fldiv@new_exp& (0+255),b
  4858  0012BC  0E00               	movlw	0
  4859  0012BE  203A               	addwfc	(??___fldiv+1)^0,w,c
  4860  0012C0  6F73               	movwf	(___fldiv@new_exp+1)& (0+255),b
  4861  0012C2                     
  4862                           ; BSR set to: 0
  4863  0012C2  C031  F06D         	movff	___fldiv@b,___fldiv@rem
  4864  0012C6  C032  F06E         	movff	___fldiv@b+1,___fldiv@rem+1
  4865  0012CA  C033  F06F         	movff	___fldiv@b+2,___fldiv@rem+2
  4866  0012CE  C034  F070         	movff	___fldiv@b+3,___fldiv@rem+3
  4867  0012D2                     
  4868                           ; BSR set to: 0
  4869  0012D2  0E00               	movlw	0
  4870  0012D4  6E31               	movwf	___fldiv@b^0,c
  4871  0012D6  0E00               	movlw	0
  4872  0012D8  6E32               	movwf	(___fldiv@b+1)^0,c
  4873  0012DA  0E00               	movlw	0
  4874  0012DC  6E33               	movwf	(___fldiv@b+2)^0,c
  4875  0012DE  0E00               	movlw	0
  4876  0012E0  6E34               	movwf	(___fldiv@b+3)^0,c
  4877  0012E2                     
  4878                           ; BSR set to: 0
  4879  0012E2  0E00               	movlw	0
  4880  0012E4  6F74               	movwf	___fldiv@grs& (0+255),b
  4881  0012E6  0E00               	movlw	0
  4882  0012E8  6F75               	movwf	(___fldiv@grs+1)& (0+255),b
  4883  0012EA  0E00               	movlw	0
  4884  0012EC  6F76               	movwf	(___fldiv@grs+2)& (0+255),b
  4885  0012EE  0E00               	movlw	0
  4886  0012F0  6F77               	movwf	(___fldiv@grs+3)& (0+255),b
  4887  0012F2                     
  4888                           ; BSR set to: 0
  4889  0012F2  0E00               	movlw	0
  4890  0012F4  6F79               	movwf	___fldiv@aexp& (0+255),b
  4891  0012F6  EFB5  F009         	goto	l733
  4892  0012FA                     l3265:
  4893                           
  4894                           ; BSR set to: 0
  4895  0012FA  5179               	movf	___fldiv@aexp& (0+255),w,b
  4896  0012FC  B4D8               	btfsc	status,2,c
  4897  0012FE  EF83  F009         	goto	u3421
  4898  001302  EF85  F009         	goto	u3420
  4899  001306                     u3421:
  4900  001306  EF9C  F009         	goto	l3273
  4901  00130A                     u3420:
  4902  00130A                     
  4903                           ; BSR set to: 0
  4904  00130A  90D8               	bcf	status,0,c
  4905  00130C  376D               	rlcf	___fldiv@rem& (0+255),f,b
  4906  00130E  376E               	rlcf	(___fldiv@rem+1)& (0+255),f,b
  4907  001310  376F               	rlcf	(___fldiv@rem+2)& (0+255),f,b
  4908  001312  3770               	rlcf	(___fldiv@rem+3)& (0+255),f,b
  4909  001314  90D8               	bcf	status,0,c
  4910  001316  3631               	rlcf	___fldiv@b^0,f,c
  4911  001318  3632               	rlcf	(___fldiv@b+1)^0,f,c
  4912  00131A  3633               	rlcf	(___fldiv@b+2)^0,f,c
  4913  00131C  3634               	rlcf	(___fldiv@b+3)^0,f,c
  4914  00131E                     
  4915                           ; BSR set to: 0
  4916  00131E  AF77               	btfss	(___fldiv@grs+3)& (0+255),7,b
  4917  001320  EF94  F009         	goto	u3431
  4918  001324  EF96  F009         	goto	u3430
  4919  001328                     u3431:
  4920  001328  EF97  F009         	goto	l736
  4921  00132C                     u3430:
  4922  00132C                     
  4923                           ; BSR set to: 0
  4924  00132C  8031               	bsf	___fldiv@b^0,0,c
  4925  00132E                     l736:
  4926                           
  4927                           ; BSR set to: 0
  4928  00132E  90D8               	bcf	status,0,c
  4929  001330  3774               	rlcf	___fldiv@grs& (0+255),f,b
  4930  001332  3775               	rlcf	(___fldiv@grs+1)& (0+255),f,b
  4931  001334  3776               	rlcf	(___fldiv@grs+2)& (0+255),f,b
  4932  001336  3777               	rlcf	(___fldiv@grs+3)& (0+255),f,b
  4933  001338                     l3273:
  4934                           
  4935                           ; BSR set to: 0
  4936  001338  5035               	movf	___fldiv@a^0,w,c
  4937  00133A  5D6D               	subwf	___fldiv@rem& (0+255),w,b
  4938  00133C  5036               	movf	(___fldiv@a+1)^0,w,c
  4939  00133E  596E               	subwfb	(___fldiv@rem+1)& (0+255),w,b
  4940  001340  5037               	movf	(___fldiv@a+2)^0,w,c
  4941  001342  596F               	subwfb	(___fldiv@rem+2)& (0+255),w,b
  4942  001344  5038               	movf	(___fldiv@a+3)^0,w,c
  4943  001346  5970               	subwfb	(___fldiv@rem+3)& (0+255),w,b
  4944  001348  A0D8               	btfss	status,0,c
  4945  00134A  EFA9  F009         	goto	u3441
  4946  00134E  EFAB  F009         	goto	u3440
  4947  001352                     u3441:
  4948  001352  EFB4  F009         	goto	l3279
  4949  001356                     u3440:
  4950  001356                     
  4951                           ; BSR set to: 0
  4952  001356  8D77               	bsf	(___fldiv@grs+3)& (0+255),6,b
  4953  001358                     
  4954                           ; BSR set to: 0
  4955  001358  5035               	movf	___fldiv@a^0,w,c
  4956  00135A  5F6D               	subwf	___fldiv@rem& (0+255),f,b
  4957  00135C  5036               	movf	(___fldiv@a+1)^0,w,c
  4958  00135E  5B6E               	subwfb	(___fldiv@rem+1)& (0+255),f,b
  4959  001360  5037               	movf	(___fldiv@a+2)^0,w,c
  4960  001362  5B6F               	subwfb	(___fldiv@rem+2)& (0+255),f,b
  4961  001364  5038               	movf	(___fldiv@a+3)^0,w,c
  4962  001366  5B70               	subwfb	(___fldiv@rem+3)& (0+255),f,b
  4963  001368                     l3279:
  4964                           
  4965                           ; BSR set to: 0
  4966  001368  2B79               	incf	___fldiv@aexp& (0+255),f,b
  4967  00136A                     l733:
  4968                           
  4969                           ; BSR set to: 0
  4970  00136A  0E19               	movlw	25
  4971  00136C  6579               	cpfsgt	___fldiv@aexp& (0+255),b
  4972  00136E  EFBB  F009         	goto	u3451
  4973  001372  EFBD  F009         	goto	u3450
  4974  001376                     u3451:
  4975  001376  EF7D  F009         	goto	l3265
  4976  00137A                     u3450:
  4977  00137A                     
  4978                           ; BSR set to: 0
  4979  00137A  516D               	movf	___fldiv@rem& (0+255),w,b
  4980  00137C  116E               	iorwf	(___fldiv@rem+1)& (0+255),w,b
  4981  00137E  116F               	iorwf	(___fldiv@rem+2)& (0+255),w,b
  4982  001380  1170               	iorwf	(___fldiv@rem+3)& (0+255),w,b
  4983  001382  B4D8               	btfsc	status,2,c
  4984  001384  EFC6  F009         	goto	u3461
  4985  001388  EFC8  F009         	goto	u3460
  4986  00138C                     u3461:
  4987  00138C  EFE0  F009         	goto	l3291
  4988  001390                     u3460:
  4989  001390                     
  4990                           ; BSR set to: 0
  4991  001390  8174               	bsf	___fldiv@grs& (0+255),0,b
  4992  001392  EFE0  F009         	goto	l3291
  4993  001396                     l3285:
  4994                           
  4995                           ; BSR set to: 0
  4996  001396  90D8               	bcf	status,0,c
  4997  001398  3631               	rlcf	___fldiv@b^0,f,c
  4998  00139A  3632               	rlcf	(___fldiv@b+1)^0,f,c
  4999  00139C  3633               	rlcf	(___fldiv@b+2)^0,f,c
  5000  00139E  3634               	rlcf	(___fldiv@b+3)^0,f,c
  5001  0013A0                     
  5002                           ; BSR set to: 0
  5003  0013A0  AF77               	btfss	(___fldiv@grs+3)& (0+255),7,b
  5004  0013A2  EFD5  F009         	goto	u3471
  5005  0013A6  EFD7  F009         	goto	u3470
  5006  0013AA                     u3471:
  5007  0013AA  EFD8  F009         	goto	l742
  5008  0013AE                     u3470:
  5009  0013AE                     
  5010                           ; BSR set to: 0
  5011  0013AE  8031               	bsf	___fldiv@b^0,0,c
  5012  0013B0                     l742:
  5013                           
  5014                           ; BSR set to: 0
  5015  0013B0  90D8               	bcf	status,0,c
  5016  0013B2  3774               	rlcf	___fldiv@grs& (0+255),f,b
  5017  0013B4  3775               	rlcf	(___fldiv@grs+1)& (0+255),f,b
  5018  0013B6  3776               	rlcf	(___fldiv@grs+2)& (0+255),f,b
  5019  0013B8  3777               	rlcf	(___fldiv@grs+3)& (0+255),f,b
  5020  0013BA  0772               	decf	___fldiv@new_exp& (0+255),f,b
  5021  0013BC  A0D8               	btfss	status,0,c
  5022  0013BE  0773               	decf	(___fldiv@new_exp+1)& (0+255),f,b
  5023  0013C0                     l3291:
  5024                           
  5025                           ; BSR set to: 0
  5026  0013C0  AE33               	btfss	(___fldiv@b+2)^0,7,c
  5027  0013C2  EFE5  F009         	goto	u3481
  5028  0013C6  EFE7  F009         	goto	u3480
  5029  0013CA                     u3481:
  5030  0013CA  EFCB  F009         	goto	l3285
  5031  0013CE                     u3480:
  5032  0013CE                     
  5033                           ; BSR set to: 0
  5034  0013CE  0E00               	movlw	0
  5035  0013D0  6F79               	movwf	___fldiv@aexp& (0+255),b
  5036  0013D2                     
  5037                           ; BSR set to: 0
  5038  0013D2  AF77               	btfss	(___fldiv@grs+3)& (0+255),7,b
  5039  0013D4  EFEE  F009         	goto	u3491
  5040  0013D8  EFF0  F009         	goto	u3490
  5041  0013DC                     u3491:
  5042  0013DC  EF14  F00A         	goto	l744
  5043  0013E0                     u3490:
  5044  0013E0                     
  5045                           ; BSR set to: 0
  5046  0013E0  0EFF               	movlw	255
  5047  0013E2  1574               	andwf	___fldiv@grs& (0+255),w,b
  5048  0013E4  6E39               	movwf	??___fldiv^0,c
  5049  0013E6  0EFF               	movlw	255
  5050  0013E8  1575               	andwf	(___fldiv@grs+1)& (0+255),w,b
  5051  0013EA  6E3A               	movwf	(??___fldiv+1)^0,c
  5052  0013EC  0EFF               	movlw	255
  5053  0013EE  1576               	andwf	(___fldiv@grs+2)& (0+255),w,b
  5054  0013F0  6E3B               	movwf	(??___fldiv+2)^0,c
  5055  0013F2  0E7F               	movlw	127
  5056  0013F4  1577               	andwf	(___fldiv@grs+3)& (0+255),w,b
  5057  0013F6  6E3C               	movwf	(??___fldiv+3)^0,c
  5058  0013F8  5039               	movf	??___fldiv^0,w,c
  5059  0013FA  103A               	iorwf	(??___fldiv+1)^0,w,c
  5060  0013FC  103B               	iorwf	(??___fldiv+2)^0,w,c
  5061  0013FE  103C               	iorwf	(??___fldiv+3)^0,w,c
  5062  001400  B4D8               	btfsc	status,2,c
  5063  001402  EF05  F00A         	goto	u3501
  5064  001406  EF07  F00A         	goto	u3500
  5065  00140A                     u3501:
  5066  00140A  EF0B  F00A         	goto	l745
  5067  00140E                     u3500:
  5068  00140E                     l3299:
  5069                           
  5070                           ; BSR set to: 0
  5071  00140E  0E01               	movlw	1
  5072  001410  6F79               	movwf	___fldiv@aexp& (0+255),b
  5073  001412  EF14  F00A         	goto	l744
  5074  001416                     l745:
  5075                           
  5076                           ; BSR set to: 0
  5077  001416  A031               	btfss	___fldiv@b^0,0,c
  5078  001418  EF10  F00A         	goto	u3511
  5079  00141C  EF12  F00A         	goto	u3510
  5080  001420                     u3511:
  5081  001420  EF14  F00A         	goto	l744
  5082  001424                     u3510:
  5083  001424  EF07  F00A         	goto	l3299
  5084  001428                     l744:
  5085                           
  5086                           ; BSR set to: 0
  5087  001428  5179               	movf	___fldiv@aexp& (0+255),w,b
  5088  00142A  B4D8               	btfsc	status,2,c
  5089  00142C  EF1A  F00A         	goto	u3521
  5090  001430  EF1C  F00A         	goto	u3520
  5091  001434                     u3521:
  5092  001434  EF40  F00A         	goto	l3311
  5093  001438                     u3520:
  5094  001438                     
  5095                           ; BSR set to: 0
  5096  001438  0E01               	movlw	1
  5097  00143A  2631               	addwf	___fldiv@b^0,f,c
  5098  00143C  0E00               	movlw	0
  5099  00143E  2232               	addwfc	(___fldiv@b+1)^0,f,c
  5100  001440  2233               	addwfc	(___fldiv@b+2)^0,f,c
  5101  001442  2234               	addwfc	(___fldiv@b+3)^0,f,c
  5102  001444                     
  5103                           ; BSR set to: 0
  5104  001444  A034               	btfss	(___fldiv@b+3)^0,0,c
  5105  001446  EF27  F00A         	goto	u3531
  5106  00144A  EF29  F00A         	goto	u3530
  5107  00144E                     u3531:
  5108  00144E  EF40  F00A         	goto	l3311
  5109  001452                     u3530:
  5110  001452                     
  5111                           ; BSR set to: 0
  5112  001452  C031  F039         	movff	___fldiv@b,??___fldiv
  5113  001456  C032  F03A         	movff	___fldiv@b+1,??___fldiv+1
  5114  00145A  C033  F03B         	movff	___fldiv@b+2,??___fldiv+2
  5115  00145E  C034  F03C         	movff	___fldiv@b+3,??___fldiv+3
  5116  001462  343C               	rlcf	(??___fldiv+3)^0,w,c
  5117  001464  323C               	rrcf	(??___fldiv+3)^0,f,c
  5118  001466  323B               	rrcf	(??___fldiv+2)^0,f,c
  5119  001468  323A               	rrcf	(??___fldiv+1)^0,f,c
  5120  00146A  3239               	rrcf	??___fldiv^0,f,c
  5121  00146C  C039  F031         	movff	??___fldiv,___fldiv@b
  5122  001470  C03A  F032         	movff	??___fldiv+1,___fldiv@b+1
  5123  001474  C03B  F033         	movff	??___fldiv+2,___fldiv@b+2
  5124  001478  C03C  F034         	movff	??___fldiv+3,___fldiv@b+3
  5125  00147C                     
  5126                           ; BSR set to: 0
  5127  00147C  4B72               	infsnz	___fldiv@new_exp& (0+255),f,b
  5128  00147E  2B73               	incf	(___fldiv@new_exp+1)& (0+255),f,b
  5129  001480                     l3311:
  5130                           
  5131                           ; BSR set to: 0
  5132  001480  BF73               	btfsc	(___fldiv@new_exp+1)& (0+255),7,b
  5133  001482  EF4B  F00A         	goto	u3541
  5134  001486  5173               	movf	(___fldiv@new_exp+1)& (0+255),w,b
  5135  001488  E108               	bnz	u3540
  5136  00148A  2972               	incf	___fldiv@new_exp& (0+255),w,b
  5137  00148C  A0D8               	btfss	status,0,c
  5138  00148E  EF4B  F00A         	goto	u3541
  5139  001492  EF4D  F00A         	goto	u3540
  5140  001496                     u3541:
  5141  001496  EF58  F00A         	goto	l3315
  5142  00149A                     u3540:
  5143  00149A                     
  5144                           ; BSR set to: 0
  5145  00149A  0E00               	movlw	0
  5146  00149C  6F73               	movwf	(___fldiv@new_exp+1)& (0+255),b
  5147  00149E  6972               	setf	___fldiv@new_exp& (0+255),b
  5148  0014A0  0E00               	movlw	0
  5149  0014A2  6E31               	movwf	___fldiv@b^0,c
  5150  0014A4  0E00               	movlw	0
  5151  0014A6  6E32               	movwf	(___fldiv@b+1)^0,c
  5152  0014A8  0E00               	movlw	0
  5153  0014AA  6E33               	movwf	(___fldiv@b+2)^0,c
  5154  0014AC  0E00               	movlw	0
  5155  0014AE  6E34               	movwf	(___fldiv@b+3)^0,c
  5156  0014B0                     l3315:
  5157                           
  5158                           ; BSR set to: 0
  5159  0014B0  BF73               	btfsc	(___fldiv@new_exp+1)& (0+255),7,b
  5160  0014B2  EF65  F00A         	goto	u3550
  5161  0014B6  5173               	movf	(___fldiv@new_exp+1)& (0+255),w,b
  5162  0014B8  E106               	bnz	u3551
  5163  0014BA  0572               	decf	___fldiv@new_exp& (0+255),w,b
  5164  0014BC  B0D8               	btfsc	status,0,c
  5165  0014BE  EF63  F00A         	goto	u3551
  5166  0014C2  EF65  F00A         	goto	u3550
  5167  0014C6                     u3551:
  5168  0014C6  EF73  F00A         	goto	l3319
  5169  0014CA                     u3550:
  5170  0014CA                     
  5171                           ; BSR set to: 0
  5172  0014CA  0E00               	movlw	0
  5173  0014CC  6F73               	movwf	(___fldiv@new_exp+1)& (0+255),b
  5174  0014CE  0E00               	movlw	0
  5175  0014D0  6F72               	movwf	___fldiv@new_exp& (0+255),b
  5176  0014D2  0E00               	movlw	0
  5177  0014D4  6E31               	movwf	___fldiv@b^0,c
  5178  0014D6  0E00               	movlw	0
  5179  0014D8  6E32               	movwf	(___fldiv@b+1)^0,c
  5180  0014DA  0E00               	movlw	0
  5181  0014DC  6E33               	movwf	(___fldiv@b+2)^0,c
  5182  0014DE  0E00               	movlw	0
  5183  0014E0  6E34               	movwf	(___fldiv@b+3)^0,c
  5184  0014E2  0E00               	movlw	0
  5185  0014E4  6F71               	movwf	___fldiv@sign& (0+255),b
  5186  0014E6                     l3319:
  5187                           
  5188                           ; BSR set to: 0
  5189  0014E6  C072  F078         	movff	___fldiv@new_exp,___fldiv@bexp
  5190  0014EA                     
  5191                           ; BSR set to: 0
  5192  0014EA  A178               	btfss	___fldiv@bexp& (0+255),0,b
  5193  0014EC  EF7A  F00A         	goto	u3561
  5194  0014F0  EF7C  F00A         	goto	u3560
  5195  0014F4                     u3561:
  5196  0014F4  EF7F  F00A         	goto	l3325
  5197  0014F8                     u3560:
  5198  0014F8                     
  5199                           ; BSR set to: 0
  5200  0014F8  8E33               	bsf	(___fldiv@b+2)^0,7,c
  5201  0014FA  EF80  F00A         	goto	l3327
  5202  0014FE                     l3325:
  5203                           
  5204                           ; BSR set to: 0
  5205  0014FE  9E33               	bcf	(___fldiv@b+2)^0,7,c
  5206  001500                     l3327:
  5207                           
  5208                           ; BSR set to: 0
  5209  001500  90D8               	bcf	status,0,c
  5210  001502  3178               	rrcf	___fldiv@bexp& (0+255),w,b
  5211  001504  6E34               	movwf	(___fldiv@b+3)^0,c
  5212  001506  EF36  F009         	goto	l3241
  5213  00150A                     l731:
  5214                           
  5215                           ; BSR set to: 0
  5216  00150A  0012               	return		;funcret
  5217  00150C                     __end_of___fldiv:
  5218                           	callstack 0
  5219                           
  5220 ;; *************** function _LCD_printChar *****************
  5221 ;; Defined at:
  5222 ;;		line 87 in file "./lcd.h"
  5223 ;; Parameters:    Size  Location     Type
  5224 ;;  letter          1    wreg     unsigned char 
  5225 ;; Auto vars:     Size  Location     Type
  5226 ;;  letter          1   22[COMRAM] unsigned char 
  5227 ;; Return value:  Size  Location     Type
  5228 ;;                  1    wreg      void 
  5229 ;; Registers used:
  5230 ;;		wreg
  5231 ;; Tracked objects:
  5232 ;;		On entry : 0/0
  5233 ;;		On exit  : 0/0
  5234 ;;		Unchanged: 0/0
  5235 ;; Data sizes:     COMRAM   BANK0   BANK1   BANK2   BANK3   BANK4   BANK5   BANK6   BANK7
  5236 ;;      Params:         0       0       0       0       0       0       0       0       0
  5237 ;;      Locals:         1       0       0       0       0       0       0       0       0
  5238 ;;      Temps:          0       0       0       0       0       0       0       0       0
  5239 ;;      Totals:         1       0       0       0       0       0       0       0       0
  5240 ;;Total ram usage:        1 bytes
  5241 ;; Hardware stack levels used: 1
  5242 ;; Hardware stack levels required when called: 4
  5243 ;; This function calls:
  5244 ;;		Nothing
  5245 ;; This function is called by:
  5246 ;;		_LCD_printFloatNumber
  5247 ;;		_main
  5248 ;; This function uses a non-reentrant model
  5249 ;;
  5250                           
  5251                           	psect	text23
  5252  00272E                     __ptext23:
  5253                           	callstack 0
  5254  00272E                     _LCD_printChar:
  5255                           	callstack 25
  5256                           
  5257                           ; BSR set to: 0
  5258                           ;incstack = 0
  5259                           ;LCD_printChar@letter stored from wreg
  5260  00272E  6E17               	movwf	LCD_printChar@letter^0,c
  5261  002730                     
  5262                           ;./lcd.h: 87: void LCD_printChar(char letter);./lcd.h: 88: {;./lcd.h: 89:    PORTEbits.R
      +                          E1 = 1;
  5263  002730  8284               	bsf	132,1,c	;volatile
  5264  002732                     
  5265                           ;./lcd.h: 90:    PORTD = letter;
  5266  002732  C017  FF83         	movff	LCD_printChar@letter,3971	;volatile
  5267  002736                     
  5268                           ;./lcd.h: 91:    _delay((unsigned long)((50)*(4000000/4000000.0)));
  5269  002736  0E10               	movlw	16
  5270  002738                     u4177:
  5271  002738  2EE8               	decfsz	wreg,f,c
  5272  00273A  D7FE               	bra	u4177
  5273  00273C  D000               	nop2	
  5274  00273E                     
  5275                           ;./lcd.h: 92:    PORTEbits.RE1 = 0;
  5276  00273E  9284               	bcf	132,1,c	;volatile
  5277  002740                     
  5278                           ;./lcd.h: 93:    _delay((unsigned long)((50)*(4000000/4000000.0)));
  5279  002740  0E10               	movlw	16
  5280  002742                     u4187:
  5281  002742  2EE8               	decfsz	wreg,f,c
  5282  002744  D7FE               	bra	u4187
  5283  002746  D000               	nop2	
  5284  002748  0012               	return		;funcret
  5285  00274A                     __end_of_LCD_printChar:
  5286                           	callstack 0
  5287                           
  5288 ;; *************** function _interrupt_service_routine *****************
  5289 ;; Defined at:
  5290 ;;		line 123 in file "./util.h"
  5291 ;; Parameters:    Size  Location     Type
  5292 ;;		None
  5293 ;; Auto vars:     Size  Location     Type
  5294 ;;		None
  5295 ;; Return value:  Size  Location     Type
  5296 ;;                  1    wreg      void 
  5297 ;; Registers used:
  5298 ;;		wreg, status,2, status,0, tblptrl, tblptrh, tblptru, cstack
  5299 ;; Tracked objects:
  5300 ;;		On entry : 0/0
  5301 ;;		On exit  : 0/0
  5302 ;;		Unchanged: 0/0
  5303 ;; Data sizes:     COMRAM   BANK0   BANK1   BANK2   BANK3   BANK4   BANK5   BANK6   BANK7
  5304 ;;      Params:         0       0       0       0       0       0       0       0       0
  5305 ;;      Locals:         0       0       0       0       0       0       0       0       0
  5306 ;;      Temps:          6       0       0       0       0       0       0       0       0
  5307 ;;      Totals:         6       0       0       0       0       0       0       0       0
  5308 ;;Total ram usage:        6 bytes
  5309 ;; Hardware stack levels used: 1
  5310 ;; Hardware stack levels required when called: 3
  5311 ;; This function calls:
  5312 ;;		_doorController_fire
  5313 ;;		_doorController_invasion
  5314 ;;		i2_doorController_closingDoor
  5315 ;;		i2_doorController_openingDoor
  5316 ;; This function is called by:
  5317 ;;		Interrupt level 2
  5318 ;; This function uses a non-reentrant model
  5319 ;;
  5320                           
  5321                           	psect	intcode
  5322  000008                     __pintcode:
  5323                           	callstack 0
  5324  000008                     _interrupt_service_routine:
  5325                           	callstack 23
  5326                           
  5327                           ;incstack = 0
  5328  000008  8249               	bsf	int$flags,1,c	;set compiler interrupt flag (level 2)
  5329  00000A  ED2E  F00E         	call	int_func,f	;refresh shadow registers
  5330                           
  5331                           	psect	intcode_body
  5332  001C5C                     __pintcode_body:
  5333                           	callstack 23
  5334  001C5C                     int_func:
  5335                           	callstack 23
  5336  001C5C  0006               	pop		; remove dummy address from shadow register refresh
  5337  001C5E  CFF6 F013          	movff	tblptrl,??_interrupt_service_routine+2
  5338  001C62  CFF7 F014          	movff	tblptrh,??_interrupt_service_routine+3
  5339  001C66  CFF8 F015          	movff	tblptru,??_interrupt_service_routine+4
  5340  001C6A  CFF5 F016          	movff	tablat,??_interrupt_service_routine+5
  5341  001C6E                     
  5342                           ;./util.h: 125:    if (INTCON3bits.INT1IE && INTCON3bits.INT1IF) {
  5343  001C6E  A6F0               	btfss	240,3,c	;volatile
  5344  001C70  EF3C  F00E         	goto	i2u275_41
  5345  001C74  EF3E  F00E         	goto	i2u275_40
  5346  001C78                     i2u275_41:
  5347  001C78  EF6F  F00E         	goto	i2l93
  5348  001C7C                     i2u275_40:
  5349  001C7C  A0F0               	btfss	240,0,c	;volatile
  5350  001C7E  EF43  F00E         	goto	i2u276_41
  5351  001C82  EF45  F00E         	goto	i2u276_40
  5352  001C86                     i2u276_41:
  5353  001C86  EF6F  F00E         	goto	i2l93
  5354  001C8A                     i2u276_40:
  5355  001C8A  EF51  F00E         	goto	i2l2857
  5356  001C8E                     i2l2853:
  5357  001C8E  EC0B  F011         	call	i2_doorController_openingDoor	;wreg free
  5358  001C92                     i2l97:
  5359  001C92  EC7F  F012         	call	_doorController_fire	;wreg free
  5360  001C96  EF6E  F00E         	goto	i2l98
  5361  001C9A                     i2l2855:
  5362  001C9A  EC57  F011         	call	i2_doorController_closingDoor	;wreg free
  5363                           
  5364                           ;./util.h: 132:       }
  5365  001C9E  EF6E  F00E         	goto	i2l98
  5366  001CA2                     i2l2857:
  5367  001CA2  5044               	movf	_doorStatus^0,w,c
  5368  001CA4  6E11               	movwf	??_interrupt_service_routine^0,c
  5369  001CA6  6A12               	clrf	(??_interrupt_service_routine+1)^0,c
  5370                           
  5371                           ; Switch on 2 bytes has been partitioned into a top level switch of size 1, and 1 sub-sw
      +                          itches
  5372                           ; Switch size 1, requested type "simple"
  5373                           ; Number of cases is 1, Range of values is 0 to 0
  5374                           ; switch strategies available:
  5375                           ; Name         Instructions Cycles
  5376                           ; simple_byte            4     3 (average)
  5377                           ;	Chosen strategy is simple_byte
  5378  001CA8  5012               	movf	(??_interrupt_service_routine+1)^0,w,c
  5379  001CAA  0A00               	xorlw	0	; case 0
  5380  001CAC  B4D8               	btfsc	status,2,c
  5381  001CAE  EF5B  F00E         	goto	i2l3691
  5382  001CB2  EF6E  F00E         	goto	i2l98
  5383  001CB6                     i2l3691:
  5384                           
  5385                           ; Switch size 1, requested type "simple"
  5386                           ; Number of cases is 4, Range of values is 1 to 4
  5387                           ; switch strategies available:
  5388                           ; Name         Instructions Cycles
  5389                           ; simple_byte           13     7 (average)
  5390                           ;	Chosen strategy is simple_byte
  5391  001CB6  5011               	movf	??_interrupt_service_routine^0,w,c
  5392  001CB8  0A01               	xorlw	1	; case 1
  5393  001CBA  B4D8               	btfsc	status,2,c
  5394  001CBC  EF4D  F00E         	goto	i2l2855
  5395  001CC0  0A03               	xorlw	3	; case 2
  5396  001CC2  B4D8               	btfsc	status,2,c
  5397  001CC4  EF47  F00E         	goto	i2l2853
  5398  001CC8  0A01               	xorlw	1	; case 3
  5399  001CCA  B4D8               	btfsc	status,2,c
  5400  001CCC  EF49  F00E         	goto	i2l97
  5401  001CD0  0A07               	xorlw	7	; case 4
  5402  001CD2  B4D8               	btfsc	status,2,c
  5403  001CD4  EF47  F00E         	goto	i2l2853
  5404  001CD8  EF6E  F00E         	goto	i2l98
  5405  001CDC                     i2l98:
  5406                           
  5407                           ;./util.h: 133:       INTCON3bits.INT1IF = 0;
  5408  001CDC  90F0               	bcf	240,0,c	;volatile
  5409  001CDE                     i2l93:
  5410                           
  5411                           ;./util.h: 137:    if (INTCON3bits.INT2IE && INTCON3bits.INT2IF) {
  5412  001CDE  A8F0               	btfss	240,4,c	;volatile
  5413  001CE0  EF74  F00E         	goto	i2u277_41
  5414  001CE4  EF76  F00E         	goto	i2u277_40
  5415  001CE8                     i2u277_41:
  5416  001CE8  EFA7  F00E         	goto	i2l100
  5417  001CEC                     i2u277_40:
  5418  001CEC  A2F0               	btfss	240,1,c	;volatile
  5419  001CEE  EF7B  F00E         	goto	i2u278_41
  5420  001CF2  EF7D  F00E         	goto	i2u278_40
  5421  001CF6                     i2u278_41:
  5422  001CF6  EFA7  F00E         	goto	i2l100
  5423  001CFA                     i2u278_40:
  5424  001CFA  EF89  F00E         	goto	i2l2867
  5425  001CFE                     i2l2863:
  5426  001CFE  EC57  F011         	call	i2_doorController_closingDoor	;wreg free
  5427  001D02                     i2l103:
  5428  001D02  EC57  F012         	call	_doorController_invasion	;wreg free
  5429                           
  5430                           ;./util.h: 142:             break;
  5431  001D06  EFA6  F00E         	goto	i2l104
  5432  001D0A                     i2l2865:
  5433  001D0A  EC0B  F011         	call	i2_doorController_openingDoor	;wreg free
  5434  001D0E  EFA6  F00E         	goto	i2l104
  5435  001D12                     i2l2867:
  5436  001D12  5044               	movf	_doorStatus^0,w,c
  5437  001D14  6E11               	movwf	??_interrupt_service_routine^0,c
  5438  001D16  6A12               	clrf	(??_interrupt_service_routine+1)^0,c
  5439                           
  5440                           ; Switch on 2 bytes has been partitioned into a top level switch of size 1, and 1 sub-sw
      +                          itches
  5441                           ; Switch size 1, requested type "simple"
  5442                           ; Number of cases is 1, Range of values is 0 to 0
  5443                           ; switch strategies available:
  5444                           ; Name         Instructions Cycles
  5445                           ; simple_byte            4     3 (average)
  5446                           ;	Chosen strategy is simple_byte
  5447  001D18  5012               	movf	(??_interrupt_service_routine+1)^0,w,c
  5448  001D1A  0A00               	xorlw	0	; case 0
  5449  001D1C  B4D8               	btfsc	status,2,c
  5450  001D1E  EF93  F00E         	goto	i2l3693
  5451  001D22  EFA6  F00E         	goto	i2l104
  5452  001D26                     i2l3693:
  5453                           
  5454                           ; Switch size 1, requested type "simple"
  5455                           ; Number of cases is 4, Range of values is 1 to 4
  5456                           ; switch strategies available:
  5457                           ; Name         Instructions Cycles
  5458                           ; simple_byte           13     7 (average)
  5459                           ;	Chosen strategy is simple_byte
  5460  001D26  5011               	movf	??_interrupt_service_routine^0,w,c
  5461  001D28  0A01               	xorlw	1	; case 1
  5462  001D2A  B4D8               	btfsc	status,2,c
  5463  001D2C  EFA6  F00E         	goto	i2l104
  5464  001D30  0A03               	xorlw	3	; case 2
  5465  001D32  B4D8               	btfsc	status,2,c
  5466  001D34  EF85  F00E         	goto	i2l2865
  5467  001D38  0A01               	xorlw	1	; case 3
  5468  001D3A  B4D8               	btfsc	status,2,c
  5469  001D3C  EF7F  F00E         	goto	i2l2863
  5470  001D40  0A07               	xorlw	7	; case 4
  5471  001D42  B4D8               	btfsc	status,2,c
  5472  001D44  EF81  F00E         	goto	i2l103
  5473  001D48  EFA6  F00E         	goto	i2l104
  5474  001D4C                     i2l104:
  5475                           
  5476                           ;./util.h: 146:       INTCON3bits.INT2IF = 0;
  5477  001D4C  92F0               	bcf	240,1,c	;volatile
  5478  001D4E                     i2l100:
  5479  001D4E  0004               	clrwdt		;# 
  5480  001D50  C016  FFF5         	movff	??_interrupt_service_routine+5,tablat
  5481  001D54  C015  FFF8         	movff	??_interrupt_service_routine+4,tblptru
  5482  001D58  C014  FFF7         	movff	??_interrupt_service_routine+3,tblptrh
  5483  001D5C  C013  FFF6         	movff	??_interrupt_service_routine+2,tblptrl
  5484  001D60  9249               	bcf	int$flags,1,c	;clear compiler interrupt flag (level 2)
  5485  001D62  0011               	retfie		f
  5486  001D64                     __end_of_interrupt_service_routine:
  5487                           	callstack 0
  5488                           
  5489 ;; *************** function i2_doorController_openingDoor *****************
  5490 ;; Defined at:
  5491 ;;		line 196 in file "./util.h"
  5492 ;; Parameters:    Size  Location     Type
  5493 ;;		None
  5494 ;; Auto vars:     Size  Location     Type
  5495 ;;		None
  5496 ;; Return value:  Size  Location     Type
  5497 ;;                  1    wreg      void 
  5498 ;; Registers used:
  5499 ;;		wreg, status,2, status,0, tblptrl, tblptrh, tblptru, cstack
  5500 ;; Tracked objects:
  5501 ;;		On entry : 0/0
  5502 ;;		On exit  : 0/0
  5503 ;;		Unchanged: 0/0
  5504 ;; Data sizes:     COMRAM   BANK0   BANK1   BANK2   BANK3   BANK4   BANK5   BANK6   BANK7
  5505 ;;      Params:         0       0       0       0       0       0       0       0       0
  5506 ;;      Locals:         0       0       0       0       0       0       0       0       0
  5507 ;;      Temps:          0       0       0       0       0       0       0       0       0
  5508 ;;      Totals:         0       0       0       0       0       0       0       0       0
  5509 ;;Total ram usage:        0 bytes
  5510 ;; Hardware stack levels used: 1
  5511 ;; Hardware stack levels required when called: 2
  5512 ;; This function calls:
  5513 ;;		i2_LCD_clearScreen
  5514 ;;		i2_LCD_customDelay_ms
  5515 ;;		i2_LCD_placeCursorInPosition
  5516 ;;		i2_LCD_print
  5517 ;; This function is called by:
  5518 ;;		_interrupt_service_routine
  5519 ;; This function uses a non-reentrant model
  5520 ;;
  5521                           
  5522                           	psect	text25
  5523  002216                     __ptext25:
  5524                           	callstack 0
  5525  002216                     i2_doorController_openingDoor:
  5526                           	callstack 23
  5527  002216                     
  5528                           ;./util.h: 198:    if (doorStatus != opened) {
  5529  002216  0E03               	movlw	3
  5530  002218  1844               	xorwf	_doorStatus^0,w,c
  5531  00221A  B4D8               	btfsc	status,2,c
  5532  00221C  EF12  F011         	goto	i2u273_41
  5533  002220  EF14  F011         	goto	i2u273_40
  5534  002224                     i2u273_41:
  5535  002224  EF55  F011         	goto	i2l116
  5536  002228                     i2u273_40:
  5537  002228                     
  5538                           ;./util.h: 199:       LCD_clearScreen();
  5539  002228  EC88  F013         	call	i2_LCD_clearScreen	;wreg free
  5540  00222C                     
  5541                           ;./util.h: 200:       LCD_placeCursorInPosition(0x81);
  5542  00222C  0E81               	movlw	129
  5543  00222E  EC69  F013         	call	i2_LCD_placeCursorInPosition
  5544  002232                     
  5545                           ;./util.h: 201:       LCD_print("Status:", 10);
  5546  002232  0E7B               	movlw	low STR_4
  5547  002234  6E05               	movwf	i2LCD_print@text^0,c
  5548  002236  0E08               	movlw	high STR_4
  5549  002238  6E06               	movwf	(i2LCD_print@text+1)^0,c
  5550  00223A  0E0A               	movlw	10
  5551  00223C  6E07               	movwf	i2LCD_print@delay^0,c
  5552  00223E  0E00               	movlw	0
  5553  002240  6E08               	movwf	(i2LCD_print@delay+1)^0,c
  5554  002242  0E00               	movlw	0
  5555  002244  6E09               	movwf	(i2LCD_print@delay+2)^0,c
  5556  002246  0E00               	movlw	0
  5557  002248  6E0A               	movwf	(i2LCD_print@delay+3)^0,c
  5558  00224A  ECE2  F011         	call	i2_LCD_print	;wreg free
  5559  00224E                     
  5560                           ;./util.h: 203:       LCD_placeCursorInPosition(0xC3);
  5561  00224E  0EC3               	movlw	195
  5562  002250  EC69  F013         	call	i2_LCD_placeCursorInPosition
  5563  002254                     
  5564                           ;./util.h: 204:       LCD_print("Abrindo...", 10);
  5565  002254  0E3E               	movlw	low STR_7
  5566  002256  6E05               	movwf	i2LCD_print@text^0,c
  5567  002258  0E08               	movlw	high STR_7
  5568  00225A  6E06               	movwf	(i2LCD_print@text+1)^0,c
  5569  00225C  0E0A               	movlw	10
  5570  00225E  6E07               	movwf	i2LCD_print@delay^0,c
  5571  002260  0E00               	movlw	0
  5572  002262  6E08               	movwf	(i2LCD_print@delay+1)^0,c
  5573  002264  0E00               	movlw	0
  5574  002266  6E09               	movwf	(i2LCD_print@delay+2)^0,c
  5575  002268  0E00               	movlw	0
  5576  00226A  6E0A               	movwf	(i2LCD_print@delay+3)^0,c
  5577  00226C  ECE2  F011         	call	i2_LCD_print	;wreg free
  5578  002270                     
  5579                           ;./util.h: 205:       LCD_customDelay_ms(1500);
  5580  002270  0EDC               	movlw	220
  5581  002272  6E01               	movwf	i2LCD_customDelay_ms@ms^0,c
  5582  002274  0E05               	movlw	5
  5583  002276  6E02               	movwf	(i2LCD_customDelay_ms@ms+1)^0,c
  5584  002278  0E00               	movlw	0
  5585  00227A  6E03               	movwf	(i2LCD_customDelay_ms@ms+2)^0,c
  5586  00227C  0E00               	movlw	0
  5587  00227E  6E04               	movwf	(i2LCD_customDelay_ms@ms+3)^0,c
  5588  002280  EC21  F013         	call	i2_LCD_customDelay_ms	;wreg free
  5589  002284                     
  5590                           ;./util.h: 207:       LCD_placeCursorInPosition(0xC3);
  5591  002284  0EC3               	movlw	195
  5592  002286  EC69  F013         	call	i2_LCD_placeCursorInPosition
  5593  00228A                     
  5594                           ;./util.h: 208:       LCD_print("Aberta    ", 10);
  5595  00228A  0E33               	movlw	low STR_8
  5596  00228C  6E05               	movwf	i2LCD_print@text^0,c
  5597  00228E  0E08               	movlw	high STR_8
  5598  002290  6E06               	movwf	(i2LCD_print@text+1)^0,c
  5599  002292  0E0A               	movlw	10
  5600  002294  6E07               	movwf	i2LCD_print@delay^0,c
  5601  002296  0E00               	movlw	0
  5602  002298  6E08               	movwf	(i2LCD_print@delay+1)^0,c
  5603  00229A  0E00               	movlw	0
  5604  00229C  6E09               	movwf	(i2LCD_print@delay+2)^0,c
  5605  00229E  0E00               	movlw	0
  5606  0022A0  6E0A               	movwf	(i2LCD_print@delay+3)^0,c
  5607  0022A2  ECE2  F011         	call	i2_LCD_print	;wreg free
  5608  0022A6                     
  5609                           ;./util.h: 210:       doorStatus = opened;
  5610  0022A6  0E03               	movlw	3
  5611  0022A8  6E44               	movwf	_doorStatus^0,c
  5612  0022AA                     i2l116:
  5613  0022AA  0004               	clrwdt		;# 
  5614  0022AC  0012               	return		;funcret
  5615  0022AE                     __end_ofi2_doorController_openingDoor:
  5616                           	callstack 0
  5617                           
  5618 ;; *************** function i2_doorController_closingDoor *****************
  5619 ;; Defined at:
  5620 ;;		line 218 in file "./util.h"
  5621 ;; Parameters:    Size  Location     Type
  5622 ;;		None
  5623 ;; Auto vars:     Size  Location     Type
  5624 ;;		None
  5625 ;; Return value:  Size  Location     Type
  5626 ;;                  1    wreg      void 
  5627 ;; Registers used:
  5628 ;;		wreg, status,2, status,0, tblptrl, tblptrh, tblptru, cstack
  5629 ;; Tracked objects:
  5630 ;;		On entry : 0/0
  5631 ;;		On exit  : 0/0
  5632 ;;		Unchanged: 0/0
  5633 ;; Data sizes:     COMRAM   BANK0   BANK1   BANK2   BANK3   BANK4   BANK5   BANK6   BANK7
  5634 ;;      Params:         0       0       0       0       0       0       0       0       0
  5635 ;;      Locals:         0       0       0       0       0       0       0       0       0
  5636 ;;      Temps:          0       0       0       0       0       0       0       0       0
  5637 ;;      Totals:         0       0       0       0       0       0       0       0       0
  5638 ;;Total ram usage:        0 bytes
  5639 ;; Hardware stack levels used: 1
  5640 ;; Hardware stack levels required when called: 2
  5641 ;; This function calls:
  5642 ;;		i2_LCD_clearScreen
  5643 ;;		i2_LCD_customDelay_ms
  5644 ;;		i2_LCD_placeCursorInPosition
  5645 ;;		i2_LCD_print
  5646 ;; This function is called by:
  5647 ;;		_interrupt_service_routine
  5648 ;; This function uses a non-reentrant model
  5649 ;;
  5650                           
  5651                           	psect	text26
  5652  0022AE                     __ptext26:
  5653                           	callstack 0
  5654  0022AE                     i2_doorController_closingDoor:
  5655                           	callstack 23
  5656  0022AE                     
  5657                           ;./util.h: 220:    if (doorStatus != closed) {
  5658  0022AE  0E04               	movlw	4
  5659  0022B0  1844               	xorwf	_doorStatus^0,w,c
  5660  0022B2  B4D8               	btfsc	status,2,c
  5661  0022B4  EF5E  F011         	goto	i2u274_41
  5662  0022B8  EF60  F011         	goto	i2u274_40
  5663  0022BC                     i2u274_41:
  5664  0022BC  EFA1  F011         	goto	i2l120
  5665  0022C0                     i2u274_40:
  5666  0022C0                     
  5667                           ;./util.h: 221:       LCD_clearScreen();
  5668  0022C0  EC88  F013         	call	i2_LCD_clearScreen	;wreg free
  5669  0022C4                     
  5670                           ;./util.h: 222:       LCD_placeCursorInPosition(0x81);
  5671  0022C4  0E81               	movlw	129
  5672  0022C6  EC69  F013         	call	i2_LCD_placeCursorInPosition
  5673  0022CA                     
  5674                           ;./util.h: 223:       LCD_print("Status:", 10);
  5675  0022CA  0E7B               	movlw	low STR_4
  5676  0022CC  6E05               	movwf	i2LCD_print@text^0,c
  5677  0022CE  0E08               	movlw	high STR_4
  5678  0022D0  6E06               	movwf	(i2LCD_print@text+1)^0,c
  5679  0022D2  0E0A               	movlw	10
  5680  0022D4  6E07               	movwf	i2LCD_print@delay^0,c
  5681  0022D6  0E00               	movlw	0
  5682  0022D8  6E08               	movwf	(i2LCD_print@delay+1)^0,c
  5683  0022DA  0E00               	movlw	0
  5684  0022DC  6E09               	movwf	(i2LCD_print@delay+2)^0,c
  5685  0022DE  0E00               	movlw	0
  5686  0022E0  6E0A               	movwf	(i2LCD_print@delay+3)^0,c
  5687  0022E2  ECE2  F011         	call	i2_LCD_print	;wreg free
  5688  0022E6                     
  5689                           ;./util.h: 225:       LCD_placeCursorInPosition(0xC3);
  5690  0022E6  0EC3               	movlw	195
  5691  0022E8  EC69  F013         	call	i2_LCD_placeCursorInPosition
  5692  0022EC                     
  5693                           ;./util.h: 226:       LCD_print("Fechando...", 10);
  5694  0022EC  0E1B               	movlw	low STR_10
  5695  0022EE  6E05               	movwf	i2LCD_print@text^0,c
  5696  0022F0  0E08               	movlw	high STR_10
  5697  0022F2  6E06               	movwf	(i2LCD_print@text+1)^0,c
  5698  0022F4  0E0A               	movlw	10
  5699  0022F6  6E07               	movwf	i2LCD_print@delay^0,c
  5700  0022F8  0E00               	movlw	0
  5701  0022FA  6E08               	movwf	(i2LCD_print@delay+1)^0,c
  5702  0022FC  0E00               	movlw	0
  5703  0022FE  6E09               	movwf	(i2LCD_print@delay+2)^0,c
  5704  002300  0E00               	movlw	0
  5705  002302  6E0A               	movwf	(i2LCD_print@delay+3)^0,c
  5706  002304  ECE2  F011         	call	i2_LCD_print	;wreg free
  5707  002308                     
  5708                           ;./util.h: 227:       LCD_customDelay_ms(1500);
  5709  002308  0EDC               	movlw	220
  5710  00230A  6E01               	movwf	i2LCD_customDelay_ms@ms^0,c
  5711  00230C  0E05               	movlw	5
  5712  00230E  6E02               	movwf	(i2LCD_customDelay_ms@ms+1)^0,c
  5713  002310  0E00               	movlw	0
  5714  002312  6E03               	movwf	(i2LCD_customDelay_ms@ms+2)^0,c
  5715  002314  0E00               	movlw	0
  5716  002316  6E04               	movwf	(i2LCD_customDelay_ms@ms+3)^0,c
  5717  002318  EC21  F013         	call	i2_LCD_customDelay_ms	;wreg free
  5718  00231C                     
  5719                           ;./util.h: 229:       LCD_placeCursorInPosition(0xC3);
  5720  00231C  0EC3               	movlw	195
  5721  00231E  EC69  F013         	call	i2_LCD_placeCursorInPosition
  5722  002322                     
  5723                           ;./util.h: 230:       LCD_print("Fechada    ", 10);
  5724  002322  0E0F               	movlw	low STR_5
  5725  002324  6E05               	movwf	i2LCD_print@text^0,c
  5726  002326  0E08               	movlw	high STR_5
  5727  002328  6E06               	movwf	(i2LCD_print@text+1)^0,c
  5728  00232A  0E0A               	movlw	10
  5729  00232C  6E07               	movwf	i2LCD_print@delay^0,c
  5730  00232E  0E00               	movlw	0
  5731  002330  6E08               	movwf	(i2LCD_print@delay+1)^0,c
  5732  002332  0E00               	movlw	0
  5733  002334  6E09               	movwf	(i2LCD_print@delay+2)^0,c
  5734  002336  0E00               	movlw	0
  5735  002338  6E0A               	movwf	(i2LCD_print@delay+3)^0,c
  5736  00233A  ECE2  F011         	call	i2_LCD_print	;wreg free
  5737  00233E                     
  5738                           ;./util.h: 232:       doorStatus = closed;
  5739  00233E  0E04               	movlw	4
  5740  002340  6E44               	movwf	_doorStatus^0,c
  5741  002342                     i2l120:
  5742  002342  0004               	clrwdt		;# 
  5743  002344  0012               	return		;funcret
  5744  002346                     __end_ofi2_doorController_closingDoor:
  5745                           	callstack 0
  5746                           
  5747 ;; *************** function _doorController_invasion *****************
  5748 ;; Defined at:
  5749 ;;		line 257 in file "./util.h"
  5750 ;; Parameters:    Size  Location     Type
  5751 ;;		None
  5752 ;; Auto vars:     Size  Location     Type
  5753 ;;		None
  5754 ;; Return value:  Size  Location     Type
  5755 ;;                  1    wreg      void 
  5756 ;; Registers used:
  5757 ;;		wreg, status,2, status,0, tblptrl, tblptrh, tblptru, cstack
  5758 ;; Tracked objects:
  5759 ;;		On entry : 0/0
  5760 ;;		On exit  : 0/0
  5761 ;;		Unchanged: 0/0
  5762 ;; Data sizes:     COMRAM   BANK0   BANK1   BANK2   BANK3   BANK4   BANK5   BANK6   BANK7
  5763 ;;      Params:         0       0       0       0       0       0       0       0       0
  5764 ;;      Locals:         0       0       0       0       0       0       0       0       0
  5765 ;;      Temps:          0       0       0       0       0       0       0       0       0
  5766 ;;      Totals:         0       0       0       0       0       0       0       0       0
  5767 ;;Total ram usage:        0 bytes
  5768 ;; Hardware stack levels used: 1
  5769 ;; Hardware stack levels required when called: 2
  5770 ;; This function calls:
  5771 ;;		i2_LCD_clearScreen
  5772 ;;		i2_LCD_placeCursorInPosition
  5773 ;;		i2_LCD_print
  5774 ;; This function is called by:
  5775 ;;		_interrupt_service_routine
  5776 ;; This function uses a non-reentrant model
  5777 ;;
  5778                           
  5779                           	psect	text27
  5780  0024AE                     __ptext27:
  5781                           	callstack 0
  5782  0024AE                     _doorController_invasion:
  5783                           	callstack 23
  5784  0024AE                     
  5785                           ;./util.h: 259:    LCD_clearScreen();
  5786  0024AE  EC88  F013         	call	i2_LCD_clearScreen	;wreg free
  5787  0024B2                     
  5788                           ;./util.h: 260:    LCD_placeCursorInPosition(0xC1);
  5789  0024B2  0EC1               	movlw	193
  5790  0024B4  EC69  F013         	call	i2_LCD_placeCursorInPosition
  5791  0024B8                     
  5792                           ;./util.h: 261:    LCD_print("INVASAO!", 10);
  5793  0024B8  0E69               	movlw	low STR_14
  5794  0024BA  6E05               	movwf	i2LCD_print@text^0,c
  5795  0024BC  0E08               	movlw	high STR_14
  5796  0024BE  6E06               	movwf	(i2LCD_print@text+1)^0,c
  5797  0024C0  0E0A               	movlw	10
  5798  0024C2  6E07               	movwf	i2LCD_print@delay^0,c
  5799  0024C4  0E00               	movlw	0
  5800  0024C6  6E08               	movwf	(i2LCD_print@delay+1)^0,c
  5801  0024C8  0E00               	movlw	0
  5802  0024CA  6E09               	movwf	(i2LCD_print@delay+2)^0,c
  5803  0024CC  0E00               	movlw	0
  5804  0024CE  6E0A               	movwf	(i2LCD_print@delay+3)^0,c
  5805  0024D0  ECE2  F011         	call	i2_LCD_print	;wreg free
  5806  0024D4                     
  5807                           ;./util.h: 263:    LCD_placeCursorInPosition(0x91);
  5808  0024D4  0E91               	movlw	145
  5809  0024D6  EC69  F013         	call	i2_LCD_placeCursorInPosition
  5810  0024DA                     
  5811                           ;./util.h: 264:    LCD_print("Emergencia", 10);
  5812  0024DA  0E54               	movlw	low STR_13
  5813  0024DC  6E05               	movwf	i2LCD_print@text^0,c
  5814  0024DE  0E08               	movlw	high STR_13
  5815  0024E0  6E06               	movwf	(i2LCD_print@text+1)^0,c
  5816  0024E2  0E0A               	movlw	10
  5817  0024E4  6E07               	movwf	i2LCD_print@delay^0,c
  5818  0024E6  0E00               	movlw	0
  5819  0024E8  6E08               	movwf	(i2LCD_print@delay+1)^0,c
  5820  0024EA  0E00               	movlw	0
  5821  0024EC  6E09               	movwf	(i2LCD_print@delay+2)^0,c
  5822  0024EE  0E00               	movlw	0
  5823  0024F0  6E0A               	movwf	(i2LCD_print@delay+3)^0,c
  5824  0024F2  ECE2  F011         	call	i2_LCD_print	;wreg free
  5825  0024F6                     
  5826                           ;./util.h: 266:    doorStatus = invasion;
  5827  0024F6  0E02               	movlw	2
  5828  0024F8  6E44               	movwf	_doorStatus^0,c
  5829  0024FA  0004               	clrwdt		;# 
  5830  0024FC  0012               	return		;funcret
  5831  0024FE                     __end_of_doorController_invasion:
  5832                           	callstack 0
  5833                           
  5834 ;; *************** function _doorController_fire *****************
  5835 ;; Defined at:
  5836 ;;		line 240 in file "./util.h"
  5837 ;; Parameters:    Size  Location     Type
  5838 ;;		None
  5839 ;; Auto vars:     Size  Location     Type
  5840 ;;		None
  5841 ;; Return value:  Size  Location     Type
  5842 ;;                  1    wreg      void 
  5843 ;; Registers used:
  5844 ;;		wreg, status,2, status,0, tblptrl, tblptrh, tblptru, cstack
  5845 ;; Tracked objects:
  5846 ;;		On entry : 0/0
  5847 ;;		On exit  : 0/0
  5848 ;;		Unchanged: 0/0
  5849 ;; Data sizes:     COMRAM   BANK0   BANK1   BANK2   BANK3   BANK4   BANK5   BANK6   BANK7
  5850 ;;      Params:         0       0       0       0       0       0       0       0       0
  5851 ;;      Locals:         0       0       0       0       0       0       0       0       0
  5852 ;;      Temps:          0       0       0       0       0       0       0       0       0
  5853 ;;      Totals:         0       0       0       0       0       0       0       0       0
  5854 ;;Total ram usage:        0 bytes
  5855 ;; Hardware stack levels used: 1
  5856 ;; Hardware stack levels required when called: 2
  5857 ;; This function calls:
  5858 ;;		i2_LCD_clearScreen
  5859 ;;		i2_LCD_placeCursorInPosition
  5860 ;;		i2_LCD_print
  5861 ;; This function is called by:
  5862 ;;		_interrupt_service_routine
  5863 ;; This function uses a non-reentrant model
  5864 ;;
  5865                           
  5866                           	psect	text28
  5867  0024FE                     __ptext28:
  5868                           	callstack 0
  5869  0024FE                     _doorController_fire:
  5870                           	callstack 23
  5871  0024FE                     
  5872                           ;./util.h: 242:    LCD_clearScreen();
  5873  0024FE  EC88  F013         	call	i2_LCD_clearScreen	;wreg free
  5874  002502                     
  5875                           ;./util.h: 243:    LCD_placeCursorInPosition(0xC1);
  5876  002502  0EC1               	movlw	193
  5877  002504  EC69  F013         	call	i2_LCD_placeCursorInPosition
  5878  002508                     
  5879                           ;./util.h: 244:    LCD_print("INCENDIO!", 10);
  5880  002508  0E5F               	movlw	low STR_12
  5881  00250A  6E05               	movwf	i2LCD_print@text^0,c
  5882  00250C  0E08               	movlw	high STR_12
  5883  00250E  6E06               	movwf	(i2LCD_print@text+1)^0,c
  5884  002510  0E0A               	movlw	10
  5885  002512  6E07               	movwf	i2LCD_print@delay^0,c
  5886  002514  0E00               	movlw	0
  5887  002516  6E08               	movwf	(i2LCD_print@delay+1)^0,c
  5888  002518  0E00               	movlw	0
  5889  00251A  6E09               	movwf	(i2LCD_print@delay+2)^0,c
  5890  00251C  0E00               	movlw	0
  5891  00251E  6E0A               	movwf	(i2LCD_print@delay+3)^0,c
  5892  002520  ECE2  F011         	call	i2_LCD_print	;wreg free
  5893  002524                     
  5894                           ;./util.h: 246:    LCD_placeCursorInPosition(0x91);
  5895  002524  0E91               	movlw	145
  5896  002526  EC69  F013         	call	i2_LCD_placeCursorInPosition
  5897  00252A                     
  5898                           ;./util.h: 247:    LCD_print("Emergencia", 10);
  5899  00252A  0E54               	movlw	low STR_13
  5900  00252C  6E05               	movwf	i2LCD_print@text^0,c
  5901  00252E  0E08               	movlw	high STR_13
  5902  002530  6E06               	movwf	(i2LCD_print@text+1)^0,c
  5903  002532  0E0A               	movlw	10
  5904  002534  6E07               	movwf	i2LCD_print@delay^0,c
  5905  002536  0E00               	movlw	0
  5906  002538  6E08               	movwf	(i2LCD_print@delay+1)^0,c
  5907  00253A  0E00               	movlw	0
  5908  00253C  6E09               	movwf	(i2LCD_print@delay+2)^0,c
  5909  00253E  0E00               	movlw	0
  5910  002540  6E0A               	movwf	(i2LCD_print@delay+3)^0,c
  5911  002542  ECE2  F011         	call	i2_LCD_print	;wreg free
  5912  002546                     
  5913                           ;./util.h: 249:    doorStatus = fire;
  5914  002546  0E01               	movlw	1
  5915  002548  6E44               	movwf	_doorStatus^0,c
  5916  00254A  0004               	clrwdt		;# 
  5917  00254C  0012               	return		;funcret
  5918  00254E                     __end_of_doorController_fire:
  5919                           	callstack 0
  5920                           
  5921 ;; *************** function i2_LCD_print *****************
  5922 ;; Defined at:
  5923 ;;		line 73 in file "./lcd.h"
  5924 ;; Parameters:    Size  Location     Type
  5925 ;;  text            2    4[COMRAM] PTR unsigned char 
  5926 ;;		 -> STR_16(11), STR_15(11), STR_14(9), STR_13(11), 
  5927 ;;		 -> STR_12(10), STR_11(12), STR_10(12), STR_9(8), 
  5928 ;;		 -> STR_8(11), STR_7(11), STR_6(8), STR_5(12), 
  5929 ;;		 -> STR_4(8), STR_3(9), STR_2(12), STR_1(14), 
  5930 ;;  delay           4    6[COMRAM] long 
  5931 ;; Auto vars:     Size  Location     Type
  5932 ;;  i               2   14[COMRAM] int 
  5933 ;;  length          2   12[COMRAM] int 
  5934 ;; Return value:  Size  Location     Type
  5935 ;;                  1    wreg      void 
  5936 ;; Registers used:
  5937 ;;		wreg, status,2, status,0, tblptrl, tblptrh, tblptru, cstack
  5938 ;; Tracked objects:
  5939 ;;		On entry : 0/0
  5940 ;;		On exit  : 0/0
  5941 ;;		Unchanged: 0/0
  5942 ;; Data sizes:     COMRAM   BANK0   BANK1   BANK2   BANK3   BANK4   BANK5   BANK6   BANK7
  5943 ;;      Params:         6       0       0       0       0       0       0       0       0
  5944 ;;      Locals:         4       0       0       0       0       0       0       0       0
  5945 ;;      Temps:          2       0       0       0       0       0       0       0       0
  5946 ;;      Totals:        12       0       0       0       0       0       0       0       0
  5947 ;;Total ram usage:       12 bytes
  5948 ;; Hardware stack levels used: 1
  5949 ;; Hardware stack levels required when called: 1
  5950 ;; This function calls:
  5951 ;;		i2_LCD_customDelay_ms
  5952 ;;		i2_strlen
  5953 ;; This function is called by:
  5954 ;;		_doorController_fire
  5955 ;;		_doorController_invasion
  5956 ;;		i2_doorController_openingDoor
  5957 ;;		i2_doorController_closingDoor
  5958 ;; This function uses a non-reentrant model
  5959 ;;
  5960                           
  5961                           	psect	text29
  5962  0023C4                     __ptext29:
  5963                           	callstack 0
  5964  0023C4                     i2_LCD_print:
  5965                           	callstack 23
  5966  0023C4                     
  5967                           ;./lcd.h: 73: void LCD_print(char text[], long delay);./lcd.h: 74: {;./lcd.h: 75:    int
      +                           i, length;;./lcd.h: 76:    length = (int) strlen(text);
  5968  0023C4  C005  F001         	movff	i2LCD_print@text,i2strlen@s
  5969  0023C8  C006  F002         	movff	i2LCD_print@text+1,i2strlen@s+1
  5970  0023CC  EC04  F013         	call	i2_strlen	;wreg free
  5971  0023D0  C001  F00D         	movff	?i2_strlen,i2LCD_print@length
  5972  0023D4  C002  F00E         	movff	?i2_strlen+1,i2LCD_print@length+1
  5973  0023D8                     
  5974                           ;./lcd.h: 77:    for (i = 0; i < length; i++) {
  5975  0023D8  0E00               	movlw	0
  5976  0023DA  6E10               	movwf	(i2LCD_print@i+1)^0,c
  5977  0023DC  0E00               	movlw	0
  5978  0023DE  6E0F               	movwf	i2LCD_print@i^0,c
  5979  0023E0  EF11  F012         	goto	i2l2689
  5980  0023E4                     i2l67:
  5981                           
  5982                           ;./lcd.h: 78:       PORTEbits.RE1 = 1;
  5983  0023E4  8284               	bsf	132,1,c	;volatile
  5984  0023E6                     
  5985                           ;./lcd.h: 79:       PORTD = text[i];
  5986  0023E6  500F               	movf	i2LCD_print@i^0,w,c
  5987  0023E8  2405               	addwf	i2LCD_print@text^0,w,c
  5988  0023EA  6E0B               	movwf	??i2_LCD_print^0,c
  5989  0023EC  5010               	movf	(i2LCD_print@i+1)^0,w,c
  5990  0023EE  2006               	addwfc	(i2LCD_print@text+1)^0,w,c
  5991  0023F0  6E0C               	movwf	(??i2_LCD_print+1)^0,c
  5992  0023F2  C00B  FFF6         	movff	??i2_LCD_print,tblptrl
  5993  0023F6  C00C  FFF7         	movff	??i2_LCD_print+1,tblptrh
  5994  0023FA                     	if	0	;tblptru may be non-zero
  5995  0023FA                     	endif
  5996  0023FA                     	if	0	;tblptru may be non-zero
  5997  0023FA                     	endif
  5998  0023FA  0008               	tblrd		*
  5999  0023FC  CFF5 FF83          	movff	tablat,3971	;volatile
  6000  002400                     
  6001                           ;./lcd.h: 80:       LCD_customDelay_ms(delay);
  6002  002400  C007  F001         	movff	i2LCD_print@delay,i2LCD_customDelay_ms@ms
  6003  002404  C008  F002         	movff	i2LCD_print@delay+1,i2LCD_customDelay_ms@ms+1
  6004  002408  C009  F003         	movff	i2LCD_print@delay+2,i2LCD_customDelay_ms@ms+2
  6005  00240C  C00A  F004         	movff	i2LCD_print@delay+3,i2LCD_customDelay_ms@ms+3
  6006  002410  EC21  F013         	call	i2_LCD_customDelay_ms	;wreg free
  6007  002414                     
  6008                           ;./lcd.h: 82:       PORTEbits.RE1 = 0;
  6009  002414  9284               	bcf	132,1,c	;volatile
  6010  002416                     
  6011                           ;./lcd.h: 83:       _delay((unsigned long)((50)*(4000000/4000000.0)));
  6012  002416  0E10               	movlw	16
  6013  002418                     i2u419_47:
  6014  002418  2EE8               	decfsz	wreg,f,c
  6015  00241A  D7FE               	bra	i2u419_47
  6016  00241C  D000               	nop2	
  6017  00241E                     
  6018                           ;./lcd.h: 84:    }
  6019  00241E  4A0F               	infsnz	i2LCD_print@i^0,f,c
  6020  002420  2A10               	incf	(i2LCD_print@i+1)^0,f,c
  6021  002422                     i2l2689:
  6022  002422  500D               	movf	i2LCD_print@length^0,w,c
  6023  002424  5C0F               	subwf	i2LCD_print@i^0,w,c
  6024  002426  5010               	movf	(i2LCD_print@i+1)^0,w,c
  6025  002428  0A80               	xorlw	128
  6026  00242A  6E0B               	movwf	??i2_LCD_print^0,c
  6027  00242C  500E               	movf	(i2LCD_print@length+1)^0,w,c
  6028  00242E  0A80               	xorlw	128
  6029  002430  580B               	subwfb	??i2_LCD_print^0,w,c
  6030  002432  A0D8               	btfss	status,0,c
  6031  002434  EF1E  F012         	goto	i2u263_41
  6032  002438  EF20  F012         	goto	i2u263_40
  6033  00243C                     i2u263_41:
  6034  00243C  EFF2  F011         	goto	i2l67
  6035  002440                     i2u263_40:
  6036  002440  0012               	return		;funcret
  6037  002442                     __end_ofi2_LCD_print:
  6038                           	callstack 0
  6039                           
  6040 ;; *************** function i2_strlen *****************
  6041 ;; Defined at:
  6042 ;;		line 5 in file "C:\Program Files\Microchip\xc8\v2.32\pic\sources\c99\common\strlen.c"
  6043 ;; Parameters:    Size  Location     Type
  6044 ;;  s               2    0[COMRAM] PTR const unsigned char 
  6045 ;;		 -> STR_16(11), STR_15(11), STR_14(9), STR_13(11), 
  6046 ;;		 -> STR_12(10), STR_11(12), STR_10(12), STR_9(8), 
  6047 ;;		 -> STR_8(11), STR_7(11), STR_6(8), STR_5(12), 
  6048 ;;		 -> STR_4(8), STR_3(9), STR_2(12), STR_1(14), 
  6049 ;; Auto vars:     Size  Location     Type
  6050 ;;  a               2    2[COMRAM] PTR const unsigned char 
  6051 ;;		 -> STR_16(11), STR_15(11), STR_14(9), STR_13(11), 
  6052 ;;		 -> STR_12(10), STR_11(12), STR_10(12), STR_9(8), 
  6053 ;;		 -> STR_8(11), STR_7(11), STR_6(8), STR_5(12), 
  6054 ;;		 -> STR_4(8), STR_3(9), STR_2(12), STR_1(14), 
  6055 ;; Return value:  Size  Location     Type
  6056 ;;                  2    0[COMRAM] unsigned int 
  6057 ;; Registers used:
  6058 ;;		wreg, status,2, status,0, tblptrl, tblptrh, tblptru
  6059 ;; Tracked objects:
  6060 ;;		On entry : 0/0
  6061 ;;		On exit  : 0/0
  6062 ;;		Unchanged: 0/0
  6063 ;; Data sizes:     COMRAM   BANK0   BANK1   BANK2   BANK3   BANK4   BANK5   BANK6   BANK7
  6064 ;;      Params:         2       0       0       0       0       0       0       0       0
  6065 ;;      Locals:         2       0       0       0       0       0       0       0       0
  6066 ;;      Temps:          0       0       0       0       0       0       0       0       0
  6067 ;;      Totals:         4       0       0       0       0       0       0       0       0
  6068 ;;Total ram usage:        4 bytes
  6069 ;; Hardware stack levels used: 1
  6070 ;; This function calls:
  6071 ;;		Nothing
  6072 ;; This function is called by:
  6073 ;;		i2_LCD_print
  6074 ;; This function uses a non-reentrant model
  6075 ;;
  6076                           
  6077                           	psect	text30
  6078  002608                     __ptext30:
  6079                           	callstack 0
  6080  002608                     i2_strlen:
  6081                           	callstack 23
  6082  002608  C001  F003         	movff	i2strlen@s,i2strlen@a
  6083  00260C  C002  F004         	movff	i2strlen@s+1,i2strlen@a+1
  6084  002610  EF0C  F013         	goto	i2l2173
  6085  002614                     i2l2171:
  6086  002614  4A01               	infsnz	i2strlen@s^0,f,c
  6087  002616  2A02               	incf	(i2strlen@s+1)^0,f,c
  6088  002618                     i2l2173:
  6089  002618  C001  FFF6         	movff	i2strlen@s,tblptrl
  6090  00261C  C002  FFF7         	movff	i2strlen@s+1,tblptrh
  6091  002620                     	if	0	;tblptru may be non-zero
  6092  002620                     	endif
  6093  002620                     	if	0	;tblptru may be non-zero
  6094  002620                     	endif
  6095  002620  0008               	tblrd		*
  6096  002622  50F5               	movf	tablat,w,c
  6097  002624  0900               	iorlw	0
  6098  002626  A4D8               	btfss	status,2,c
  6099  002628  EF18  F013         	goto	i2u186_41
  6100  00262C  EF1A  F013         	goto	i2u186_40
  6101  002630                     i2u186_41:
  6102  002630  EF0A  F013         	goto	i2l2171
  6103  002634                     i2u186_40:
  6104  002634  5003               	movf	i2strlen@a^0,w,c
  6105  002636  5C01               	subwf	i2strlen@s^0,w,c
  6106  002638  6E01               	movwf	?i2_strlen^0,c
  6107  00263A  5004               	movf	(i2strlen@a+1)^0,w,c
  6108  00263C  5802               	subwfb	(i2strlen@s+1)^0,w,c
  6109  00263E  6E02               	movwf	(?i2_strlen+1)^0,c
  6110  002640  0012               	return		;funcret
  6111  002642                     __end_ofi2_strlen:
  6112                           	callstack 0
  6113                           
  6114 ;; *************** function i2_LCD_customDelay_ms *****************
  6115 ;; Defined at:
  6116 ;;		line 66 in file "./lcd.h"
  6117 ;; Parameters:    Size  Location     Type
  6118 ;;  ms              4    0[COMRAM] long 
  6119 ;; Auto vars:     Size  Location     Type
  6120 ;;		None
  6121 ;; Return value:  Size  Location     Type
  6122 ;;                  1    wreg      void 
  6123 ;; Registers used:
  6124 ;;		wreg, status,2, status,0
  6125 ;; Tracked objects:
  6126 ;;		On entry : 0/0
  6127 ;;		On exit  : 0/0
  6128 ;;		Unchanged: 0/0
  6129 ;; Data sizes:     COMRAM   BANK0   BANK1   BANK2   BANK3   BANK4   BANK5   BANK6   BANK7
  6130 ;;      Params:         4       0       0       0       0       0       0       0       0
  6131 ;;      Locals:         0       0       0       0       0       0       0       0       0
  6132 ;;      Temps:          0       0       0       0       0       0       0       0       0
  6133 ;;      Totals:         4       0       0       0       0       0       0       0       0
  6134 ;;Total ram usage:        4 bytes
  6135 ;; Hardware stack levels used: 1
  6136 ;; This function calls:
  6137 ;;		Nothing
  6138 ;; This function is called by:
  6139 ;;		i2_LCD_print
  6140 ;;		i2_doorController_openingDoor
  6141 ;;		i2_doorController_closingDoor
  6142 ;; This function uses a non-reentrant model
  6143 ;;
  6144                           
  6145                           	psect	text31
  6146  002642                     __ptext31:
  6147                           	callstack 0
  6148  002642                     i2_LCD_customDelay_ms:
  6149                           	callstack 23
  6150  002642                     
  6151                           ;./lcd.h: 66: void LCD_customDelay_ms(long ms);./lcd.h: 67: {;./lcd.h: 68:    while (ms-
      +                          -) {
  6152  002642  EF27  F013         	goto	i2l2167
  6153  002646                     i2l2165:
  6154                           
  6155                           ;./lcd.h: 69:       _delay((unsigned long)((1)*(4000000/4000.0)));
  6156  002646  0EC8               	movlw	200
  6157  002648                     i2u420_47:
  6158  002648  D000               	nop2	
  6159  00264A  2EE8               	decfsz	wreg,f,c
  6160  00264C  D7FD               	bra	i2u420_47
  6161  00264E                     i2l2167:
  6162                           
  6163                           ;./lcd.h: 68:    while (ms--) {
  6164  00264E  0EFF               	movlw	255
  6165  002650  2601               	addwf	i2LCD_customDelay_ms@ms^0,f,c
  6166  002652  0EFF               	movlw	255
  6167  002654  2202               	addwfc	(i2LCD_customDelay_ms@ms+1)^0,f,c
  6168  002656  0EFF               	movlw	255
  6169  002658  2203               	addwfc	(i2LCD_customDelay_ms@ms+2)^0,f,c
  6170  00265A  0EFF               	movlw	255
  6171  00265C  2204               	addwfc	(i2LCD_customDelay_ms@ms+3)^0,f,c
  6172  00265E  2801               	incf	i2LCD_customDelay_ms@ms^0,w,c
  6173  002660  E10A               	bnz	i2u185_41
  6174  002662  2802               	incf	(i2LCD_customDelay_ms@ms+1)^0,w,c
  6175  002664  E108               	bnz	i2u185_41
  6176  002666  2803               	incf	(i2LCD_customDelay_ms@ms+2)^0,w,c
  6177  002668  E106               	bnz	i2u185_41
  6178  00266A  2804               	incf	(i2LCD_customDelay_ms@ms+3)^0,w,c
  6179  00266C  A4D8               	btfss	status,2,c
  6180  00266E  EF3B  F013         	goto	i2u185_41
  6181  002672  EF3D  F013         	goto	i2u185_40
  6182  002676                     i2u185_41:
  6183  002676  EF23  F013         	goto	i2l2165
  6184  00267A                     i2u185_40:
  6185  00267A  0012               	return		;funcret
  6186  00267C                     __end_ofi2_LCD_customDelay_ms:
  6187                           	callstack 0
  6188                           
  6189 ;; *************** function i2_LCD_placeCursorInPosition *****************
  6190 ;; Defined at:
  6191 ;;		line 55 in file "./lcd.h"
  6192 ;; Parameters:    Size  Location     Type
  6193 ;;  position        1    wreg     unsigned char 
  6194 ;; Auto vars:     Size  Location     Type
  6195 ;;  position        1    0[COMRAM] unsigned char 
  6196 ;; Return value:  Size  Location     Type
  6197 ;;                  1    wreg      void 
  6198 ;; Registers used:
  6199 ;;		wreg
  6200 ;; Tracked objects:
  6201 ;;		On entry : 0/0
  6202 ;;		On exit  : 0/0
  6203 ;;		Unchanged: 0/0
  6204 ;; Data sizes:     COMRAM   BANK0   BANK1   BANK2   BANK3   BANK4   BANK5   BANK6   BANK7
  6205 ;;      Params:         0       0       0       0       0       0       0       0       0
  6206 ;;      Locals:         1       0       0       0       0       0       0       0       0
  6207 ;;      Temps:          0       0       0       0       0       0       0       0       0
  6208 ;;      Totals:         1       0       0       0       0       0       0       0       0
  6209 ;;Total ram usage:        1 bytes
  6210 ;; Hardware stack levels used: 1
  6211 ;; This function calls:
  6212 ;;		Nothing
  6213 ;; This function is called by:
  6214 ;;		_doorController_fire
  6215 ;;		_doorController_invasion
  6216 ;;		i2_doorController_openingDoor
  6217 ;;		i2_doorController_closingDoor
  6218 ;; This function uses a non-reentrant model
  6219 ;;
  6220                           
  6221                           	psect	text32
  6222  0026D2                     __ptext32:
  6223                           	callstack 0
  6224  0026D2                     i2_LCD_placeCursorInPosition:
  6225                           	callstack 24
  6226                           
  6227                           ;incstack = 0
  6228                           ;i2LCD_placeCursorInPosition@position stored from wreg
  6229  0026D2  6E01               	movwf	i2LCD_placeCursorInPosition@position^0,c
  6230  0026D4                     
  6231                           ;./lcd.h: 55: void LCD_placeCursorInPosition(char position);./lcd.h: 56: {;./lcd.h: 57: 
      +                             PORTEbits.RE2 = 0;
  6232  0026D4  9484               	bcf	132,2,c	;volatile
  6233                           
  6234                           ;./lcd.h: 58:    PORTEbits.RE1 = 1;
  6235  0026D6  8284               	bsf	132,1,c	;volatile
  6236  0026D8                     
  6237                           ;./lcd.h: 59:    PORTD = position;
  6238  0026D8  C001  FF83         	movff	i2LCD_placeCursorInPosition@position,3971	;volatile
  6239  0026DC                     
  6240                           ;./lcd.h: 60:    _delay((unsigned long)((50)*(4000000/4000000.0)));
  6241  0026DC  0E10               	movlw	16
  6242  0026DE                     i2u421_47:
  6243  0026DE  2EE8               	decfsz	wreg,f,c
  6244  0026E0  D7FE               	bra	i2u421_47
  6245  0026E2  D000               	nop2	
  6246  0026E4                     
  6247                           ;./lcd.h: 61:    PORTEbits.RE1 = 0;
  6248  0026E4  9284               	bcf	132,1,c	;volatile
  6249  0026E6                     
  6250                           ;./lcd.h: 62:    _delay((unsigned long)((50)*(4000000/4000000.0)));
  6251  0026E6  0E10               	movlw	16
  6252  0026E8                     i2u422_47:
  6253  0026E8  2EE8               	decfsz	wreg,f,c
  6254  0026EA  D7FE               	bra	i2u422_47
  6255  0026EC  D000               	nop2	
  6256  0026EE                     
  6257                           ;./lcd.h: 63:    PORTEbits.RE2 = 1;
  6258  0026EE  8484               	bsf	132,2,c	;volatile
  6259  0026F0  0012               	return		;funcret
  6260  0026F2                     __end_ofi2_LCD_placeCursorInPosition:
  6261                           	callstack 0
  6262                           
  6263 ;; *************** function i2_LCD_clearScreen *****************
  6264 ;; Defined at:
  6265 ;;		line 44 in file "./lcd.h"
  6266 ;; Parameters:    Size  Location     Type
  6267 ;;		None
  6268 ;; Auto vars:     Size  Location     Type
  6269 ;;		None
  6270 ;; Return value:  Size  Location     Type
  6271 ;;                  1    wreg      void 
  6272 ;; Registers used:
  6273 ;;		wreg, status,2
  6274 ;; Tracked objects:
  6275 ;;		On entry : 0/0
  6276 ;;		On exit  : 0/0
  6277 ;;		Unchanged: 0/0
  6278 ;; Data sizes:     COMRAM   BANK0   BANK1   BANK2   BANK3   BANK4   BANK5   BANK6   BANK7
  6279 ;;      Params:         0       0       0       0       0       0       0       0       0
  6280 ;;      Locals:         0       0       0       0       0       0       0       0       0
  6281 ;;      Temps:          0       0       0       0       0       0       0       0       0
  6282 ;;      Totals:         0       0       0       0       0       0       0       0       0
  6283 ;;Total ram usage:        0 bytes
  6284 ;; Hardware stack levels used: 1
  6285 ;; This function calls:
  6286 ;;		Nothing
  6287 ;; This function is called by:
  6288 ;;		_doorController_fire
  6289 ;;		_doorController_invasion
  6290 ;;		i2_doorController_openingDoor
  6291 ;;		i2_doorController_closingDoor
  6292 ;; This function uses a non-reentrant model
  6293 ;;
  6294                           
  6295                           	psect	text33
  6296  002710                     __ptext33:
  6297                           	callstack 0
  6298  002710                     i2_LCD_clearScreen:
  6299                           	callstack 24
  6300  002710                     
  6301                           ;./lcd.h: 46:    PORTEbits.RE2 = 0;
  6302  002710  9484               	bcf	132,2,c	;volatile
  6303                           
  6304                           ;./lcd.h: 47:    PORTEbits.RE1 = 1;
  6305  002712  8284               	bsf	132,1,c	;volatile
  6306  002714                     
  6307                           ;./lcd.h: 48:    PORTD = 0x01;
  6308  002714  0E01               	movlw	1
  6309  002716  6E83               	movwf	131,c	;volatile
  6310  002718                     
  6311                           ;./lcd.h: 49:    _delay((unsigned long)((50)*(4000000/4000000.0)));
  6312  002718  0E10               	movlw	16
  6313  00271A                     i2u423_47:
  6314  00271A  2EE8               	decfsz	wreg,f,c
  6315  00271C  D7FE               	bra	i2u423_47
  6316  00271E  D000               	nop2	
  6317  002720                     
  6318                           ;./lcd.h: 50:    PORTEbits.RE1 = 0;
  6319  002720  9284               	bcf	132,1,c	;volatile
  6320  002722                     
  6321                           ;./lcd.h: 51:    _delay((unsigned long)((50)*(4000000/4000000.0)));
  6322  002722  0E10               	movlw	16
  6323  002724                     i2u424_47:
  6324  002724  2EE8               	decfsz	wreg,f,c
  6325  002726  D7FE               	bra	i2u424_47
  6326  002728  D000               	nop2	
  6327  00272A                     
  6328                           ;./lcd.h: 52:    PORTEbits.RE2 = 1;
  6329  00272A  8484               	bsf	132,2,c	;volatile
  6330  00272C  0012               	return		;funcret
  6331  00272E                     __end_ofi2_LCD_clearScreen:
  6332                           	callstack 0
  6333                           
  6334                           	psect	rparam
  6335  0000                     
  6336                           	psect	temp
  6337  000049                     btemp:
  6338                           	callstack 0
  6339  000049                     	ds	1
  6340  0000                     int$flags	set	btemp
  6341  0000                     wtemp8	set	btemp+1
  6342  0000                     ttemp5	set	btemp+1
  6343  0000                     ttemp6	set	btemp+4
  6344  0000                     ttemp7	set	btemp+8
  6345                           
  6346                           	psect	idloc
  6347                           
  6348                           ;Config register IDLOC0 @ 0x200000
  6349                           ;	unspecified, using default values
  6350  200000                     	org	2097152
  6351  200000  FF                 	db	255
  6352                           
  6353                           ;Config register IDLOC1 @ 0x200001
  6354                           ;	unspecified, using default values
  6355  200001                     	org	2097153
  6356  200001  FF                 	db	255
  6357                           
  6358                           ;Config register IDLOC2 @ 0x200002
  6359                           ;	unspecified, using default values
  6360  200002                     	org	2097154
  6361  200002  FF                 	db	255
  6362                           
  6363                           ;Config register IDLOC3 @ 0x200003
  6364                           ;	unspecified, using default values
  6365  200003                     	org	2097155
  6366  200003  FF                 	db	255
  6367                           
  6368                           ;Config register IDLOC4 @ 0x200004
  6369                           ;	unspecified, using default values
  6370  200004                     	org	2097156
  6371  200004  FF                 	db	255
  6372                           
  6373                           ;Config register IDLOC5 @ 0x200005
  6374                           ;	unspecified, using default values
  6375  200005                     	org	2097157
  6376  200005  FF                 	db	255
  6377                           
  6378                           ;Config register IDLOC6 @ 0x200006
  6379                           ;	unspecified, using default values
  6380  200006                     	org	2097158
  6381  200006  FF                 	db	255
  6382                           
  6383                           ;Config register IDLOC7 @ 0x200007
  6384                           ;	unspecified, using default values
  6385  200007                     	org	2097159
  6386  200007  FF                 	db	255
  6387                           
  6388                           	psect	config
  6389                           
  6390                           ;Config register CONFIG1L @ 0x300000
  6391                           ;	PLL Prescaler Selection bits
  6392                           ;	PLLDIV = 1, No prescale (4 MHz oscillator input drives PLL directly)
  6393                           ;	System Clock Postscaler Selection bits
  6394                           ;	CPUDIV = OSC1_PLL2, [Primary Oscillator Src: /1][96 MHz PLL Src: /2]
  6395                           ;	USB Clock Selection bit (used in Full-Speed USB mode only; UCFG:FSEN = 1)
  6396                           ;	USBDIV = 1, USB clock source comes directly from the primary oscillator block with no 
      +                          postscale
  6397  300000                     	org	3145728
  6398  300000  00                 	db	0
  6399                           
  6400                           ;Config register CONFIG1H @ 0x300001
  6401                           ;	Oscillator Selection bits
  6402                           ;	FOSC = HS, HS oscillator (HS)
  6403                           ;	Fail-Safe Clock Monitor Enable bit
  6404                           ;	FCMEN = OFF, Fail-Safe Clock Monitor disabled
  6405                           ;	Internal/External Oscillator Switchover bit
  6406                           ;	IESO = OFF, Oscillator Switchover mode disabled
  6407  300001                     	org	3145729
  6408  300001  0C                 	db	12
  6409                           
  6410                           ;Config register CONFIG2L @ 0x300002
  6411                           ;	Power-up Timer Enable bit
  6412                           ;	PWRT = OFF, PWRT disabled
  6413                           ;	Brown-out Reset Enable bits
  6414                           ;	BOR = OFF, Brown-out Reset disabled in hardware and software
  6415                           ;	Brown-out Reset Voltage bits
  6416                           ;	BORV = 3, Minimum setting 2.05V
  6417                           ;	USB Voltage Regulator Enable bit
  6418                           ;	VREGEN = OFF, USB voltage regulator disabled
  6419  300002                     	org	3145730
  6420  300002  19                 	db	25
  6421                           
  6422                           ;Config register CONFIG2H @ 0x300003
  6423                           ;	Watchdog Timer Enable bit
  6424                           ;	WDT = ON, WDT enabled
  6425                           ;	Watchdog Timer Postscale Select bits
  6426                           ;	WDTPS = 4096, 1:4096
  6427  300003                     	org	3145731
  6428  300003  19                 	db	25
  6429                           
  6430                           ; Padding undefined space
  6431  300004                     	org	3145732
  6432  300004  FF                 	db	255
  6433                           
  6434                           ;Config register CONFIG3H @ 0x300005
  6435                           ;	CCP2 MUX bit
  6436                           ;	CCP2MX = ON, CCP2 input/output is multiplexed with RC1
  6437                           ;	PORTB A/D Enable bit
  6438                           ;	PBADEN = OFF, PORTB<4:0> pins are configured as digital I/O on Reset
  6439                           ;	Low-Power Timer 1 Oscillator Enable bit
  6440                           ;	LPT1OSC = OFF, Timer1 configured for higher power operation
  6441                           ;	MCLR Pin Enable bit
  6442                           ;	MCLRE = ON, MCLR pin enabled; RE3 input pin disabled
  6443  300005                     	org	3145733
  6444  300005  81                 	db	129
  6445                           
  6446                           ;Config register CONFIG4L @ 0x300006
  6447                           ;	Stack Full/Underflow Reset Enable bit
  6448                           ;	STVREN = OFF, Stack full/underflow will not cause Reset
  6449                           ;	Single-Supply ICSP Enable bit
  6450                           ;	LVP = OFF, Single-Supply ICSP disabled
  6451                           ;	Dedicated In-Circuit Debug/Programming Port (ICPORT) Enable bit
  6452                           ;	ICPRT = OFF, ICPORT disabled
  6453                           ;	Extended Instruction Set Enable bit
  6454                           ;	XINST = OFF, Instruction set extension and Indexed Addressing mode disabled (Legacy mo
      +                          de)
  6455                           ;	Background Debugger Enable bit
  6456                           ;	DEBUG = 0x1, unprogrammed default
  6457  300006                     	org	3145734
  6458  300006  80                 	db	128
  6459                           
  6460                           ; Padding undefined space
  6461  300007                     	org	3145735
  6462  300007  FF                 	db	255
  6463                           
  6464                           ;Config register CONFIG5L @ 0x300008
  6465                           ;	Code Protection bit
  6466                           ;	CP0 = OFF, Block 0 (000800-001FFFh) is not code-protected
  6467                           ;	Code Protection bit
  6468                           ;	CP1 = OFF, Block 1 (002000-003FFFh) is not code-protected
  6469                           ;	Code Protection bit
  6470                           ;	CP2 = OFF, Block 2 (004000-005FFFh) is not code-protected
  6471                           ;	Code Protection bit
  6472                           ;	CP3 = OFF, Block 3 (006000-007FFFh) is not code-protected
  6473  300008                     	org	3145736
  6474  300008  0F                 	db	15
  6475                           
  6476                           ;Config register CONFIG5H @ 0x300009
  6477                           ;	Boot Block Code Protection bit
  6478                           ;	CPB = OFF, Boot block (000000-0007FFh) is not code-protected
  6479                           ;	Data EEPROM Code Protection bit
  6480                           ;	CPD = OFF, Data EEPROM is not code-protected
  6481  300009                     	org	3145737
  6482  300009  C0                 	db	192
  6483                           
  6484                           ;Config register CONFIG6L @ 0x30000A
  6485                           ;	Write Protection bit
  6486                           ;	WRT0 = OFF, Block 0 (000800-001FFFh) is not write-protected
  6487                           ;	Write Protection bit
  6488                           ;	WRT1 = OFF, Block 1 (002000-003FFFh) is not write-protected
  6489                           ;	Write Protection bit
  6490                           ;	WRT2 = OFF, Block 2 (004000-005FFFh) is not write-protected
  6491                           ;	Write Protection bit
  6492                           ;	WRT3 = OFF, Block 3 (006000-007FFFh) is not write-protected
  6493  30000A                     	org	3145738
  6494  30000A  0F                 	db	15
  6495                           
  6496                           ;Config register CONFIG6H @ 0x30000B
  6497                           ;	Configuration Register Write Protection bit
  6498                           ;	WRTC = OFF, Configuration registers (300000-3000FFh) are not write-protected
  6499                           ;	Boot Block Write Protection bit
  6500                           ;	WRTB = OFF, Boot block (000000-0007FFh) is not write-protected
  6501                           ;	Data EEPROM Write Protection bit
  6502                           ;	WRTD = OFF, Data EEPROM is not write-protected
  6503  30000B                     	org	3145739
  6504  30000B  E0                 	db	224
  6505                           
  6506                           ;Config register CONFIG7L @ 0x30000C
  6507                           ;	Table Read Protection bit
  6508                           ;	EBTR0 = OFF, Block 0 (000800-001FFFh) is not protected from table reads executed in ot
      +                          her blocks
  6509                           ;	Table Read Protection bit
  6510                           ;	EBTR1 = OFF, Block 1 (002000-003FFFh) is not protected from table reads executed in ot
      +                          her blocks
  6511                           ;	Table Read Protection bit
  6512                           ;	EBTR2 = OFF, Block 2 (004000-005FFFh) is not protected from table reads executed in ot
      +                          her blocks
  6513                           ;	Table Read Protection bit
  6514                           ;	EBTR3 = OFF, Block 3 (006000-007FFFh) is not protected from table reads executed in ot
      +                          her blocks
  6515  30000C                     	org	3145740
  6516  30000C  0F                 	db	15
  6517                           
  6518                           ;Config register CONFIG7H @ 0x30000D
  6519                           ;	Boot Block Table Read Protection bit
  6520                           ;	EBTRB = OFF, Boot block (000000-0007FFh) is not protected from table reads executed in
      +                           other blocks
  6521  30000D                     	org	3145741
  6522  30000D  40                 	db	64
  6523                           tosu	equ	0xFFF
  6524                           tosh	equ	0xFFE
  6525                           tosl	equ	0xFFD
  6526                           stkptr	equ	0xFFC
  6527                           pclatu	equ	0xFFB
  6528                           pclath	equ	0xFFA
  6529                           pcl	equ	0xFF9
  6530                           tblptru	equ	0xFF8
  6531                           tblptrh	equ	0xFF7
  6532                           tblptrl	equ	0xFF6
  6533                           tablat	equ	0xFF5
  6534                           prodh	equ	0xFF4
  6535                           prodl	equ	0xFF3
  6536                           indf0	equ	0xFEF
  6537                           postinc0	equ	0xFEE
  6538                           postdec0	equ	0xFED
  6539                           preinc0	equ	0xFEC
  6540                           plusw0	equ	0xFEB
  6541                           fsr0h	equ	0xFEA
  6542                           fsr0l	equ	0xFE9
  6543                           wreg	equ	0xFE8
  6544                           indf1	equ	0xFE7
  6545                           postinc1	equ	0xFE6
  6546                           postdec1	equ	0xFE5
  6547                           preinc1	equ	0xFE4
  6548                           plusw1	equ	0xFE3
  6549                           fsr1h	equ	0xFE2
  6550                           fsr1l	equ	0xFE1
  6551                           bsr	equ	0xFE0
  6552                           indf2	equ	0xFDF
  6553                           postinc2	equ	0xFDE
  6554                           postdec2	equ	0xFDD
  6555                           preinc2	equ	0xFDC
  6556                           plusw2	equ	0xFDB
  6557                           fsr2h	equ	0xFDA
  6558                           fsr2l	equ	0xFD9
  6559                           status	equ	0xFD8

Data Sizes:
    Strings     130
    Constant    0
    Data        8
    BSS         4
    Persistent  0
    Stack       0

Auto Spaces:
    Space          Size  Autos    Used
    COMRAM           94     60      72
    BANK0           160     54      54
    BANK1           256      0       0
    BANK2           256      0       0
    BANK3           256      0       0
    BANK4           256      0       0
    BANK5           256      0       0
    BANK6           256      0       0
    BANK7           256      0       0

Pointer List with Targets:

    strlen@s	PTR const unsigned char  size(2) Largest target is 14
		 -> STR_16(CODE[11]), STR_15(CODE[11]), STR_14(CODE[9]), STR_13(CODE[11]), 
		 -> STR_12(CODE[10]), STR_11(CODE[12]), STR_10(CODE[12]), STR_9(CODE[8]), 
		 -> STR_8(CODE[11]), STR_7(CODE[11]), STR_6(CODE[8]), STR_5(CODE[12]), 
		 -> STR_4(CODE[8]), STR_3(CODE[9]), STR_2(CODE[12]), STR_1(CODE[14]), 

    strlen@a	PTR const unsigned char  size(2) Largest target is 14
		 -> STR_16(CODE[11]), STR_15(CODE[11]), STR_14(CODE[9]), STR_13(CODE[11]), 
		 -> STR_12(CODE[10]), STR_11(CODE[12]), STR_10(CODE[12]), STR_9(CODE[8]), 
		 -> STR_8(CODE[11]), STR_7(CODE[11]), STR_6(CODE[8]), STR_5(CODE[12]), 
		 -> STR_4(CODE[8]), STR_3(CODE[9]), STR_2(CODE[12]), STR_1(CODE[14]), 

    LCD_print@text	PTR unsigned char  size(2) Largest target is 14
		 -> STR_16(CODE[11]), STR_15(CODE[11]), STR_14(CODE[9]), STR_13(CODE[11]), 
		 -> STR_12(CODE[10]), STR_11(CODE[12]), STR_10(CODE[12]), STR_9(CODE[8]), 
		 -> STR_8(CODE[11]), STR_7(CODE[11]), STR_6(CODE[8]), STR_5(CODE[12]), 
		 -> STR_4(CODE[8]), STR_3(CODE[9]), STR_2(CODE[12]), STR_1(CODE[14]), 


Critical Paths under _main in COMRAM

    _main->___fldiv
    _init->_doorController_init
    _doorController_init->_LCD_print
    _doorController_openingDoor->_LCD_print
    _doorController_closingDoor->_LCD_print
    _LCD_print->_LCD_customDelay_ms
    _LCD_print->_strlen
    _LCD_printFloatNumber->___fldiv
    ___fltol->_floorf
    ___flsub->___fladd
    ___flmul->___xxtofl
    ___fldiv->___flmul

Critical Paths under _interrupt_service_routine in COMRAM

    i2_doorController_openingDoor->i2_LCD_print
    i2_doorController_closingDoor->i2_LCD_print
    _doorController_invasion->i2_LCD_print
    _doorController_fire->i2_LCD_print
    i2_LCD_print->i2_LCD_customDelay_ms
    i2_LCD_print->i2_strlen

Critical Paths under _main in BANK0

    _main->_LCD_printFloatNumber
    _LCD_printFloatNumber->___fldiv
    ___fldiv->___flmul

Critical Paths under _interrupt_service_routine in BANK0

    None.

Critical Paths under _main in BANK1

    None.

Critical Paths under _interrupt_service_routine in BANK1

    None.

Critical Paths under _main in BANK2

    None.

Critical Paths under _interrupt_service_routine in BANK2

    None.

Critical Paths under _main in BANK3

    None.

Critical Paths under _interrupt_service_routine in BANK3

    None.

Critical Paths under _main in BANK4

    None.

Critical Paths under _interrupt_service_routine in BANK4

    None.

Critical Paths under _main in BANK5

    None.

Critical Paths under _interrupt_service_routine in BANK5

    None.

Critical Paths under _main in BANK6

    None.

Critical Paths under _interrupt_service_routine in BANK6

    None.

Critical Paths under _main in BANK7

    None.

Critical Paths under _interrupt_service_routine in BANK7

    None.

Call Graph Tables:

 ---------------------------------------------------------------------------------
 (Depth) Function   	        Calls       Base Space   Used Autos Params    Refs
 ---------------------------------------------------------------------------------
 (0) _main                                                14    14      0   34123
                                             40 BANK0     14    14      0
          _LCD_placeCursorInPosition
                          _LCD_print
                      _LCD_printChar
               _LCD_printFloatNumber
                            ___fldiv
                             ___fleq
                             ___flge
                            ___flmul
                            ___flsub
                           ___xxtofl
         _doorController_closingDoor
         _doorController_openingDoor
                               _init
 ---------------------------------------------------------------------------------
 (1) _init                                                 0     0      0    2889
                           _ADC_init
                           _LCD_init
                _doorController_init
                     _interrupt_init
 ---------------------------------------------------------------------------------
 (2) _interrupt_init                                       0     0      0       0
 ---------------------------------------------------------------------------------
 (2) _doorController_init                                  2     2      0    2797
                                             38 COMRAM     2     2      0
                    _LCD_clearScreen
          _LCD_placeCursorInPosition
                          _LCD_print
 ---------------------------------------------------------------------------------
 (2) _LCD_init                                             9     9      0      92
                                             22 COMRAM     9     9      0
 ---------------------------------------------------------------------------------
 (2) _ADC_init                                             0     0      0       0
 ---------------------------------------------------------------------------------
 (1) _doorController_openingDoor                           0     0      0    3047
                    _LCD_clearScreen
                 _LCD_customDelay_ms
          _LCD_placeCursorInPosition
                          _LCD_print
 ---------------------------------------------------------------------------------
 (1) _doorController_closingDoor                           0     0      0    3047
                    _LCD_clearScreen
                 _LCD_customDelay_ms
          _LCD_placeCursorInPosition
                          _LCD_print
 ---------------------------------------------------------------------------------
 (3) _LCD_print                                           12     6      6    2775
                                             26 COMRAM    12     6      6
                 _LCD_customDelay_ms
                             _strlen
 ---------------------------------------------------------------------------------
 (4) _strlen                                               4     2      2     166
                                             22 COMRAM     4     2      2
 ---------------------------------------------------------------------------------
 (4) _LCD_customDelay_ms                                   4     0      4     250
                                             22 COMRAM     4     0      4
 ---------------------------------------------------------------------------------
 (3) _LCD_placeCursorInPosition                            1     1      0      22
                                             22 COMRAM     1     1      0
 ---------------------------------------------------------------------------------
 (3) _LCD_clearScreen                                      0     0      0       0
 ---------------------------------------------------------------------------------
 (1) ___fleq                                              12     4      8     494
                                             22 COMRAM    12     4      8
 ---------------------------------------------------------------------------------
 (1) _LCD_printFloatNumber                                14     8      6   11629
                                             26 BANK0     14     8      6
                      _LCD_printChar
                            ___fldiv
                             ___flge
                            ___flmul
                            ___flsub
                            ___fltol
                           ___xxtofl
                             _floorf
 ---------------------------------------------------------------------------------
 (2) _floorf                                              20    16      4     579
                                             22 COMRAM    20    16      4
 ---------------------------------------------------------------------------------
 (1) ___xxtofl                                            14    10      4     656
                                             22 COMRAM    14    10      4
 ---------------------------------------------------------------------------------
 (2) ___fltol                                             10     6      4     427
                                             42 COMRAM    10     6      4
                             _floorf (ARG)
 ---------------------------------------------------------------------------------
 (1) ___flsub                                              8     0      8    3827
                                             38 COMRAM     8     0      8
                            ___fladd
                           ___xxtofl (ARG)
 ---------------------------------------------------------------------------------
 (2) ___fladd                                             16     8      8    3262
                                             22 COMRAM    16     8      8
 ---------------------------------------------------------------------------------
 (1) ___flmul                                             25    17      8    2693
                                             36 COMRAM    12     4      8
                                              0 BANK0     13    13      0
                           ___xxtofl (ARG)
 ---------------------------------------------------------------------------------
 (1) ___flge                                              12     4      8     626
                                             22 COMRAM    12     4      8
 ---------------------------------------------------------------------------------
 (1) ___fldiv                                             25    17      8    2183
                                             48 COMRAM    12     4      8
                                             13 BANK0     13    13      0
                            ___flmul (ARG)
                           ___xxtofl (ARG)
 ---------------------------------------------------------------------------------
 (2) _LCD_printChar                                        1     1      0      31
                                             22 COMRAM     1     1      0
 ---------------------------------------------------------------------------------
 Estimated maximum stack depth 4
 ---------------------------------------------------------------------------------
 (Depth) Function   	        Calls       Base Space   Used Autos Params    Refs
 ---------------------------------------------------------------------------------
 (5) _interrupt_service_routine                            6     6      0    3772
                                             16 COMRAM     6     6      0
                _doorController_fire
            _doorController_invasion
       i2_doorController_closingDoor
       i2_doorController_openingDoor
 ---------------------------------------------------------------------------------
 (6) i2_doorController_openingDoor                         0     0      0     993
                  i2_LCD_clearScreen
               i2_LCD_customDelay_ms
        i2_LCD_placeCursorInPosition
                        i2_LCD_print
 ---------------------------------------------------------------------------------
 (6) i2_doorController_closingDoor                         0     0      0     993
                  i2_LCD_clearScreen
               i2_LCD_customDelay_ms
        i2_LCD_placeCursorInPosition
                        i2_LCD_print
 ---------------------------------------------------------------------------------
 (6) _doorController_invasion                              0     0      0     893
                  i2_LCD_clearScreen
        i2_LCD_placeCursorInPosition
                        i2_LCD_print
 ---------------------------------------------------------------------------------
 (6) _doorController_fire                                  0     0      0     893
                  i2_LCD_clearScreen
        i2_LCD_placeCursorInPosition
                        i2_LCD_print
 ---------------------------------------------------------------------------------
 (7) i2_LCD_print                                         12     6      6     871
                                              4 COMRAM    12     6      6
               i2_LCD_customDelay_ms
                           i2_strlen
 ---------------------------------------------------------------------------------
 (8) i2_strlen                                             4     2      2     116
                                              0 COMRAM     4     2      2
 ---------------------------------------------------------------------------------
 (8) i2_LCD_customDelay_ms                                 4     0      4     100
                                              0 COMRAM     4     0      4
 ---------------------------------------------------------------------------------
 (7) i2_LCD_placeCursorInPosition                          1     1      0      22
                                              0 COMRAM     1     1      0
 ---------------------------------------------------------------------------------
 (7) i2_LCD_clearScreen                                    0     0      0       0
 ---------------------------------------------------------------------------------
 Estimated maximum stack depth 8
 ---------------------------------------------------------------------------------

 Call Graph Graphs:

 _main (ROOT)
   _LCD_placeCursorInPosition
   _LCD_print
     _LCD_customDelay_ms
     _strlen
   _LCD_printChar
   _LCD_printFloatNumber
     _LCD_printChar
     ___fldiv
       ___flmul (ARG)
         ___xxtofl (ARG)
       ___xxtofl (ARG)
     ___flge
     ___flmul
     ___flsub
       ___fladd
       ___xxtofl (ARG)
     ___fltol
       _floorf (ARG)
     ___xxtofl
     _floorf
   ___fldiv
   ___fleq
   ___flge
   ___flmul
   ___flsub
   ___xxtofl
   _doorController_closingDoor
     _LCD_clearScreen
     _LCD_customDelay_ms
     _LCD_placeCursorInPosition
     _LCD_print
   _doorController_openingDoor
     _LCD_clearScreen
     _LCD_customDelay_ms
     _LCD_placeCursorInPosition
     _LCD_print
   _init
     _ADC_init
     _LCD_init
     _doorController_init
       _LCD_clearScreen
       _LCD_placeCursorInPosition
       _LCD_print
     _interrupt_init

 _interrupt_service_routine (ROOT)
   _doorController_fire
     i2_LCD_clearScreen
     i2_LCD_placeCursorInPosition
     i2_LCD_print
       i2_LCD_customDelay_ms
       i2_strlen
   _doorController_invasion
     i2_LCD_clearScreen
     i2_LCD_placeCursorInPosition
     i2_LCD_print
   i2_doorController_closingDoor
     i2_LCD_clearScreen
     i2_LCD_customDelay_ms
     i2_LCD_placeCursorInPosition
     i2_LCD_print
   i2_doorController_openingDoor
     i2_LCD_clearScreen
     i2_LCD_customDelay_ms
     i2_LCD_placeCursorInPosition
     i2_LCD_print

 Address spaces:
Name               Size   Autos  Total    Cost      Usage
BIGRAM             7FF      0       0      21        0.0%
EEDATA             100      0       0       0        0.0%
BITBANK7           100      0       0      18        0.0%
BANK7              100      0       0      19        0.0%
BITBANK6           100      0       0      16        0.0%
BANK6              100      0       0      17        0.0%
BITBANK5           100      0       0      14        0.0%
BANK5              100      0       0      15        0.0%
BITBANK4           100      0       0      12        0.0%
BANK4              100      0       0      13        0.0%
BITBANK3           100      0       0      10        0.0%
BANK3              100      0       0      11        0.0%
BITBANK2           100      0       0       8        0.0%
BANK2              100      0       0       9        0.0%
BITBANK1           100      0       0       6        0.0%
BANK1              100      0       0       7        0.0%
BITBANK0            A0      0       0       4        0.0%
BANK0               A0     36      36       5       33.8%
BITCOMRAM           5E      0       0       0        0.0%
COMRAM              5E     3C      48       1       76.6%
BITSFR               0      0       0     200        0.0%
SFR                  0      0       0     200        0.0%
STACK                0      0       0       2        0.0%
NULL                 0      0       0       0        0.0%
ABS                  0      0      7E      20        0.0%
DATA                 0      0      7E       3        0.0%
CODE                 0      0       0       0        0.0%


Microchip Technology PIC18 Macro Assembler V2.32 build 20210201212658 
Symbol Table                                                                                   Thu May 27 08:47:46 2021

                         ___fldiv@aexp 0079                           ___fldiv@bexp 0078  
                         ___fldiv@sign 0071                                     l50 24AA  
                                   l51 24AC                                     l54 270E  
                                   l63 2606                                     l72 2748  
                                   l57 26D0                                     l49 2466  
                                   l83 1C5A                                     l67 2366  
                                   l69 23C2                                     l88 2760  
               __end_of_interrupt_init 2762                                    l110 2786  
                                  l120 2212                                    l121 2214  
                                  l113 203A                                    l130 2774  
                                  l116 217A                                    l117 217C  
                                  l137 1758                                    l414 1F26  
                                  l408 20E4                                    l419 1F6C  
                                  l446 1E68                                    l703 0C5C  
                                  l704 0C4A                                    l731 150A  
                                  l811 19FC                                    l804 1964  
                                  l733 136A                                    l742 13B0  
                                  l719 2592                                    l807 1AC0  
                                  l744 1428                                    l736 132E  
                                  l745 1416                                    l770 1000  
                                  l818 1A58                                    l826 171C  
                                  l763 0E0A                                    l780 1130  
                                  l772 1078                                    l773 1066  
                                  l677 0A72                                    l829 1660  
                                  l694 0B8C                                    l686 0D42  
                                  l678 0A60                                    l767 116E  
                                  l679 0A26                                    l839 25CC  
                                  wreg 000FE8                           ___flmul@aexp 0061  
                         ___flmul@bexp 0066                        i2LCD_print@text 0005  
                         ___flmul@sign 0060                           ___flmul@temp 006B  
                         ___flmul@prod 0067                 ??i2_LCD_customDelay_ms 0005  
                         ___fltol@exp1 0034                                   l3001 0976  
                                 l2201 248E                                   l3011 0994  
                                 l3003 0984                                   l3101 0BD0  
                                 l3021 09A8                                   l3013 0998  
                                 l3005 0988                                   l3111 0BFA  
                                 l3103 0BDE                                   l3031 09BC  
                                 l3023 09AC                                   l3015 099C  
                                 l3007 098C                                   l3201 118C  
                                 l3121 0C2C                                   l3113 0C0A  
                                 l3105 0BE0                                   l3041 0A0E  
                                 l3033 09C0                                   l3025 09B0  
                                 l3017 09A0                                   l3009 0990  
                                 l2241 274A                                   l3211 11C0  
                                 l3203 118E                                   l3131 0C86  
                                 l3123 0C42                                   l3107 0BEE  
                                 l3115 0C0C                                   l3051 0A52  
                                 l3043 0A1E                                   l3027 09B4  
                                 l3019 09A4                                   l3035 09C4  
                                 l2243 2776                                   l2251 1F72  
                                 l3221 11F2                                   l3205 119E  
                                 l3213 11C8                                   l3141 0D02  
                                 l3133 0CC0                                   l3109 0BF6  
                                 l3117 0C1A                                   l3053 0A54  
                                 l3045 0A34                                   l3037 09C8  
                                 l3029 09B8                                   l2245 2778  
                                 l2181 244A                                   l2261 1FBC  
                                 l2253 1F78                                   l3303 1438  
                                 l3311 1480                                   l3231 1226  
                                 l3223 11F4                                   l3215 11D8  
                                 l3207 11AE                                   l3151 0D22  
                                 l3143 0D06                                   l3127 0C6C  
                                 l3135 0CC2                                   l3119 0C1E  
                                 l3071 0ADC                                   l3063 0AA4  
                                 l3055 0A5E                                   l3047 0A40  
                                 l3039 09F2                                   l2247 2784  
                                 l2191 2468                                   l2183 244C  
                                 l2271 2014                                   l2263 1FD8  
                                 l2255 1F94                                   l3161 2732  
                                 l3321 14EA                                   l3313 149A  
                                 l3305 1444                                   l3241 126C  
                                 l3225 1204                                   l3233 122E  
                                 l3217 11DE                                   l3209 11BE  
                                 l3401 0F06                                   l3153 0D30  
                                 l3145 0D14                                   l3137 0CD2  
                                 l3129 0C78                                   l3073 0AE0  
                                 l3065 0AB4                                   l3057 0A80  
                                 l3081 0B00                                   l3049 0A44  
                                 l2193 2478                                   l2185 245E  
                                 l2273 201A                                   l2265 1FEE  
                                 l2257 1F9A                                   l2249 1F6E  
                                 l3163 2736                                   l3323 14F8  
                                 l3315 14B0                                   l3307 1452  
                                 l3251 1294                                   l3243 1270  
                                 l3235 123E                                   l3227 1214  
                                 l3219 11E4                                   l3411 0F84  
                                 l3403 0F16                                   l3155 0D32  
                                 l3147 0D1A                                   l3139 0CE2  
                                 l3083 0B26                                   l3091 0B7C  
                                 l3075 0AEE                                   l3067 0AC2  
                                 l3059 0A90                                   l3171 152C  
                                 l2195 2480                                   l2179 2442  
                                 l2275 2036                                   l2267 1FF2  
                                 l2259 1FB6                                   l3165 273E  
                                 l3325 14FE                                   l3317 14CA  
                                 l3309 147C                                   l3261 12E2  
                                 l3237 1254                                   l3229 1224  
                                 l3421 0FFE                                   l3413 0FBA  
                                 l3405 0F32                                   l3341 0D62  
                                 l3149 0D1C                                   l3093 0BA2  
                                 l3085 0B5A                                   l3077 0AF0  
                                 l3069 0AD0                                   l3501 1DB8  
                                 l3181 1614                                   l3173 1582  
                                 l2197 2482                                   l2269 1FF8  
                                 l3167 2740                                   l3159 2730  
                                 l3327 1500                                   l3319 14E6  
                                 l3271 132C                                   l3263 12F2  
                                 l3255 12A8                                   l3239 1264  
                                 l3247 1284                                   l3431 105E  
                                 l3423 1010                                   l3415 0FC8  
                                 l3407 0F3E                                   l3351 0DA8  
                                 l3343 0D72                                   l3335 0D44  
                                 l3095 0BB2                                   l3087 0B5C  
                                 l3079 0AFA                                   l3503 1DBA  
                                 l3191 16FC                                   l3183 1650  
                                 l3175 1596                                   l1911 2594  
                                 l2199 248A                                   l3281 137A  
                                 l3273 1338                                   l3265 12FA  
                                 l3257 12C2                                   l3249 1294  
                                 l3441 10CC                                   l3425 101E  
                                 l3417 0FE6                                   l3409 0F5A  
                                 l3361 0DD4                                   l3353 0DAE  
                                 l3345 0D82                                   l3337 0D52  
                                 l3089 0B6C                                   l3505 1DCA  
                                 l3193 170C                                   l3177 15A4  
                                 l3185 1684                                   l3169 150C  
                                 l3601 1BC0                                   l2801 20DC  
                                 l1921 26F2                                   l1905 25CE  
                                 l1913 25A0                                   l2721 20F8  
                                 l3283 1390                                   l3291 13C0  
                                 l3275 1356                                   l3267 130A  
                                 l3259 12D2                                   l3451 1134  
                                 l3435 1088                                   l3443 10D0  
                                 l3427 1022                                   l3419 0FF0  
                                 l3371 0E2A                                   l3363 0DE4  
                                 l3355 0DB4                                   l3347 0D92  
                                 l3339 0D60                                   l3099 0BC6  
                                 l3531 1E48                                   l3515 1DF4  
                                 l3507 1DCE                                   l3187 16C0  
                                 l3603 1C04                                   l2803 20E2  
                                 l1931 270C                                   l1923 26F6  
                                 l1907 25D2                                   l1915 25A4  
                                 l2731 2140                                   l2723 20FC  
                                 l3611 171E                                   l3293 13CE  
                                 l3285 1396                                   l3277 1358  
                                 l3269 131E                                   l3197 1170  
                                 l3461 115E                                   l3453 1144  
                                 l3445 10EA                                   l3437 1094  
                                 l3429 1030                                   l3381 0E6A  
                                 l3365 0DF4                                   l3357 0DC2  
                                 l3349 0D98                                   l3533 1E58  
                                 l3525 1E1C                                   l3517 1DFE  
                                 l3509 1DDC                                   l3541 192E  
                                 l3189 16D4                                   l3605 1C0E  
                                 l1925 26FA                                   l1941 26C6  
                                 l1933 26B4                                   l1909 25DA  
                                 l1917 25C0                                   l2733 2154  
                                 l2725 2102                                   l3621 1744  
                                 l3613 1722                                   l3295 13D2  
                                 l3287 13A0                                   l3279 1368  
                                 l3199 117E                                   l3471 1E6A  
                                 l3455 1152                                   l3447 10FE  
                                 l3439 10A2                                   l3391 0EB4  
                                 l3383 0E76                                   l3375 0E3E  
                                 l3367 0DFA                                   l3359 0DC4  
                                 l3527 1E28                                   l3519 1E08  
                                 l3551 19A6                                   l3543 1974  
                                 l3607 1C22                                   l1927 2702  
                                 l1943 26CE                                   l1935 26B8  
                                 l1951 2382                                   l2751 217E  
                                 l2735 215A                                   l2727 211E  
                                 l2719 20E6                                   l3631 1884  
                                 l3623 1756                                   l3615 1722  
                                 l3297 13E0                                   l3289 13AE  
                                 l3481 1EF4                                   l3473 1E98  
                                 l3457 1154                                   l3449 1118  
                                 l3393 0EC0                                   l3385 0E8E  
                                 l3377 0E4A                                   l3369 0E1A  
                                 l3465 254E                                   l3529 1E38  
                                 l3561 1A2E                                   l3553 19B2  
                                 l3545 198A                                   l3537 1910  
                                 l3609 1C28                                   l1929 2704  
                                 l1937 26BC                                   l1953 2396  
                                 l1945 2346                                   l2761 21BC  
                                 l2753 2190                                   l2737 2176  
                                 l2729 2124                                   l3641 18D6  
                                 l3633 188C                                   l3625 1766  
                                 l3617 1734                                   l3299 140E  
                                 l3483 1F06                                   l3475 1EA8  
                                 l3459 115A                                   l3395 0ED0  
                                 l3387 0E9A                                   l3379 0E54  
                                 l3467 255E                                   l3571 1A6C  
                                 l3563 1A3A                                   l3555 19E4  
                                 l3539 1920                                   l1939 26C4  
                                 l1955 2398                                   l1947 235A  
                                 l2763 21D8                                   l2755 2194  
                                 l3643 18DC                                   l3635 1890  
                                 l3627 17EC                                   l3619 1734  
                                 l3485 1F14                                   l3477 1ED6  
                                 l3397 0EDC                                   l3389 0EA6  
                                 l3493 1D64                                   l3573 1A90  
                                 l3565 1A48                                   l3557 19E6  
                                 l3549 199E                                   l1957 23A0  
                                 l1949 2368                                   l2765 21EC  
                                 l2757 219A                                   l3645 18E2  
                                 l3637 1896                                   l3629 181E  
                                 l3487 1F64                                   l3479 1EE6  
                                 l3399 0EEC                                   l3495 1D7A  
                                 l3575 1AA0                                   l3567 1A66  
                                 l3559 19F2                                   l3591 1B3A  
                                 l3583 1AC2                                   l2791 203C  
                                 l1959 23A4                                   l2767 21F2  
                                 l2759 21B6                                   l2783 2762  
                                 l3639 18B8                                   l3647 18F2  
                                 l3489 1F6A                                   l2961 089E  
                                 l3577 1AAE                                   l3569 1A68  
                                 l3593 1B4C                                   l3585 1AD0  
                                 l2793 206A                                   l2769 220E  
                                 l2785 2766                                   l3649 1904  
                                 l2971 08D2                                   l2963 08A0  
                                 l3499 1D8E                                   l3579 1AB0  
                                 l3595 1B5C                                   l3587 1B04  
                                 l2795 207A                                   l2787 276A  
                                 l2981 0904                                   l2965 08B0  
                                 l2973 08DA                                   l2957 0884  
                                 l3597 1B5E                                   l3589 1B08  
                                 l2797 20A8                                   l2789 276E  
                                 l2991 093A                                   l2983 090A  
                                 l2975 08EA                                   l2967 08C0  
                                 l2959 0890                                   l3599 1B92  
                                 l2799 20B8                                   l2993 094A  
                                 l2985 0918                                   l2977 08F0  
                                 l2969 08D0                                   l2995 094C  
                                 l2987 091A                                   l2979 0902  
                                 l2989 092A                                   l2997 0954  
                                 l2999 0964                                   STR_1 0801  
                                 STR_2 0827                                   STR_3 0872  
                                 STR_4 087B                                   STR_5 080F  
                                 STR_6 087B                                   STR_7 083E  
                                 STR_8 0833                                   STR_9 087B  
                                 u3000 0A80                                   u3001 0A7C  
                                 u3010 0A90                                   u3011 0A8C  
                                 u3100 0BEE                                   u3020 0AC2  
                                 u3101 0BEA                                   u3021 0ABE  
                                 u3110 0C0A                                   u3030 0AD0  
                                 u1430 2606                                   u3111 0C06  
                                 u3031 0ACC                                   u1431 2602  
                                 u3200 0CE2                                   u3120 0C1A  
                                 u3040 0AEE                                   u4000 1C22  
                                 u1440 25C0                                   u3201 0CDE  
                                 u3121 0C16                                   u3041 0AEA  
                                 u4001 1C1E                                   u1441 25BC  
                                 u3210 0D02                                   u3130 0C2C  
                                 u3050 0B26                                   u4010 1C5A  
                                 u1450 23C2                                   u3211 0CFE  
                                 u3131 0C28                                   u3051 0B22  
                                 u4011 1C56                                   u1451 23BE  
                                 u3220 0D14                                   u3140 0C42  
                                 u3060 0B6C                                   u3300 1650  
                                 u4020 1744                                   u3221 0D10  
                                 u3141 0C3E                                   u3061 0B68  
                                 u3301 164C                                   u4021 1740  
                                 u3230 0D30                                   u3150 0C58  
                                 u3070 0BA2                                   u3310 16A4  
                                 u4030 1756                                   u3231 0D2C  
                                 u3151 0C54                                   u3071 0B9E  
                                 u4031 1752                                   u3400 1254  
                                 u3160 0C6C                                   u3080 0BB2  
                                 u3320 16C0                                   u3240 1554  
                                 u4040 1766                                   u3401 1250  
                                 u3161 0C68                                   u3081 0BAE  
                                 u3321 16BC                                   u4041 1762  
                                 u3410 1294                                   u3170 0C86  
                                 u3090 0BDE                                   u3330 16FC  
                                 u3250 1582                                   u4050 181E  
                                 u3411 1290                                   u3171 0C82  
                                 u3091 0BDA                                   u3331 16F8  
                                 u3315 169A                                   u3251 157E  
                                 u4107 2484                                   u4051 181A  
                                 u3500 140E                                   u3420 130A  
                                 u3340 118C                                   u3180 0CC0  
                                 u3260 15A4                                   u2700 206A  
                                 u4060 1884                                   u3501 140A  
                                 u3421 1306                                   u3341 1188  
                                 u3181 0CBC                                   u3261 15A0  
                                 u3245 154A                                   u2701 2066  
                                 u4117 239A                                   u4061 1880  
                                 u3510 1424                                   u3430 132C  
                                 u3350 119E                                   u3190 0CD2  
                                 u2710 20A8                                   u4070 1904  
                                 u3511 1420                                   u3431 1328  
                                 u3351 119A                                   u3191 0CCE  
                                 u2711 20A4                                   u4127 25D4  
                                 u4071 1900                                   u3520 1438  
                                 u3440 1356                                   u3360 11AE  
                                 u3600 0DC2                                   u3280 1610  
                                 u2720 20DC                                   u3521 1434  
                                 u3441 1352                                   u3361 11AA  
                                 u3601 0DBE                                   u3281 160C  
                                 u2721 20D8                                   u4137 26BE  
                                 u3530 1452                                   u3450 137A  
                                 u3370 11F2                                   u3610 0DD4  
                                 u3290 1634                                   u3531 144E  
                                 u3451 1376                                   u3371 11EE  
                                 u3611 0DD0                                   u3275 15B8  
                                 u4147 26C8                                   u3540 149A  
                                 u3460 1390                                   u3380 1204  
                                 u3700 1074                                   u3620 0DE4  
                                 u2900 092A                                   u3276 15C2  
                                 u3541 1496                                   u3461 138C  
                                 u3381 1200                                   u3701 1070  
                                 u3621 0DE0                                   u2901 0926  
                                 u3277 15D2                                   u4157 26FC  
                                 u3550 14CA                                   u3470 13AE  
                                 u3390 1214                                   u3710 1088  
                                 u3630 0E1A                                   u2910 093A  
                                 u3551 14C6                                   u3471 13AA  
                                 u3391 1210                                   u3711 1084  
                                 u3631 0E16                                   u2911 0936  
                                 u3295 162A                                   u4167 2706  
                                 u1871 2456                                   u4087 1FE2  
                                 u3560 14F8                                   u3480 13CE  
                                 u3800 1F64                                   u3720 10A2  
                                 u3640 0E2A                                   u2920 0976  
                                 u2680 20F8                                   u1880 24AA  
                                 u4177 2738                                   u3561 14F4  
                                 u3481 13CA                                   u3801 1F60  
                                 u3721 109E                                   u3641 0E26  
                                 u2921 0972                                   u2681 20F4  
                                 u1881 24A6                                   u4097 247A  
                                 u3490 13E0                                   u3730 10EA  
                                 u3650 0FA4                                   u3570 0D60  
                                 u2930 0984                                   u2850 089E  
                                 u3810 1D7A                                   u2690 2190  
                                 u4187 2742                                   u3491 13DC  
                                 u3731 10E6                                   u3571 0D5C  
                                 u2931 0980                                   u2851 089A  
                                 u3811 1D76                                   u2691 218C  
                                 u3740 1118                                   u3660 0FFE  
                                 u3580 0D72                                   u2940 09F2  
                                 u2860 08B0                                   u3820 1DAE  
                                 u3900 198A                                   u3741 1114  
                                 u3661 0FFA                                   u3581 0D6E  
                                 u2941 09EE                                   u2861 08AC  
                                 u3901 1986                                   u3750 1152  
                                 u3670 101E                                   u3590 0D82  
                                 u2950 0A0A                                   u2870 08C0  
                                 u3830 1DDC                                   u3910 19E0  
                                 u3751 114E                                   u3671 101A  
                                 u3655 0F9A                                   u3591 0D7E  
                                 u2951 0A04                                   u2871 08BC  
                                 u3831 1DD8                                   u3911 19DC  
                                 u3760 1E98                                   u3680 1030  
                                 u2960 0A0C                                   u2880 0902  
                                 u3840 1DF0                                   u3920 1A2A  
                                 u3761 1E94                                   u3681 102C  
                                 u2881 08FE                                   u3841 1DEC  
                                 u3825 1DA4                                   u3921 1A26  
                                 u3770 1ED6                                   u3690 105E  
                                 u2970 0A34                                   u2890 0918  
                                 u3850 1E18                                   u3930 1A48  
                                 u3771 1ED2                                   u3691 105A  
                                 u2971 0A30                                   u2891 0914  
                                 u3851 1E14                                   u3931 1A44  
                                 u3780 1EF4                                   u2980 0A52  
                                 u3860 1E38                                   u3940 1A58  
                                 u3781 1EF0                                   u2981 0A4E  
                                 u3861 1E34                                   u3941 1A54  
                                 u3790 1F14                                   u2990 0A72  
                                 u3870 1E48                                   u3950 1A66  
                                 u3791 1F10                                   u2991 0A6E  
                                 u3871 1E44                                   u3951 1A62  
                                 u3960 1AA0                                   u3880 1920  
                                 u3961 1A9C                                   u3881 191C  
                                 u3970 1AAE                                   u3890 192E  
                                 u3971 1AAA                                   u3891 192A  
                                 u3980 1B3A                                   u3981 1B36  
                                 i2l54 272C                                   u3990 1B4C  
                                 i2l63 267A                                   u3991 1B48  
                                 i2l57 26F0                                   i2l67 23E4  
                                 i2l69 2440                                   i2l93 1CDE  
                                 i2l97 1C92                                   i2l98 1CDC  
                                 _main 171E                                   _init 2762  
                       LCD_init@config 0017                      i2_LCD_clearScreen 2710  
                                 indf2 000FDF                                   fsr1l 000FE1  
                                 fsr2l 000FD9                                   btemp 0049  
                                 prodh 000FF4                                   prodl 000FF3  
                                 start 000E                       __end_of_ADC_init 2788  
                      ___fldiv@new_exp 0072                     ?i2_LCD_clearScreen 0001  
                     i2LCD_print@delay 0007                     __size_of_LCD_print 007E  
                         ___param_bank 000000                 __size_of_LCD_printChar 001C  
                  ??i2_LCD_clearScreen 0001                       __end_of_LCD_init 24AE  
                         main@distance 008E                          ___fltol@sign1 0033  
                      __end_of___fladd 0D44                                  ?_main 0001  
                                ?_init 0001                        __end_of___fldiv 150C  
                                STR_10 081B                                  STR_11 080F  
                                STR_12 085F                                  STR_13 0854  
                                STR_14 0869                                  STR_15 0854  
                                STR_16 0849                        __end_of___flmul 1170  
                      __end_of___flsub 2594                        __end_of___fltol 1E6A  
                      ?_interrupt_init 0001                                  i2l100 1D4E  
                                i2l103 1D02                                  i2l120 2342  
                                i2l104 1D4C                                  i2l121 2344  
                                i2l107 1D50                                  i2l124 254C  
                                i2l116 22AA                                  i2l117 22AC  
                                i2l127 24FC                                  i2l839 2640  
                                _PORTD 000F83                                  _TRISD 000F95  
                                _TRISE 000F96              __end_ofi2_LCD_clearScreen 272E  
                                tablat 000FF5         ??i2_doorController_openingDoor 0011  
                         ?i2_LCD_print 0005                                  plusw1 000FE3  
                                plusw2 000FDB                                  ttemp5 004A  
                                ttemp6 004D                                  ttemp7 0051  
                                status 000FD8                                  wtemp8 004A  
  __end_ofi2_LCD_placeCursorInPosition 26F2            i2_LCD_placeCursorInPosition 26D2  
                     __end_ofi2_strlen 2642                      i2LCD_print@length 000D  
                      __initialization 267C                      ??_LCD_clearScreen 0017  
                 _LCD_printFloatNumber 1AC2                           __end_of_main 190E  
                         __end_of_init 2776                                 ??_main 0088  
                               ??_init 0029                          __activetblptr 000002  
           __end_of_LCD_customDelay_ms 2608                   LCD_customDelay_ms@ms 0017  
                    __end_of_LCD_print 23C4                                 _ADCON0 000FC2  
                               _ADCON1 000FC1                          _LCD_printChar 272E  
                               _ADCON2 000FC0                                 _ADRESH 000FC4  
                               _ADRESL 000FC3           ??_doorController_closingDoor 0027  
                               i2l1601 2714                                 i2l1603 2718  
                               i2l2163 2642                                 i2l2171 2614  
                               i2l1605 2720                                 i2l2165 2646  
                               i2l2173 2618                                 i2l1607 2722  
                               i2l2167 264E                                 i2l2175 2634  
                               i2l1609 272A                                 i2l2169 2608  
                               i2l2811 222C                                 i2l2741 2502  
                               i2l2821 2284                                 i2l2813 2232  
                               i2l1599 2710                                 i2l2671 26E6  
                               i2l2663 26D4                                 i2l2743 2508  
                               i2l2831 22C4                                 i2l2823 228A  
                               i2l2815 224E                                 i2l2807 2216  
                               i2l2673 26EE                                 i2l2665 26D8  
                               i2l2681 2400                                 i2l2745 2524  
                               i2l2841 231C                                 i2l2833 22CA  
                               i2l2825 22A6                                 i2l2817 2254  
                               i2l2809 2228                                 i2l2667 26DC  
                               i2l2683 2414                                 i2l2675 23C4  
                               i2l2747 252A                                 i2l2739 24FE  
                               i2l2771 24AE                                 i2l2843 2322  
                               i2l2835 22E6                                 i2l2827 22AE  
                               i2l2819 2270                                 i2l2669 26E4  
                               i2l2685 2416                                 i2l2677 23D8  
                               i2l2749 2546                                 i2l2781 24F6  
                               i2l2773 24B2                                 i2l2845 233E  
                               i2l2837 22EC                                 i2l2829 22C0  
                               i2l2853 1C8E                                 i2l2687 241E  
                               i2l2679 23E6                                 i2l2775 24B8  
                               i2l2839 2308                                 i2l2863 1CFE  
                               i2l2855 1C9A                                 i2l2847 1C6E  
                               i2l2689 2422                                 i2l2777 24D4  
                               i2l2865 1D0A                                 i2l2857 1CA2  
                               i2l2849 1C7C                                 i2l2779 24DA  
                               i2l2867 1D12                                 i2l2859 1CEC  
                               i2l3691 1CB6                                 i2l3693 1D26  
                     __end_of___xxtofl 1AC2                  ?_LCD_printFloatNumber 007A  
                               ___flge 1E6A                                 ___fleq 203C  
                            ??___fladd 001F                              ??___fldiv 0039  
                            ??___flmul 002D                              ??___flsub 002F  
                            ??___fltol 002F                                 _floorf 150C  
                               isa$std 000001                                 _strlen 2594  
  __size_of_doorController_closingDoor 0098                         LCD_print@delay 001D  
                         __pdataCOMRAM 003D               ?_doorController_invasion 0001  
                         __mediumconst 0000                                 tblptrh 000FF7  
                               tblptrl 000FF6                                 tblptru 000FF8  
                            ?_ADC_init 0001                         ?_LCD_printChar 0001  
           __size_ofi2_LCD_clearScreen 001E                             ___flge@ff1 0017  
                           ___flge@ff2 001B                           ___xxtofl@arg 0021  
                         ___xxtofl@exp 0020                           ___xxtofl@val 0017  
                           ___fleq@ff1 0017                             ___fleq@ff2 001B  
                           __accesstop 0060                __end_of__initialization 26A4  
                            ?_LCD_init 0001                          ___rparam_used 000001  
                           ___fltol@f1 002B            ??_interrupt_service_routine 0011  
                       __pcstackCOMRAM 0001                    LCD_printChar@letter 0017  
                            LCD_init@i 001E     __size_of_LCD_placeCursorInPosition 0020  
           ?_LCD_placeCursorInPosition 0001   __end_ofi2_doorController_closingDoor 2346  
__size_ofi2_doorController_closingDoor 0098           i2_doorController_closingDoor 22AE  
                           ??_ADC_init 0017                              ?i2_strlen 0001  
         __size_of_doorController_fire 0050           __size_of_doorController_init 00CE  
                           ??_LCD_init 0017                   __size_ofi2_LCD_print 007E  
               ??_LCD_printFloatNumber 0080                                ?___flge 0017  
                              ?___fleq 0017                       ??_interrupt_init 0017  
                              ?_floorf 0017                                ?_strlen 0017  
            _interrupt_service_routine 0008                        ??_LCD_printChar 0017  
                            ?___xxtofl 0017           ??_doorController_openingDoor 0027  
    __end_of_LCD_placeCursorInPosition 26D2                             ??i2_strlen 0003  
   __end_of_doorController_closingDoor 2216          ?i2_doorController_closingDoor 0001  
           _doorController_closingDoor 217E                           i2LCD_print@i 000F  
                      _LCD_clearScreen 26F2          __size_ofi2_LCD_customDelay_ms 003A  
                           _doorStatus 0044                                __Hparam 0000  
                              __Lparam 0000                        __size_of___flge 0104  
                      __size_of___fleq 00AA                                ___fladd 0884  
                              ___fldiv 1170                                ___flmul 0D44  
                              ___flsub 254E                                ___fltol 1D64  
  __size_of_doorController_openingDoor 0098                           __psmallconst 0800  
                      __size_of_floorf 0212                                __pcinit 267C  
                              __ramtop 0800                                __ptext0 171E  
                              __ptext1 2762                                __ptext2 274A  
                              __ptext3 1F6E                                __ptext4 2442  
                              __ptext5 2776                                __ptext6 20E6  
                              __ptext7 217E                                __ptext8 2346  
                              __ptext9 2594                        __size_of_strlen 003A  
                           ??___xxtofl 001B                         __pintcode_body 1C5C  
                 end_of_initialization 26A4                                floorf@e 0025  
                              floorf@m 0021                                floorf@u 0027  
                              floorf@x 0017                              _LCD_print 2346  
                   _LCD_customDelay_ms 25CE                          __Lmediumconst 0000  
                              int_func 1C5C                        LCD_print@length 0023  
                  ?_LCD_customDelay_ms 0017                                postdec1 000FE5  
                              postinc0 000FEE                                strlen@a 0019  
                              strlen@s 0017   __end_ofi2_doorController_openingDoor 22AE  
__size_ofi2_doorController_openingDoor 0098           i2_doorController_openingDoor 2216  
                            _PORTEbits 000F84              LCD_printFloatNumber@digit 0085  
                          ___fladd@grs 0026                __end_of_LCD_clearScreen 2710  
                 ??_LCD_customDelay_ms 001B                          ___xxtofl@sign 001F  
                            _TRISAbits 000F92                            ___fldiv@grs 0074  
                          ___fldiv@rem 006D                          LCD_init@F3785 003D  
                    __size_of_ADC_init 0012                             ?_LCD_print 001B  
                          ___flmul@grs 0062       __size_of_doorController_invasion 0050  
                    __size_of_LCD_init 006C                         __end_of___flge 1F6E  
                       __end_of___fleq 20E6                    _doorController_fire 24FE  
                  _doorController_init 1F6E                          __pidataCOMRAM 2788  
                       __end_of_floorf 171E                             floorf@F527 0045  
   __end_of_doorController_openingDoor 217E          ?i2_doorController_openingDoor 0001  
           _doorController_openingDoor 20E6            ??_LCD_placeCursorInPosition 0017  
                       __end_of_strlen 25CE                    start_initialization 267C  
                 ?_doorController_fire 0001                   ?_doorController_init 0001  
                           LCD_print@i 0025                      __size_ofi2_strlen 003A  
                            i2strlen@a 0003                              i2strlen@s 0001  
   __size_of_interrupt_service_routine 1D5C                               ??___flge 001F  
                             ??___fleq 001F                               ??_floorf 001B  
                        LCD_print@text 001B                               ??_strlen 0019  
                            ___fladd@a 001B                              ___fladd@b 0017  
                            ___fldiv@a 0035                              ___fldiv@b 0031  
                            ___flmul@a 0029                              ___flmul@b 0025  
                          __pbssCOMRAM 0045                              ___flsub@a 002B  
                            ___flsub@b 0027                       ?_LCD_clearScreen 0001  
                        __pcstackBANK0 0060                      __size_of___xxtofl 01B4  
                ??_doorController_fire 0011                  ??_doorController_init 0027  
          ?_doorController_closingDoor 0001                          ??i2_LCD_print 000B  
                          ??_LCD_print 0021      LCD_placeCursorInPosition@position 0017  
  i2LCD_placeCursorInPosition@position 0001      __end_of_interrupt_service_routine 1D64  
         ?i2_LCD_placeCursorInPosition 0001              _LCD_placeCursorInPosition 26B2  
                    main@previousValue 008A          __size_of_LCD_printFloatNumber 019A  
                            __pintcode 0008                               ?___fladd 0017  
                             ?___fldiv 0031                               ?___flmul 0025  
                             ?___flsub 0027                               ?___fltol 002B  
         __end_ofi2_LCD_customDelay_ms 267C                            __smallconst 0800  
                             _ADC_init 2776                  __end_of_LCD_printChar 274A  
              _doorController_invasion 24AE          LCD_printFloatNumber@precision 007E  
                             _LCD_init 2442                LCD_printFloatNumber@aux 0086  
                             i2u420_47 2648          ??i2_LCD_placeCursorInPosition 0001  
                             i2u421_47 26DE                               i2u422_47 26E8  
                             i2u263_40 2440                               i2u263_41 243C  
                             i2u423_47 271A                    __end_ofi2_LCD_print 2442  
                             i2u424_47 2724                               i2u185_40 267A  
                             i2u273_40 2228                               i2u185_41 2676  
                             i2u273_41 2224                               i2u186_40 2634  
                             i2u274_40 22C0                               i2u186_41 2630  
                             i2u274_41 22BC                               i2u275_40 1C7C  
                             i2u275_41 1C78                               i2u419_47 2418  
                             i2u276_40 1C8A                               i2u276_41 1C86  
                             i2u277_40 1CEC                               i2u277_41 1CE8  
                             i2u278_40 1CFA                               i2u278_41 1CF6  
                             _RCONbits 000FD0                             _ADCON0bits 000FC2  
               i2LCD_customDelay_ms@ms 0001                              main@value 0092  
              __size_of_interrupt_init 0018                               i2_strlen 2608  
                          _INTCON2bits 000FF1                            _INTCON3bits 000FF0  
                            copy_data0 2690                               __Hrparam 0000  
                             __Lrparam 0000                       __size_of___fladd 04C0  
                     __size_of___fldiv 039C                       __size_of___flmul 042C  
                     __size_of___flsub 0046                       __size_of___fltol 0106  
          ?_doorController_openingDoor 0001   __size_ofi2_LCD_placeCursorInPosition 0020  
                             ___xxtofl 190E            __size_of_LCD_customDelay_ms 003A  
                             __ptext10 25CE                               __ptext11 26B2  
                             __ptext20 0D44                               __ptext12 26F2  
                             __ptext21 1E6A                               __ptext13 203C  
                             __ptext30 2608                               __ptext22 1170  
                             __ptext14 1AC2                               __ptext31 2642  
                             __ptext23 272E                               __ptext15 150C  
                             __ptext32 26D2                               __ptext16 190E  
                             __ptext33 2710                               __ptext25 2216  
                             __ptext17 1D64                               __ptext26 22AE  
                             __ptext18 254E                               __ptext27 24AE  
                             __ptext19 0884                               __ptext28 24FE  
                             __ptext29 23C4              ??_doorController_invasion 0011  
                 i2_LCD_customDelay_ms 2642                            i2_LCD_print 23C4  
                        __size_of_main 01F0                          __size_of_init 0014  
                             isa$xinst 000000                               int$flags 0049  
                           _INTCONbits 000FF2                               intlevel2 0000  
                ?i2_LCD_customDelay_ms 0001         ??i2_doorController_closingDoor 0011  
      __end_of_doorController_invasion 24FE            __end_of_doorController_fire 254E  
          __end_of_doorController_init 203C                         _interrupt_init 274A  
         __end_of_LCD_printFloatNumber 1C5C                          ___fladd@signs 0023  
          LCD_printFloatNumber@counter 0087               __size_of_LCD_clearScreen 001E  
                         ___fladd@aexp 0024                           ___fladd@bexp 0025  
           LCD_printFloatNumber@number 007A             ?_interrupt_service_routine 0001  
