

Microchip MPLAB XC8 Assembler V2.32 build 20210201212658 
                                                                                               Wed May 26 15:24:21 2021

Microchip MPLAB XC8 C Compiler v2.32 (Free license) build 20210201212658 Og1 
     1                           	processor	18F4550
     2                           	fnconf	rparam,??,?,0
     3                           	pagewidth 120
     4                           	opt	flic
     5                           	psect	idataCOMRAM,global,class=CODE,delta=1,noexec
     6                           	psect	smallconst,global,reloc=2,class=SMALLCONST,delta=1,noexec
     7                           	psect	cinit,global,reloc=2,class=CODE,delta=1
     8                           	psect	bssCOMRAM,global,class=COMRAM,space=1,delta=1,lowdata,noexec
     9                           	psect	dataCOMRAM,global,class=COMRAM,space=1,delta=1,lowdata,noexec
    10                           	psect	cstackBANK0,global,class=BANK0,space=1,delta=1,lowdata,noexec
    11                           	psect	cstackCOMRAM,global,class=COMRAM,space=1,delta=1,lowdata,noexec
    12                           	psect	text0,global,reloc=2,class=CODE,delta=1
    13                           	psect	text1,global,reloc=2,class=CODE,delta=1
    14                           	psect	text2,global,reloc=2,class=CODE,delta=1
    15                           	psect	text3,global,reloc=2,class=CODE,delta=1
    16                           	psect	text4,global,reloc=2,class=CODE,delta=1
    17                           	psect	text5,global,reloc=2,class=CODE,delta=1
    18                           	psect	text6,global,reloc=2,class=CODE,delta=1
    19                           	psect	text7,global,reloc=2,class=CODE,delta=1
    20                           	psect	text8,global,reloc=2,class=CODE,delta=1
    21                           	psect	text9,global,reloc=2,class=CODE,delta=1,group=2
    22                           	psect	text10,global,reloc=2,class=CODE,delta=1
    23                           	psect	text11,global,reloc=2,class=CODE,delta=1
    24                           	psect	text12,global,reloc=2,class=CODE,delta=1
    25                           	psect	text13,global,reloc=2,class=CODE,delta=1,group=1
    26                           	psect	text14,global,reloc=2,class=CODE,delta=1,group=1
    27                           	psect	text15,global,reloc=2,class=CODE,delta=1,group=1
    28                           	psect	text16,global,reloc=2,class=CODE,delta=1,group=1
    29                           	psect	text17,global,reloc=2,class=CODE,delta=1,group=1
    30                           	psect	text18,global,reloc=2,class=CODE,delta=1,group=1
    31                           	psect	text19,global,reloc=2,class=CODE,delta=1,group=1
    32                           	psect	intcode,global,reloc=2,class=CODE,delta=1
    33                           	psect	intcode_body,global,reloc=2,class=CODE,delta=1
    34                           	psect	text21,global,reloc=2,class=CODE,delta=1
    35                           	psect	text22,global,reloc=2,class=CODE,delta=1
    36                           	psect	text23,global,reloc=2,class=CODE,delta=1
    37                           	psect	text24,global,reloc=2,class=CODE,delta=1
    38                           	psect	text25,global,reloc=2,class=CODE,delta=1
    39                           	psect	text26,global,reloc=2,class=CODE,delta=1
    40                           	psect	text27,global,reloc=2,class=CODE,delta=1
    41                           	psect	text28,global,reloc=2,class=CODE,delta=1
    42                           	psect	text29,global,reloc=2,class=CODE,delta=1
    43                           	psect	intsave_regs,global,class=BIGRAM,space=1,delta=1,noexec
    44                           	psect	rparam,global,class=COMRAM,space=1,delta=1,noexec
    45                           	psect	temp,global,ovrld,common,class=COMRAM,space=1,delta=1
    46                           	psect	idloc,global,abs,ovrld,class=IDLOC,space=5,delta=1,noexec
    47                           	psect	config,global,abs,ovrld,class=CONFIG,space=4,delta=1,noexec
    48  0000                     
    49                           ; Version 2.20
    50                           ; Generated 12/02/2020 GMT
    51                           ; 
    52                           ; Copyright © 2020, Microchip Technology Inc. and its subsidiaries ("Microchip")
    53                           ; All rights reserved.
    54                           ; 
    55                           ; This software is developed by Microchip Technology Inc. and its subsidiaries ("Microch
      +                          ip").
    56                           ; 
    57                           ; Redistribution and use in source and binary forms, with or without modification, are
    58                           ; permitted provided that the following conditions are met:
    59                           ; 
    60                           ;     1. Redistributions of source code must retain the above copyright notice, this lis
      +                          t of
    61                           ;        conditions and the following disclaimer.
    62                           ; 
    63                           ;     2. Redistributions in binary form must reproduce the above copyright notice, this 
      +                          list
    64                           ;        of conditions and the following disclaimer in the documentation and/or other
    65                           ;        materials provided with the distribution.
    66                           ; 
    67                           ;     3. Microchip's name may not be used to endorse or promote products derived from th
      +                          is
    68                           ;        software without specific prior written permission.
    69                           ; 
    70                           ; THIS SOFTWARE IS PROVIDED BY MICROCHIP "AS IS" AND ANY EXPRESS OR IMPLIED WARRANTIES,
    71                           ; INCLUDING, BUT NOT LIMITED TO, THE IMPLIED WARRANTIES OF MERCHANTABILITY AND FITNESS F
      +                          OR
    72                           ; PURPOSE ARE DISCLAIMED.  IN NO EVENT SHALL MICROCHIP BE LIABLE FOR ANY DIRECT, INDIREC
      +                          T,
    73                           ; INCIDENTAL, SPECIAL, EXEMPLARY, OR CONSEQUENTIAL DAMAGES (INCLUDING BUT NOT LIMITED TO
    74                           ; PROCUREMENT OF SUBSTITUTE GOODS OR SERVICES; LOSS OF USE, DATA OR PROFITS; OR BUSINESS
    75                           ; INTERRUPTION) HOWSOEVER CAUSED AND ON ANY THEORY OF LIABILITY, WHETHER IN CONTRACT, ST
      +                          RICT
    76                           ; LIABILITY, OR TORT (INCLUDING NEGLIGENCE OR OTHERWISE) ARISING IN ANY WAY OUT OF THE U
      +                          SE OF
    77                           ; THIS SOFTWARE, EVEN IF ADVISED OF THE POSSIBILITY OF SUCH DAMAGE.
    78                           ; 
    79                           ; 
    80                           ; Code-generator required, PIC18F4550 Definitions
    81                           ; 
    82                           ; SFR Addresses
    83  0000                     
    84                           	psect	idataCOMRAM
    85  00224C                     __pidataCOMRAM:
    86                           	callstack 0
    87                           
    88                           ;initializer for LCD_init@F3785
    89  00224C  30                 	db	48
    90  00224D  30                 	db	48
    91  00224E  30                 	db	48
    92  00224F  38                 	db	56
    93  002250  0F                 	db	15
    94  002251  06                 	db	6
    95  002252  01                 	db	1
    96                           
    97                           ;initializer for _doorStatus
    98  002253  04                 	db	4
    99  0000                     _ADRESL	set	4035
   100  0000                     _ADCON0bits	set	4034
   101  0000                     _ADCON2	set	4032
   102  0000                     _ADCON1	set	4033
   103  0000                     _ADCON0	set	4034
   104  0000                     _TRISAbits	set	3986
   105  0000                     _INTCON2bits	set	4081
   106  0000                     _INTCON3bits	set	4080
   107  0000                     _INTCONbits	set	4082
   108  0000                     _RCONbits	set	4048
   109  0000                     _PORTD	set	3971
   110  0000                     _PORTEbits	set	3972
   111  0000                     _TRISE	set	3990
   112  0000                     _TRISD	set	3989
   113  0000                     _ADRESH	set	4036
   114                           
   115                           	psect	smallconst
   116  000800                     __psmallconst:
   117                           	callstack 0
   118  000800  00                 	db	0
   119  000801                     STR_1:
   120  000801  49                 	db	73	;'I'
   121  000802  6E                 	db	110	;'n'
   122  000803  69                 	db	105	;'i'
   123  000804  63                 	db	99	;'c'
   124  000805  69                 	db	105	;'i'
   125  000806  61                 	db	97	;'a'
   126  000807  6C                 	db	108	;'l'
   127  000808  69                 	db	105	;'i'
   128  000809  7A                 	db	122	;'z'
   129  00080A  61                 	db	97	;'a'
   130  00080B  6E                 	db	110	;'n'
   131  00080C  64                 	db	100	;'d'
   132  00080D  6F                 	db	111	;'o'
   133  00080E  00                 	db	0
   134  00080F                     STR_5:
   135  00080F  46                 	db	70	;'F'
   136  000810  65                 	db	101	;'e'
   137  000811  63                 	db	99	;'c'
   138  000812  68                 	db	104	;'h'
   139  000813  61                 	db	97	;'a'
   140  000814  64                 	db	100	;'d'
   141  000815  61                 	db	97	;'a'
   142  000816  20                 	db	32
   143  000817  20                 	db	32
   144  000818  20                 	db	32
   145  000819  20                 	db	32
   146  00081A  00                 	db	0
   147  00081B                     STR_10:
   148  00081B  46                 	db	70	;'F'
   149  00081C  65                 	db	101	;'e'
   150  00081D  63                 	db	99	;'c'
   151  00081E  68                 	db	104	;'h'
   152  00081F  61                 	db	97	;'a'
   153  000820  6E                 	db	110	;'n'
   154  000821  64                 	db	100	;'d'
   155  000822  6F                 	db	111	;'o'
   156  000823  2E                 	db	46
   157  000824  2E                 	db	46
   158  000825  2E                 	db	46
   159  000826  00                 	db	0
   160  000827                     STR_2:
   161  000827  43                 	db	67	;'C'
   162  000828  4F                 	db	79	;'O'
   163  000829  4E                 	db	78	;'N'
   164  00082A  54                 	db	84	;'T'
   165  00082B  52                 	db	82	;'R'
   166  00082C  4F                 	db	79	;'O'
   167  00082D  4C                 	db	76	;'L'
   168  00082E  41                 	db	65	;'A'
   169  00082F  44                 	db	68	;'D'
   170  000830  4F                 	db	79	;'O'
   171  000831  52                 	db	82	;'R'
   172  000832  00                 	db	0
   173  000833                     STR_8:
   174  000833  41                 	db	65	;'A'
   175  000834  62                 	db	98	;'b'
   176  000835  65                 	db	101	;'e'
   177  000836  72                 	db	114	;'r'
   178  000837  74                 	db	116	;'t'
   179  000838  61                 	db	97	;'a'
   180  000839  20                 	db	32
   181  00083A  20                 	db	32
   182  00083B  20                 	db	32
   183  00083C  20                 	db	32
   184  00083D  00                 	db	0
   185  00083E                     STR_7:
   186  00083E  41                 	db	65	;'A'
   187  00083F  62                 	db	98	;'b'
   188  000840  72                 	db	114	;'r'
   189  000841  69                 	db	105	;'i'
   190  000842  6E                 	db	110	;'n'
   191  000843  64                 	db	100	;'d'
   192  000844  6F                 	db	111	;'o'
   193  000845  2E                 	db	46
   194  000846  2E                 	db	46
   195  000847  2E                 	db	46
   196  000848  00                 	db	0
   197  000849                     STR_13:
   198  000849  45                 	db	69	;'E'
   199  00084A  6D                 	db	109	;'m'
   200  00084B  65                 	db	101	;'e'
   201  00084C  72                 	db	114	;'r'
   202  00084D  67                 	db	103	;'g'
   203  00084E  65                 	db	101	;'e'
   204  00084F  6E                 	db	110	;'n'
   205  000850  63                 	db	99	;'c'
   206  000851  69                 	db	105	;'i'
   207  000852  61                 	db	97	;'a'
   208  000853  00                 	db	0
   209  000854                     STR_12:
   210  000854  49                 	db	73	;'I'
   211  000855  4E                 	db	78	;'N'
   212  000856  43                 	db	67	;'C'
   213  000857  45                 	db	69	;'E'
   214  000858  4E                 	db	78	;'N'
   215  000859  44                 	db	68	;'D'
   216  00085A  49                 	db	73	;'I'
   217  00085B  4F                 	db	79	;'O'
   218  00085C  21                 	db	33
   219  00085D  00                 	db	0
   220  00085E                     STR_14:
   221  00085E  49                 	db	73	;'I'
   222  00085F  4E                 	db	78	;'N'
   223  000860  56                 	db	86	;'V'
   224  000861  41                 	db	65	;'A'
   225  000862  53                 	db	83	;'S'
   226  000863  41                 	db	65	;'A'
   227  000864  4F                 	db	79	;'O'
   228  000865  21                 	db	33
   229  000866  00                 	db	0
   230  000867                     STR_3:
   231  000867  44                 	db	68	;'D'
   232  000868  41                 	db	65	;'A'
   233  000869  20                 	db	32
   234  00086A  50                 	db	80	;'P'
   235  00086B  4F                 	db	79	;'O'
   236  00086C  52                 	db	82	;'R'
   237  00086D  54                 	db	84	;'T'
   238  00086E  41                 	db	65	;'A'
   239  00086F  00                 	db	0
   240  000870                     STR_4:
   241  000870  53                 	db	83	;'S'
   242  000871  74                 	db	116	;'t'
   243  000872  61                 	db	97	;'a'
   244  000873  74                 	db	116	;'t'
   245  000874  75                 	db	117	;'u'
   246  000875  73                 	db	115	;'s'
   247  000876  3A                 	db	58	;':'
   248  000877  00                 	db	0
   249  000878  00                 	db	0	; dummy byte at the end
   250  0000                     
   251                           ; #config settings
   252                           
   253                           	psect	cinit
   254  00215C                     __pcinit:
   255                           	callstack 0
   256  00215C                     start_initialization:
   257                           	callstack 0
   258  00215C                     __initialization:
   259                           	callstack 0
   260                           
   261                           ; Initialize objects allocated to COMRAM (8 bytes)
   262                           ; load TBLPTR registers with __pidataCOMRAM
   263  00215C  0E4C               	movlw	low __pidataCOMRAM
   264  00215E  6EF6               	movwf	tblptrl,c
   265  002160  0E22               	movlw	high __pidataCOMRAM
   266  002162  6EF7               	movwf	tblptrh,c
   267  002164  0E00               	movlw	low (__pidataCOMRAM shr (0+16))
   268  002166  6EF8               	movwf	tblptru,c
   269  002168  EE00  F03D         	lfsr	0,__pdataCOMRAM
   270  00216C  EE10 F008          	lfsr	1,8
   271  002170                     copy_data0:
   272  002170  0009               	tblrd		*+
   273  002172  CFF5 FFEE          	movff	tablat,postinc0
   274  002176  50E5               	movf	postdec1,w,c
   275  002178  50E1               	movf	fsr1l,w,c
   276  00217A  E1FA               	bnz	copy_data0
   277                           
   278                           ; Clear objects allocated to COMRAM (4 bytes)
   279  00217C  6A48               	clrf	(__pbssCOMRAM+3)& (0+255),c
   280  00217E  6A47               	clrf	(__pbssCOMRAM+2)& (0+255),c
   281  002180  6A46               	clrf	(__pbssCOMRAM+1)& (0+255),c
   282  002182  6A45               	clrf	__pbssCOMRAM& (0+255),c
   283  002184                     end_of_initialization:
   284                           	callstack 0
   285  002184                     __end_of__initialization:
   286                           	callstack 0
   287  002184  9049               	bcf	int$flags,0,c	;clear compiler interrupt flag (level 1)
   288  002186  9249               	bcf	int$flags,1,c	;clear compiler interrupt flag (level 2)
   289  002188  0E00               	movlw	low (__Lmediumconst shr (0+16))
   290  00218A  6EF8               	movwf	tblptru,c
   291  00218C  0100               	movlb	0
   292  00218E  EF5B  F00B         	goto	_main	;jump to C main() function
   293                           
   294                           	psect	bssCOMRAM
   295  000045                     __pbssCOMRAM:
   296                           	callstack 0
   297  000045                     	ds	4
   298                           
   299                           	psect	dataCOMRAM
   300  00003D                     __pdataCOMRAM:
   301                           	callstack 0
   302  00003D                     LCD_init@F3785:
   303                           	callstack 0
   304  00003D                     	ds	7
   305  000044                     _doorStatus:
   306                           	callstack 0
   307  000044                     	ds	1
   308                           
   309                           	psect	cstackBANK0
   310  000060                     __pcstackBANK0:
   311                           	callstack 0
   312  000060                     ___flmul@sign:
   313                           	callstack 0
   314                           
   315                           ; 1 bytes @ 0x0
   316  000060                     	ds	1
   317  000061                     ___flmul@aexp:
   318                           	callstack 0
   319                           
   320                           ; 1 bytes @ 0x1
   321  000061                     	ds	1
   322  000062                     ___flmul@grs:
   323                           	callstack 0
   324                           
   325                           ; 4 bytes @ 0x2
   326  000062                     	ds	4
   327  000066                     ___flmul@bexp:
   328                           	callstack 0
   329                           
   330                           ; 1 bytes @ 0x6
   331  000066                     	ds	1
   332  000067                     ___flmul@prod:
   333                           	callstack 0
   334                           
   335                           ; 4 bytes @ 0x7
   336  000067                     	ds	4
   337  00006B                     ___flmul@temp:
   338                           	callstack 0
   339                           
   340                           ; 2 bytes @ 0xB
   341  00006B                     	ds	2
   342  00006D                     ___fldiv@rem:
   343                           	callstack 0
   344                           
   345                           ; 4 bytes @ 0xD
   346  00006D                     	ds	4
   347  000071                     ___fldiv@sign:
   348                           	callstack 0
   349                           
   350                           ; 1 bytes @ 0x11
   351  000071                     	ds	1
   352  000072                     ___fldiv@new_exp:
   353                           	callstack 0
   354                           
   355                           ; 2 bytes @ 0x12
   356  000072                     	ds	2
   357  000074                     ___fldiv@grs:
   358                           	callstack 0
   359                           
   360                           ; 4 bytes @ 0x14
   361  000074                     	ds	4
   362  000078                     ___fldiv@bexp:
   363                           	callstack 0
   364                           
   365                           ; 1 bytes @ 0x18
   366  000078                     	ds	1
   367  000079                     ___fldiv@aexp:
   368                           	callstack 0
   369                           
   370                           ; 1 bytes @ 0x19
   371  000079                     	ds	1
   372  00007A                     ??_main:
   373                           
   374                           ; 1 bytes @ 0x1A
   375  00007A                     	ds	2
   376  00007C                     main@previousValue:
   377                           	callstack 0
   378                           
   379                           ; 4 bytes @ 0x1C
   380  00007C                     	ds	4
   381  000080                     main@distance:
   382                           	callstack 0
   383                           
   384                           ; 4 bytes @ 0x20
   385  000080                     	ds	4
   386  000084                     main@value:
   387                           	callstack 0
   388                           
   389                           ; 4 bytes @ 0x24
   390  000084                     	ds	4
   391                           
   392                           	psect	cstackCOMRAM
   393  000001                     __pcstackCOMRAM:
   394                           	callstack 0
   395  000001                     ?i2_strlen:
   396                           	callstack 0
   397  000001                     i2LCD_placeCursorInPosition@position:
   398                           	callstack 0
   399  000001                     i2strlen@s:
   400                           	callstack 0
   401  000001                     i2LCD_customDelay_ms@ms:
   402                           	callstack 0
   403                           
   404                           ; 4 bytes @ 0x0
   405  000001                     	ds	2
   406  000003                     i2strlen@a:
   407                           	callstack 0
   408                           
   409                           ; 2 bytes @ 0x2
   410  000003                     	ds	2
   411  000005                     i2LCD_print@text:
   412                           	callstack 0
   413                           
   414                           ; 2 bytes @ 0x4
   415  000005                     	ds	2
   416  000007                     i2LCD_print@delay:
   417                           	callstack 0
   418                           
   419                           ; 4 bytes @ 0x6
   420  000007                     	ds	4
   421  00000B                     ??i2_LCD_print:
   422                           
   423                           ; 1 bytes @ 0xA
   424  00000B                     	ds	2
   425  00000D                     i2LCD_print@length:
   426                           	callstack 0
   427                           
   428                           ; 2 bytes @ 0xC
   429  00000D                     	ds	2
   430  00000F                     i2LCD_print@i:
   431                           	callstack 0
   432                           
   433                           ; 2 bytes @ 0xE
   434  00000F                     	ds	2
   435  000011                     ??_interrupt_service_routine:
   436  000011                     
   437                           ; 1 bytes @ 0x10
   438  000011                     	ds	6
   439  000017                     ?_strlen:
   440                           	callstack 0
   441  000017                     ?___fladd:
   442                           	callstack 0
   443  000017                     ?___xxtofl:
   444                           	callstack 0
   445  000017                     LCD_placeCursorInPosition@position:
   446                           	callstack 0
   447  000017                     strlen@s:
   448                           	callstack 0
   449  000017                     LCD_customDelay_ms@ms:
   450                           	callstack 0
   451  000017                     ___fleq@ff1:
   452                           	callstack 0
   453  000017                     ___flge@ff1:
   454                           	callstack 0
   455  000017                     ___fladd@b:
   456                           	callstack 0
   457  000017                     ___xxtofl@val:
   458                           	callstack 0
   459  000017                     LCD_init@config:
   460                           	callstack 0
   461                           
   462                           ; 7 bytes @ 0x16
   463  000017                     	ds	2
   464  000019                     strlen@a:
   465                           	callstack 0
   466                           
   467                           ; 2 bytes @ 0x18
   468  000019                     	ds	2
   469  00001B                     ??___xxtofl:
   470  00001B                     LCD_print@text:
   471                           	callstack 0
   472  00001B                     ___fleq@ff2:
   473                           	callstack 0
   474  00001B                     ___flge@ff2:
   475                           	callstack 0
   476  00001B                     ___fladd@a:
   477                           	callstack 0
   478                           
   479                           ; 4 bytes @ 0x1A
   480  00001B                     	ds	2
   481  00001D                     LCD_print@delay:
   482                           	callstack 0
   483                           
   484                           ; 4 bytes @ 0x1C
   485  00001D                     	ds	1
   486  00001E                     LCD_init@i:
   487                           	callstack 0
   488                           
   489                           ; 2 bytes @ 0x1D
   490  00001E                     	ds	1
   491  00001F                     ??___fladd:
   492  00001F                     ??___fleq:
   493  00001F                     ??___flge:
   494  00001F                     ___xxtofl@sign:
   495                           	callstack 0
   496                           
   497                           ; 1 bytes @ 0x1E
   498  00001F                     	ds	1
   499  000020                     ___xxtofl@exp:
   500                           	callstack 0
   501                           
   502                           ; 1 bytes @ 0x1F
   503  000020                     	ds	1
   504  000021                     ??_LCD_print:
   505  000021                     ___xxtofl@arg:
   506                           	callstack 0
   507                           
   508                           ; 4 bytes @ 0x20
   509  000021                     	ds	2
   510  000023                     ___fladd@signs:
   511                           	callstack 0
   512  000023                     LCD_print@length:
   513                           	callstack 0
   514                           
   515                           ; 2 bytes @ 0x22
   516  000023                     	ds	1
   517  000024                     ___fladd@aexp:
   518                           	callstack 0
   519                           
   520                           ; 1 bytes @ 0x23
   521  000024                     	ds	1
   522  000025                     ?___flmul:
   523                           	callstack 0
   524  000025                     ___fladd@bexp:
   525                           	callstack 0
   526  000025                     LCD_print@i:
   527                           	callstack 0
   528  000025                     ___flmul@b:
   529                           	callstack 0
   530                           
   531                           ; 4 bytes @ 0x24
   532  000025                     	ds	1
   533  000026                     ___fladd@grs:
   534                           	callstack 0
   535                           
   536                           ; 1 bytes @ 0x25
   537  000026                     	ds	1
   538  000027                     ??_doorController_init:
   539  000027                     ?___flsub:
   540                           	callstack 0
   541  000027                     ___flsub@b:
   542                           	callstack 0
   543                           
   544                           ; 4 bytes @ 0x26
   545  000027                     	ds	2
   546  000029                     ___flmul@a:
   547                           	callstack 0
   548                           
   549                           ; 4 bytes @ 0x28
   550  000029                     	ds	2
   551  00002B                     ___flsub@a:
   552                           	callstack 0
   553                           
   554                           ; 4 bytes @ 0x2A
   555  00002B                     	ds	2
   556  00002D                     ??___flmul:
   557                           
   558                           ; 1 bytes @ 0x2C
   559  00002D                     	ds	2
   560  00002F                     
   561                           ; 1 bytes @ 0x2E
   562  00002F                     	ds	2
   563  000031                     ?___fldiv:
   564                           	callstack 0
   565  000031                     ___fldiv@b:
   566                           	callstack 0
   567                           
   568                           ; 4 bytes @ 0x30
   569  000031                     	ds	4
   570  000035                     ___fldiv@a:
   571                           	callstack 0
   572                           
   573                           ; 4 bytes @ 0x34
   574  000035                     	ds	4
   575  000039                     ??___fldiv:
   576                           
   577                           ; 1 bytes @ 0x38
   578  000039                     	ds	4
   579                           
   580 ;;
   581 ;;Main: autosize = 0, tempsize = 2, incstack = 0, save=0
   582 ;;
   583 ;; *************** function _main *****************
   584 ;; Defined at:
   585 ;;		line 37 in file "main.c"
   586 ;; Parameters:    Size  Location     Type
   587 ;;		None
   588 ;; Auto vars:     Size  Location     Type
   589 ;;  value           4   36[BANK0 ] PTR unsigned char 
   590 ;;  distance        4   32[BANK0 ] PTR unsigned char 
   591 ;;  previousValu    4   28[BANK0 ] PTR unsigned char 
   592 ;; Return value:  Size  Location     Type
   593 ;;                  1    wreg      void 
   594 ;; Registers used:
   595 ;;		wreg, fsr1l, fsr1h, fsr2l, fsr2h, status,2, status,0, tblptrl, tblptrh, tblptru, prodl, prodh, cstack
   596 ;; Tracked objects:
   597 ;;		On entry : 0/0
   598 ;;		On exit  : 0/0
   599 ;;		Unchanged: 0/0
   600 ;; Data sizes:     COMRAM   BANK0   BANK1   BANK2   BANK3   BANK4   BANK5   BANK6   BANK7
   601 ;;      Params:         0       0       0       0       0       0       0       0       0
   602 ;;      Locals:         0      12       0       0       0       0       0       0       0
   603 ;;      Temps:          0       2       0       0       0       0       0       0       0
   604 ;;      Totals:         0      14       0       0       0       0       0       0       0
   605 ;;Total ram usage:       14 bytes
   606 ;; Hardware stack levels required when called: 8
   607 ;; This function calls:
   608 ;;		___fldiv
   609 ;;		___fleq
   610 ;;		___flge
   611 ;;		___flmul
   612 ;;		___flsub
   613 ;;		___xxtofl
   614 ;;		_doorController_closingDoor
   615 ;;		_doorController_openingDoor
   616 ;;		_init
   617 ;; This function is called by:
   618 ;;		Startup code after reset
   619 ;; This function uses a non-reentrant model
   620 ;;
   621                           
   622                           	psect	text0
   623  0016B6                     __ptext0:
   624                           	callstack 0
   625  0016B6                     _main:
   626                           	callstack 23
   627  0016B6                     
   628                           ;main.c: 39:  init();
   629  0016B6  EC13  F011         	call	_init	;wreg free
   630  0016BA                     
   631                           ;main.c: 42:  double previousValue = 0.0;
   632  0016BA  0E00               	movlw	0
   633  0016BC  0100               	movlb	0	; () banked
   634  0016BE  6F7C               	movwf	main@previousValue& (0+255),b
   635  0016C0  0E00               	movlw	0
   636  0016C2  6F7D               	movwf	(main@previousValue+1)& (0+255),b
   637  0016C4  0E00               	movlw	0
   638  0016C6  6F7E               	movwf	(main@previousValue+2)& (0+255),b
   639  0016C8  0E00               	movlw	0
   640  0016CA  6F7F               	movwf	(main@previousValue+3)& (0+255),b
   641  0016CC                     l3046:
   642                           
   643                           ;main.c: 46:  {;main.c: 47:   if (doorStatus != fire && doorStatus != invasion) {
   644  0016CC  0444               	decf	_doorStatus^0,w,c
   645  0016CE  B4D8               	btfsc	status,2,c
   646  0016D0  EF6C  F00B         	goto	u2951
   647  0016D4  EF6E  F00B         	goto	u2950
   648  0016D8                     u2951:
   649  0016D8  EF66  F00B         	goto	l3046
   650  0016DC                     u2950:
   651  0016DC  0E02               	movlw	2
   652  0016DE  1844               	xorwf	_doorStatus^0,w,c
   653  0016E0  B4D8               	btfsc	status,2,c
   654  0016E2  EF75  F00B         	goto	u2961
   655  0016E6  EF77  F00B         	goto	u2960
   656  0016EA                     u2961:
   657  0016EA  EF66  F00B         	goto	l3046
   658  0016EE                     u2960:
   659  0016EE                     
   660                           ;main.c: 50:    ADCON0bits.GO = 1;
   661  0016EE  82C2               	bsf	194,1,c	;volatile
   662  0016F0                     l137:
   663  0016F0  A2C2               	btfss	194,1,c	;volatile
   664  0016F2  EF7D  F00B         	goto	u2971
   665  0016F6  EF7F  F00B         	goto	u2970
   666  0016FA                     u2971:
   667  0016FA  EF78  F00B         	goto	l137
   668  0016FE                     u2970:
   669  0016FE  0004               	clrwdt		;# 
   670  001700                     
   671                           ;main.c: 53:    value = (5.0) * ((ADRESH<<8) + ADRESL) / 1023;
   672  001700  0E00               	movlw	0
   673  001702  6E29               	movwf	___flmul@a^0,c
   674  001704  0E00               	movlw	0
   675  001706  6E2A               	movwf	(___flmul@a+1)^0,c
   676  001708  0EA0               	movlw	160
   677  00170A  6E2B               	movwf	(___flmul@a+2)^0,c
   678  00170C  0E40               	movlw	64
   679  00170E  6E2C               	movwf	(___flmul@a+3)^0,c
   680  001710  50C3               	movf	195,w,c	;volatile
   681  001712  CFC4 F07A          	movff	4036,??_main	;volatile
   682  001716  0100               	movlb	0	; () banked
   683  001718  6B7B               	clrf	(??_main+1)& (0+255),b
   684  00171A  C07A  F07B         	movff	??_main,??_main+1
   685  00171E  6B7A               	clrf	??_main& (0+255),b
   686  001720  277A               	addwf	??_main& (0+255),f,b
   687  001722  0E00               	movlw	0
   688  001724  237B               	addwfc	(??_main+1)& (0+255),f,b
   689  001726  C07A  F017         	movff	??_main,___xxtofl@val
   690  00172A  C07B  F018         	movff	??_main+1,___xxtofl@val+1
   691  00172E  0E00               	movlw	0
   692  001730  BE18               	btfsc	(___xxtofl@val+1)^0,7,c
   693  001732  0EFF               	movlw	-1
   694  001734  6E19               	movwf	(___xxtofl@val+2)^0,c
   695  001736  6E1A               	movwf	(___xxtofl@val+3)^0,c
   696  001738  0E01               	movlw	1
   697  00173A  EC81  F00A         	call	___xxtofl
   698  00173E  C017  F025         	movff	?___xxtofl,___flmul@b
   699  001742  C018  F026         	movff	?___xxtofl+1,___flmul@b+1
   700  001746  C019  F027         	movff	?___xxtofl+2,___flmul@b+2
   701  00174A  C01A  F028         	movff	?___xxtofl+3,___flmul@b+3
   702  00174E  EC9D  F006         	call	___flmul	;wreg free
   703  001752  C025  F031         	movff	?___flmul,___fldiv@b
   704  001756  C026  F032         	movff	?___flmul+1,___fldiv@b+1
   705  00175A  C027  F033         	movff	?___flmul+2,___fldiv@b+2
   706  00175E  C028  F034         	movff	?___flmul+3,___fldiv@b+3
   707  001762  0E00               	movlw	0
   708  001764  6E35               	movwf	___fldiv@a^0,c
   709  001766  0EC0               	movlw	192
   710  001768  6E36               	movwf	(___fldiv@a+1)^0,c
   711  00176A  0E7F               	movlw	127
   712  00176C  6E37               	movwf	(___fldiv@a+2)^0,c
   713  00176E  0E44               	movlw	68
   714  001770  6E38               	movwf	(___fldiv@a+3)^0,c
   715  001772  ECB3  F008         	call	___fldiv	;wreg free
   716  001776  C031  F084         	movff	?___fldiv,main@value
   717  00177A  C032  F085         	movff	?___fldiv+1,main@value+1
   718  00177E  C033  F086         	movff	?___fldiv+2,main@value+2
   719  001782  C034  F087         	movff	?___fldiv+3,main@value+3
   720  001786                     
   721                           ;main.c: 55:    if (value != previousValue) {
   722  001786  C084  F017         	movff	main@value,___fleq@ff1
   723  00178A  C085  F018         	movff	main@value+1,___fleq@ff1+1
   724  00178E  C086  F019         	movff	main@value+2,___fleq@ff1+2
   725  001792  C087  F01A         	movff	main@value+3,___fleq@ff1+3
   726  001796  C07C  F01B         	movff	main@previousValue,___fleq@ff2
   727  00179A  C07D  F01C         	movff	main@previousValue+1,___fleq@ff2+1
   728  00179E  C07E  F01D         	movff	main@previousValue+2,___fleq@ff2+2
   729  0017A2  C07F  F01E         	movff	main@previousValue+3,___fleq@ff2+3
   730  0017A6  EC8E  F00D         	call	___fleq	;wreg free
   731  0017AA  B0D8               	btfsc	status,0,c
   732  0017AC  EFDA  F00B         	goto	u2981
   733  0017B0  EFDC  F00B         	goto	u2980
   734  0017B4                     u2981:
   735  0017B4  EF66  F00B         	goto	l3046
   736  0017B8                     u2980:
   737  0017B8                     
   738                           ;main.c: 57:     distance = 5.0 - value;
   739  0017B8  0E00               	movlw	0
   740  0017BA  6E27               	movwf	___flsub@b^0,c
   741  0017BC  0E00               	movlw	0
   742  0017BE  6E28               	movwf	(___flsub@b+1)^0,c
   743  0017C0  0EA0               	movlw	160
   744  0017C2  6E29               	movwf	(___flsub@b+2)^0,c
   745  0017C4  0E40               	movlw	64
   746  0017C6  6E2A               	movwf	(___flsub@b+3)^0,c
   747  0017C8  C084  F02B         	movff	main@value,___flsub@a
   748  0017CC  C085  F02C         	movff	main@value+1,___flsub@a+1
   749  0017D0  C086  F02D         	movff	main@value+2,___flsub@a+2
   750  0017D4  C087  F02E         	movff	main@value+3,___flsub@a+3
   751  0017D8  EC17  F010         	call	___flsub	;wreg free
   752  0017DC  C027  F080         	movff	?___flsub,main@distance
   753  0017E0  C028  F081         	movff	?___flsub+1,main@distance+1
   754  0017E4  C029  F082         	movff	?___flsub+2,main@distance+2
   755  0017E8  C02A  F083         	movff	?___flsub+3,main@distance+3
   756                           
   757                           ;main.c: 59:     if (distance <= 2.0) {
   758  0017EC  0E00               	movlw	0
   759  0017EE  6E17               	movwf	___flge@ff1^0,c
   760  0017F0  0E00               	movlw	0
   761  0017F2  6E18               	movwf	(___flge@ff1+1)^0,c
   762  0017F4  0E00               	movlw	0
   763  0017F6  6E19               	movwf	(___flge@ff1+2)^0,c
   764  0017F8  0E40               	movlw	64
   765  0017FA  6E1A               	movwf	(___flge@ff1+3)^0,c
   766  0017FC  C080  F01B         	movff	main@distance,___flge@ff2
   767  001800  C081  F01C         	movff	main@distance+1,___flge@ff2+1
   768  001804  C082  F01D         	movff	main@distance+2,___flge@ff2+2
   769  001808  C083  F01E         	movff	main@distance+3,___flge@ff2+3
   770  00180C  ECA5  F00C         	call	___flge	;wreg free
   771  001810  A0D8               	btfss	status,0,c
   772  001812  EF0D  F00C         	goto	u2991
   773  001816  EF0F  F00C         	goto	u2990
   774  00181A                     u2991:
   775  00181A  EF13  F00C         	goto	l3060
   776  00181E                     u2990:
   777  00181E                     
   778                           ;main.c: 60:      doorController_openingDoor();
   779  00181E  ECE3  F00D         	call	_doorController_openingDoor	;wreg free
   780                           
   781                           ;main.c: 61:     } else {
   782  001822  EF15  F00C         	goto	l3062
   783  001826                     l3060:
   784                           
   785                           ;main.c: 62:      doorController_closingDoor();
   786  001826  EC2F  F00E         	call	_doorController_closingDoor	;wreg free
   787  00182A                     l3062:
   788                           
   789                           ;main.c: 69:     previousValue = value;
   790  00182A  C084  F07C         	movff	main@value,main@previousValue
   791  00182E  C085  F07D         	movff	main@value+1,main@previousValue+1
   792  001832  C086  F07E         	movff	main@value+2,main@previousValue+2
   793  001836  C087  F07F         	movff	main@value+3,main@previousValue+3
   794  00183A  EF66  F00B         	goto	l3046
   795  00183E  EF07  F000         	goto	start
   796  001842                     __end_of_main:
   797                           	callstack 0
   798                           
   799 ;; *************** function _init *****************
   800 ;; Defined at:
   801 ;;		line 24 in file "main.c"
   802 ;; Parameters:    Size  Location     Type
   803 ;;		None
   804 ;; Auto vars:     Size  Location     Type
   805 ;;		None
   806 ;; Return value:  Size  Location     Type
   807 ;;                  1    wreg      void 
   808 ;; Registers used:
   809 ;;		wreg, fsr1l, fsr1h, fsr2l, fsr2h, status,2, status,0, tblptrl, tblptrh, tblptru, cstack
   810 ;; Tracked objects:
   811 ;;		On entry : 0/0
   812 ;;		On exit  : 0/0
   813 ;;		Unchanged: 0/0
   814 ;; Data sizes:     COMRAM   BANK0   BANK1   BANK2   BANK3   BANK4   BANK5   BANK6   BANK7
   815 ;;      Params:         0       0       0       0       0       0       0       0       0
   816 ;;      Locals:         0       0       0       0       0       0       0       0       0
   817 ;;      Temps:          0       0       0       0       0       0       0       0       0
   818 ;;      Totals:         0       0       0       0       0       0       0       0       0
   819 ;;Total ram usage:        0 bytes
   820 ;; Hardware stack levels used: 1
   821 ;; Hardware stack levels required when called: 7
   822 ;; This function calls:
   823 ;;		_ADC_init
   824 ;;		_LCD_init
   825 ;;		_doorController_init
   826 ;;		_interrupt_init
   827 ;; This function is called by:
   828 ;;		_main
   829 ;; This function uses a non-reentrant model
   830 ;;
   831                           
   832                           	psect	text1
   833  002226                     __ptext1:
   834                           	callstack 0
   835  002226                     _init:
   836                           	callstack 23
   837  002226                     
   838                           ;main.c: 26:  LCD_init();
   839  002226  EC91  F00F         	call	_LCD_init	;wreg free
   840  00222A                     
   841                           ;main.c: 27:  ADC_init();
   842  00222A  EC1D  F011         	call	_ADC_init	;wreg free
   843  00222E                     
   844                           ;main.c: 28:  interrupt_init();
   845  00222E  EC07  F011         	call	_interrupt_init	;wreg free
   846  002232                     
   847                           ;main.c: 29:  doorController_init();
   848  002232  EC27  F00D         	call	_doorController_init	;wreg free
   849  002236  0004               	clrwdt		;# 
   850  002238  0012               	return		;funcret
   851  00223A                     __end_of_init:
   852                           	callstack 0
   853                           
   854 ;; *************** function _interrupt_init *****************
   855 ;; Defined at:
   856 ;;		line 100 in file "./util.h"
   857 ;; Parameters:    Size  Location     Type
   858 ;;		None
   859 ;; Auto vars:     Size  Location     Type
   860 ;;		None
   861 ;; Return value:  Size  Location     Type
   862 ;;                  1    wreg      void 
   863 ;; Registers used:
   864 ;;		None
   865 ;; Tracked objects:
   866 ;;		On entry : 0/0
   867 ;;		On exit  : 0/0
   868 ;;		Unchanged: 0/0
   869 ;; Data sizes:     COMRAM   BANK0   BANK1   BANK2   BANK3   BANK4   BANK5   BANK6   BANK7
   870 ;;      Params:         0       0       0       0       0       0       0       0       0
   871 ;;      Locals:         0       0       0       0       0       0       0       0       0
   872 ;;      Temps:          0       0       0       0       0       0       0       0       0
   873 ;;      Totals:         0       0       0       0       0       0       0       0       0
   874 ;;Total ram usage:        0 bytes
   875 ;; Hardware stack levels used: 1
   876 ;; Hardware stack levels required when called: 4
   877 ;; This function calls:
   878 ;;		Nothing
   879 ;; This function is called by:
   880 ;;		_init
   881 ;; This function uses a non-reentrant model
   882 ;;
   883                           
   884                           	psect	text2
   885  00220E                     __ptext2:
   886                           	callstack 0
   887  00220E                     _interrupt_init:
   888                           	callstack 25
   889  00220E                     
   890                           ;./util.h: 103:    RCONbits.IPEN = 1;
   891  00220E  8ED0               	bsf	208,7,c	;volatile
   892                           
   893                           ;./util.h: 106:    INTCONbits.GIEH = 1;
   894  002210  8EF2               	bsf	242,7,c	;volatile
   895                           
   896                           ;./util.h: 107:    INTCONbits.GIEL = 0;
   897  002212  9CF2               	bcf	242,6,c	;volatile
   898                           
   899                           ;./util.h: 109:    INTCON3bits.INT1F = 0;
   900  002214  90F0               	bcf	240,0,c	;volatile
   901                           
   902                           ;./util.h: 110:    INTCON3bits.INT1IP = 1;
   903  002216  8CF0               	bsf	240,6,c	;volatile
   904                           
   905                           ;./util.h: 111:    INTCON2bits.INTEDG1 = 0;
   906  002218  9AF1               	bcf	241,5,c	;volatile
   907                           
   908                           ;./util.h: 112:    INTCON3bits.INT1IE = 1;
   909  00221A  86F0               	bsf	240,3,c	;volatile
   910                           
   911                           ;./util.h: 114:    INTCON3bits.INT2IF = 0;
   912  00221C  92F0               	bcf	240,1,c	;volatile
   913                           
   914                           ;./util.h: 115:    INTCON3bits.INT2IP = 1;
   915  00221E  8EF0               	bsf	240,7,c	;volatile
   916                           
   917                           ;./util.h: 116:    INTCON2bits.INTEDG2 = 0;
   918  002220  98F1               	bcf	241,4,c	;volatile
   919                           
   920                           ;./util.h: 117:    INTCON3bits.INT2IE = 1;
   921  002222  88F0               	bsf	240,4,c	;volatile
   922  002224  0012               	return		;funcret
   923  002226                     __end_of_interrupt_init:
   924                           	callstack 0
   925                           
   926 ;; *************** function _doorController_init *****************
   927 ;; Defined at:
   928 ;;		line 170 in file "./util.h"
   929 ;; Parameters:    Size  Location     Type
   930 ;;		None
   931 ;; Auto vars:     Size  Location     Type
   932 ;;		None
   933 ;; Return value:  Size  Location     Type
   934 ;;                  1    wreg      void 
   935 ;; Registers used:
   936 ;;		wreg, status,2, status,0, tblptrl, tblptrh, tblptru, cstack
   937 ;; Tracked objects:
   938 ;;		On entry : 0/0
   939 ;;		On exit  : 0/0
   940 ;;		Unchanged: 0/0
   941 ;; Data sizes:     COMRAM   BANK0   BANK1   BANK2   BANK3   BANK4   BANK5   BANK6   BANK7
   942 ;;      Params:         0       0       0       0       0       0       0       0       0
   943 ;;      Locals:         0       0       0       0       0       0       0       0       0
   944 ;;      Temps:          2       0       0       0       0       0       0       0       0
   945 ;;      Totals:         2       0       0       0       0       0       0       0       0
   946 ;;Total ram usage:        2 bytes
   947 ;; Hardware stack levels used: 1
   948 ;; Hardware stack levels required when called: 6
   949 ;; This function calls:
   950 ;;		_LCD_clearScreen
   951 ;;		_LCD_placeCursorInPosition
   952 ;;		_LCD_print
   953 ;; This function is called by:
   954 ;;		_init
   955 ;; This function uses a non-reentrant model
   956 ;;
   957                           
   958                           	psect	text3
   959  001A4E                     __ptext3:
   960                           	callstack 0
   961  001A4E                     _doorController_init:
   962                           	callstack 23
   963  001A4E                     
   964                           ;./util.h: 172:    LCD_clearScreen();
   965  001A4E  ECE9  F010         	call	_LCD_clearScreen	;wreg free
   966  001A52                     
   967                           ;./util.h: 177:    LCD_placeCursorInPosition(0x81);
   968  001A52  0E81               	movlw	129
   969  001A54  ECC9  F010         	call	_LCD_placeCursorInPosition
   970  001A58                     
   971                           ;./util.h: 178:    LCD_print("Inicializando", 64);
   972  001A58  0E01               	movlw	low STR_1
   973  001A5A  6E1B               	movwf	LCD_print@text^0,c
   974  001A5C  0E08               	movlw	high STR_1
   975  001A5E  6E1C               	movwf	(LCD_print@text+1)^0,c
   976  001A60  0E40               	movlw	64
   977  001A62  6E1D               	movwf	LCD_print@delay^0,c
   978  001A64  0E00               	movlw	0
   979  001A66  6E1E               	movwf	(LCD_print@delay+1)^0,c
   980  001A68  0E00               	movlw	0
   981  001A6A  6E1F               	movwf	(LCD_print@delay+2)^0,c
   982  001A6C  0E00               	movlw	0
   983  001A6E  6E20               	movwf	(LCD_print@delay+3)^0,c
   984  001A70  EC13  F00F         	call	_LCD_print	;wreg free
   985  001A74                     
   986                           ;./util.h: 179:    LCD_placeCursorInPosition(0x92);
   987  001A74  0E92               	movlw	146
   988  001A76  ECC9  F010         	call	_LCD_placeCursorInPosition
   989  001A7A                     
   990                           ;./util.h: 180:    LCD_print("CONTROLADOR", 64);
   991  001A7A  0E27               	movlw	low STR_2
   992  001A7C  6E1B               	movwf	LCD_print@text^0,c
   993  001A7E  0E08               	movlw	high STR_2
   994  001A80  6E1C               	movwf	(LCD_print@text+1)^0,c
   995  001A82  0E40               	movlw	64
   996  001A84  6E1D               	movwf	LCD_print@delay^0,c
   997  001A86  0E00               	movlw	0
   998  001A88  6E1E               	movwf	(LCD_print@delay+1)^0,c
   999  001A8A  0E00               	movlw	0
  1000  001A8C  6E1F               	movwf	(LCD_print@delay+2)^0,c
  1001  001A8E  0E00               	movlw	0
  1002  001A90  6E20               	movwf	(LCD_print@delay+3)^0,c
  1003  001A92  EC13  F00F         	call	_LCD_print	;wreg free
  1004  001A96                     
  1005                           ;./util.h: 181:    LCD_placeCursorInPosition(0xD2);
  1006  001A96  0ED2               	movlw	210
  1007  001A98  ECC9  F010         	call	_LCD_placeCursorInPosition
  1008  001A9C                     
  1009                           ;./util.h: 182:    LCD_print("DA PORTA", 64);
  1010  001A9C  0E67               	movlw	low STR_3
  1011  001A9E  6E1B               	movwf	LCD_print@text^0,c
  1012  001AA0  0E08               	movlw	high STR_3
  1013  001AA2  6E1C               	movwf	(LCD_print@text+1)^0,c
  1014  001AA4  0E40               	movlw	64
  1015  001AA6  6E1D               	movwf	LCD_print@delay^0,c
  1016  001AA8  0E00               	movlw	0
  1017  001AAA  6E1E               	movwf	(LCD_print@delay+1)^0,c
  1018  001AAC  0E00               	movlw	0
  1019  001AAE  6E1F               	movwf	(LCD_print@delay+2)^0,c
  1020  001AB0  0E00               	movlw	0
  1021  001AB2  6E20               	movwf	(LCD_print@delay+3)^0,c
  1022  001AB4  EC13  F00F         	call	_LCD_print	;wreg free
  1023  001AB8                     
  1024                           ;./util.h: 183:    _delay((unsigned long)((952)*(4000000/4000.0)));
  1025  001AB8  0E05               	movlw	5
  1026  001ABA  6E28               	movwf	(??_doorController_init+1)^0,c
  1027  001ABC  0ED5               	movlw	213
  1028  001ABE  6E27               	movwf	??_doorController_init^0,c
  1029  001AC0  0E58               	movlw	88
  1030  001AC2                     u3007:
  1031  001AC2  2EE8               	decfsz	wreg,f,c
  1032  001AC4  D7FE               	bra	u3007
  1033  001AC6  2E27               	decfsz	??_doorController_init^0,f,c
  1034  001AC8  D7FC               	bra	u3007
  1035  001ACA  2E28               	decfsz	(??_doorController_init+1)^0,f,c
  1036  001ACC  D7FA               	bra	u3007
  1037  001ACE                     
  1038                           ;./util.h: 185:    LCD_clearScreen();
  1039  001ACE  ECE9  F010         	call	_LCD_clearScreen	;wreg free
  1040  001AD2                     
  1041                           ;./util.h: 186:    LCD_placeCursorInPosition(0x81);
  1042  001AD2  0E81               	movlw	129
  1043  001AD4  ECC9  F010         	call	_LCD_placeCursorInPosition
  1044  001AD8                     
  1045                           ;./util.h: 187:    LCD_print("Status:", 10);
  1046  001AD8  0E70               	movlw	low STR_4
  1047  001ADA  6E1B               	movwf	LCD_print@text^0,c
  1048  001ADC  0E08               	movlw	high STR_4
  1049  001ADE  6E1C               	movwf	(LCD_print@text+1)^0,c
  1050  001AE0  0E0A               	movlw	10
  1051  001AE2  6E1D               	movwf	LCD_print@delay^0,c
  1052  001AE4  0E00               	movlw	0
  1053  001AE6  6E1E               	movwf	(LCD_print@delay+1)^0,c
  1054  001AE8  0E00               	movlw	0
  1055  001AEA  6E1F               	movwf	(LCD_print@delay+2)^0,c
  1056  001AEC  0E00               	movlw	0
  1057  001AEE  6E20               	movwf	(LCD_print@delay+3)^0,c
  1058  001AF0  EC13  F00F         	call	_LCD_print	;wreg free
  1059  001AF4                     
  1060                           ;./util.h: 188:    LCD_placeCursorInPosition(0xC3);
  1061  001AF4  0EC3               	movlw	195
  1062  001AF6  ECC9  F010         	call	_LCD_placeCursorInPosition
  1063  001AFA                     
  1064                           ;./util.h: 189:    LCD_print("Fechada    ", 10);
  1065  001AFA  0E0F               	movlw	low STR_5
  1066  001AFC  6E1B               	movwf	LCD_print@text^0,c
  1067  001AFE  0E08               	movlw	high STR_5
  1068  001B00  6E1C               	movwf	(LCD_print@text+1)^0,c
  1069  001B02  0E0A               	movlw	10
  1070  001B04  6E1D               	movwf	LCD_print@delay^0,c
  1071  001B06  0E00               	movlw	0
  1072  001B08  6E1E               	movwf	(LCD_print@delay+1)^0,c
  1073  001B0A  0E00               	movlw	0
  1074  001B0C  6E1F               	movwf	(LCD_print@delay+2)^0,c
  1075  001B0E  0E00               	movlw	0
  1076  001B10  6E20               	movwf	(LCD_print@delay+3)^0,c
  1077  001B12  EC13  F00F         	call	_LCD_print	;wreg free
  1078  001B16                     
  1079                           ;./util.h: 190:    doorStatus = closed;
  1080  001B16  0E04               	movlw	4
  1081  001B18  6E44               	movwf	_doorStatus^0,c
  1082  001B1A  0012               	return		;funcret
  1083  001B1C                     __end_of_doorController_init:
  1084                           	callstack 0
  1085                           
  1086 ;; *************** function _LCD_init *****************
  1087 ;; Defined at:
  1088 ;;		line 17 in file "./lcd.h"
  1089 ;; Parameters:    Size  Location     Type
  1090 ;;		None
  1091 ;; Auto vars:     Size  Location     Type
  1092 ;;  config          7   22[COMRAM] unsigned char [7]
  1093 ;;  i               2   29[COMRAM] int 
  1094 ;; Return value:  Size  Location     Type
  1095 ;;                  1    wreg      void 
  1096 ;; Registers used:
  1097 ;;		wreg, fsr1l, fsr1h, fsr2l, fsr2h, status,2, status,0
  1098 ;; Tracked objects:
  1099 ;;		On entry : 0/0
  1100 ;;		On exit  : 0/0
  1101 ;;		Unchanged: 0/0
  1102 ;; Data sizes:     COMRAM   BANK0   BANK1   BANK2   BANK3   BANK4   BANK5   BANK6   BANK7
  1103 ;;      Params:         0       0       0       0       0       0       0       0       0
  1104 ;;      Locals:         9       0       0       0       0       0       0       0       0
  1105 ;;      Temps:          0       0       0       0       0       0       0       0       0
  1106 ;;      Totals:         9       0       0       0       0       0       0       0       0
  1107 ;;Total ram usage:        9 bytes
  1108 ;; Hardware stack levels used: 1
  1109 ;; Hardware stack levels required when called: 4
  1110 ;; This function calls:
  1111 ;;		Nothing
  1112 ;; This function is called by:
  1113 ;;		_init
  1114 ;; This function uses a non-reentrant model
  1115 ;;
  1116                           
  1117                           	psect	text4
  1118  001F22                     __ptext4:
  1119                           	callstack 0
  1120  001F22                     _LCD_init:
  1121                           	callstack 25
  1122  001F22                     
  1123                           ;./lcd.h: 19:    TRISD = 0b00000000;
  1124  001F22  0E00               	movlw	0
  1125  001F24  6E95               	movwf	149,c	;volatile
  1126                           
  1127                           ;./lcd.h: 20:    TRISE = 0b00000000;
  1128  001F26  0E00               	movlw	0
  1129  001F28  6E96               	movwf	150,c	;volatile
  1130  001F2A                     
  1131                           ;./lcd.h: 22:    PORTEbits.RE2 = 0;
  1132  001F2A  9484               	bcf	132,2,c	;volatile
  1133  001F2C                     
  1134                           ;./lcd.h: 23:    int i;;./lcd.h: 24:    char config[7] = {
  1135  001F2C  EE20  F03D         	lfsr	2,LCD_init@F3785
  1136  001F30  EE10  F017         	lfsr	1,LCD_init@config
  1137  001F34  0E06               	movlw	6
  1138  001F36                     u1301:
  1139  001F36  CFDB FFE3          	movff	plusw2,plusw1
  1140  001F3A  06E8               	decf	wreg,f,c
  1141  001F3C  E2FC               	bc	u1301
  1142  001F3E                     
  1143                           ;./lcd.h: 34:    for (i = 0; i < 7; i++) {
  1144  001F3E  0E00               	movlw	0
  1145  001F40  6E1F               	movwf	(LCD_init@i+1)^0,c
  1146  001F42  0E00               	movlw	0
  1147  001F44  6E1E               	movwf	LCD_init@i^0,c
  1148  001F46                     l49:
  1149                           
  1150                           ;./lcd.h: 35:       PORTEbits.RE1 = 1;
  1151  001F46  8284               	bsf	132,1,c	;volatile
  1152  001F48                     
  1153                           ;./lcd.h: 36:       PORTD = config[i];
  1154  001F48  0E17               	movlw	low LCD_init@config
  1155  001F4A  241E               	addwf	LCD_init@i^0,w,c
  1156  001F4C  6ED9               	movwf	fsr2l,c
  1157  001F4E  0E00               	movlw	high LCD_init@config
  1158  001F50  201F               	addwfc	(LCD_init@i+1)^0,w,c
  1159  001F52  6EDA               	movwf	fsr2h,c
  1160  001F54  50DF               	movf	indf2,w,c
  1161  001F56  6E83               	movwf	131,c	;volatile
  1162  001F58                     
  1163                           ;./lcd.h: 37:       _delay((unsigned long)((50)*(4000000/4000000.0)));
  1164  001F58  0E10               	movlw	16
  1165  001F5A                     u3017:
  1166  001F5A  2EE8               	decfsz	wreg,f,c
  1167  001F5C  D7FE               	bra	u3017
  1168  001F5E  D000               	nop2	
  1169  001F60                     
  1170                           ;./lcd.h: 38:       PORTEbits.RE1 = 0;
  1171  001F60  9284               	bcf	132,1,c	;volatile
  1172  001F62                     
  1173                           ;./lcd.h: 39:       _delay((unsigned long)((50)*(4000000/4000000.0)));
  1174  001F62  0E10               	movlw	16
  1175  001F64                     u3027:
  1176  001F64  2EE8               	decfsz	wreg,f,c
  1177  001F66  D7FE               	bra	u3027
  1178  001F68  D000               	nop2	
  1179  001F6A                     
  1180                           ;./lcd.h: 40:    }
  1181  001F6A  4A1E               	infsnz	LCD_init@i^0,f,c
  1182  001F6C  2A1F               	incf	(LCD_init@i+1)^0,f,c
  1183  001F6E  BE1F               	btfsc	(LCD_init@i+1)^0,7,c
  1184  001F70  EFC3  F00F         	goto	u1311
  1185  001F74  501F               	movf	(LCD_init@i+1)^0,w,c
  1186  001F76  E109               	bnz	u1310
  1187  001F78  0E07               	movlw	7
  1188  001F7A  5C1E               	subwf	LCD_init@i^0,w,c
  1189  001F7C  A0D8               	btfss	status,0,c
  1190  001F7E  EFC3  F00F         	goto	u1311
  1191  001F82  EFC5  F00F         	goto	u1310
  1192  001F86                     u1311:
  1193  001F86  EFA3  F00F         	goto	l49
  1194  001F8A                     u1310:
  1195  001F8A                     
  1196                           ;./lcd.h: 41:    PORTEbits.RE2 = 1;
  1197  001F8A  8484               	bsf	132,2,c	;volatile
  1198  001F8C  0012               	return		;funcret
  1199  001F8E                     __end_of_LCD_init:
  1200                           	callstack 0
  1201                           
  1202 ;; *************** function _ADC_init *****************
  1203 ;; Defined at:
  1204 ;;		line 156 in file "./util.h"
  1205 ;; Parameters:    Size  Location     Type
  1206 ;;		None
  1207 ;; Auto vars:     Size  Location     Type
  1208 ;;		None
  1209 ;; Return value:  Size  Location     Type
  1210 ;;                  1    wreg      void 
  1211 ;; Registers used:
  1212 ;;		wreg, status,2
  1213 ;; Tracked objects:
  1214 ;;		On entry : 0/0
  1215 ;;		On exit  : 0/0
  1216 ;;		Unchanged: 0/0
  1217 ;; Data sizes:     COMRAM   BANK0   BANK1   BANK2   BANK3   BANK4   BANK5   BANK6   BANK7
  1218 ;;      Params:         0       0       0       0       0       0       0       0       0
  1219 ;;      Locals:         0       0       0       0       0       0       0       0       0
  1220 ;;      Temps:          0       0       0       0       0       0       0       0       0
  1221 ;;      Totals:         0       0       0       0       0       0       0       0       0
  1222 ;;Total ram usage:        0 bytes
  1223 ;; Hardware stack levels used: 1
  1224 ;; Hardware stack levels required when called: 4
  1225 ;; This function calls:
  1226 ;;		Nothing
  1227 ;; This function is called by:
  1228 ;;		_init
  1229 ;; This function uses a non-reentrant model
  1230 ;;
  1231                           
  1232                           	psect	text5
  1233  00223A                     __ptext5:
  1234                           	callstack 0
  1235  00223A                     _ADC_init:
  1236                           	callstack 25
  1237  00223A                     
  1238                           ;./util.h: 158:    TRISAbits.RA1 = 1;
  1239  00223A  8292               	bsf	146,1,c	;volatile
  1240  00223C                     
  1241                           ;./util.h: 160:    ADCON0 = 0b00000000;
  1242  00223C  0E00               	movlw	0
  1243  00223E  6EC2               	movwf	194,c	;volatile
  1244                           
  1245                           ;./util.h: 161:    ADCON1 = 0b00001110;
  1246  002240  0E0E               	movlw	14
  1247  002242  6EC1               	movwf	193,c	;volatile
  1248                           
  1249                           ;./util.h: 162:    ADCON2 = 0b10111110;
  1250  002244  0EBE               	movlw	190
  1251  002246  6EC0               	movwf	192,c	;volatile
  1252  002248                     
  1253                           ;./util.h: 164:    ADCON0bits.ADON = 1;
  1254  002248  80C2               	bsf	194,0,c	;volatile
  1255  00224A  0012               	return		;funcret
  1256  00224C                     __end_of_ADC_init:
  1257                           	callstack 0
  1258                           
  1259 ;; *************** function _doorController_openingDoor *****************
  1260 ;; Defined at:
  1261 ;;		line 196 in file "./util.h"
  1262 ;; Parameters:    Size  Location     Type
  1263 ;;		None
  1264 ;; Auto vars:     Size  Location     Type
  1265 ;;		None
  1266 ;; Return value:  Size  Location     Type
  1267 ;;                  1    wreg      void 
  1268 ;; Registers used:
  1269 ;;		wreg, status,2, status,0, tblptrl, tblptrh, tblptru, cstack
  1270 ;; Tracked objects:
  1271 ;;		On entry : 0/0
  1272 ;;		On exit  : 0/0
  1273 ;;		Unchanged: 0/0
  1274 ;; Data sizes:     COMRAM   BANK0   BANK1   BANK2   BANK3   BANK4   BANK5   BANK6   BANK7
  1275 ;;      Params:         0       0       0       0       0       0       0       0       0
  1276 ;;      Locals:         0       0       0       0       0       0       0       0       0
  1277 ;;      Temps:          0       0       0       0       0       0       0       0       0
  1278 ;;      Totals:         0       0       0       0       0       0       0       0       0
  1279 ;;Total ram usage:        0 bytes
  1280 ;; Hardware stack levels used: 1
  1281 ;; Hardware stack levels required when called: 6
  1282 ;; This function calls:
  1283 ;;		_LCD_clearScreen
  1284 ;;		_LCD_customDelay_ms
  1285 ;;		_LCD_placeCursorInPosition
  1286 ;;		_LCD_print
  1287 ;; This function is called by:
  1288 ;;		_main
  1289 ;; This function uses a non-reentrant model
  1290 ;;
  1291                           
  1292                           	psect	text6
  1293  001BC6                     __ptext6:
  1294                           	callstack 0
  1295  001BC6                     _doorController_openingDoor:
  1296                           	callstack 24
  1297  001BC6                     
  1298                           ;./util.h: 198:    if (doorStatus != opened) {
  1299  001BC6  0E03               	movlw	3
  1300  001BC8  1844               	xorwf	_doorStatus^0,w,c
  1301  001BCA  B4D8               	btfsc	status,2,c
  1302  001BCC  EFEA  F00D         	goto	u1721
  1303  001BD0  EFEC  F00D         	goto	u1720
  1304  001BD4                     u1721:
  1305  001BD4  EF2D  F00E         	goto	l116
  1306  001BD8                     u1720:
  1307  001BD8                     
  1308                           ;./util.h: 199:       LCD_clearScreen();
  1309  001BD8  ECE9  F010         	call	_LCD_clearScreen	;wreg free
  1310  001BDC                     
  1311                           ;./util.h: 200:       LCD_placeCursorInPosition(0x81);
  1312  001BDC  0E81               	movlw	129
  1313  001BDE  ECC9  F010         	call	_LCD_placeCursorInPosition
  1314  001BE2                     
  1315                           ;./util.h: 201:       LCD_print("Status:", 10);
  1316  001BE2  0E70               	movlw	low STR_4
  1317  001BE4  6E1B               	movwf	LCD_print@text^0,c
  1318  001BE6  0E08               	movlw	high STR_4
  1319  001BE8  6E1C               	movwf	(LCD_print@text+1)^0,c
  1320  001BEA  0E0A               	movlw	10
  1321  001BEC  6E1D               	movwf	LCD_print@delay^0,c
  1322  001BEE  0E00               	movlw	0
  1323  001BF0  6E1E               	movwf	(LCD_print@delay+1)^0,c
  1324  001BF2  0E00               	movlw	0
  1325  001BF4  6E1F               	movwf	(LCD_print@delay+2)^0,c
  1326  001BF6  0E00               	movlw	0
  1327  001BF8  6E20               	movwf	(LCD_print@delay+3)^0,c
  1328  001BFA  EC13  F00F         	call	_LCD_print	;wreg free
  1329  001BFE                     
  1330                           ;./util.h: 203:       LCD_placeCursorInPosition(0xC3);
  1331  001BFE  0EC3               	movlw	195
  1332  001C00  ECC9  F010         	call	_LCD_placeCursorInPosition
  1333  001C04                     
  1334                           ;./util.h: 204:       LCD_print("Abrindo...", 10);
  1335  001C04  0E3E               	movlw	low STR_7
  1336  001C06  6E1B               	movwf	LCD_print@text^0,c
  1337  001C08  0E08               	movlw	high STR_7
  1338  001C0A  6E1C               	movwf	(LCD_print@text+1)^0,c
  1339  001C0C  0E0A               	movlw	10
  1340  001C0E  6E1D               	movwf	LCD_print@delay^0,c
  1341  001C10  0E00               	movlw	0
  1342  001C12  6E1E               	movwf	(LCD_print@delay+1)^0,c
  1343  001C14  0E00               	movlw	0
  1344  001C16  6E1F               	movwf	(LCD_print@delay+2)^0,c
  1345  001C18  0E00               	movlw	0
  1346  001C1A  6E20               	movwf	(LCD_print@delay+3)^0,c
  1347  001C1C  EC13  F00F         	call	_LCD_print	;wreg free
  1348  001C20                     
  1349                           ;./util.h: 205:       LCD_customDelay_ms(1500);
  1350  001C20  0EDC               	movlw	220
  1351  001C22  6E17               	movwf	LCD_customDelay_ms@ms^0,c
  1352  001C24  0E05               	movlw	5
  1353  001C26  6E18               	movwf	(LCD_customDelay_ms@ms+1)^0,c
  1354  001C28  0E00               	movlw	0
  1355  001C2A  6E19               	movwf	(LCD_customDelay_ms@ms+2)^0,c
  1356  001C2C  0E00               	movlw	0
  1357  001C2E  6E1A               	movwf	(LCD_customDelay_ms@ms+3)^0,c
  1358  001C30  EC57  F010         	call	_LCD_customDelay_ms	;wreg free
  1359  001C34                     
  1360                           ;./util.h: 207:       LCD_placeCursorInPosition(0xC3);
  1361  001C34  0EC3               	movlw	195
  1362  001C36  ECC9  F010         	call	_LCD_placeCursorInPosition
  1363  001C3A                     
  1364                           ;./util.h: 208:       LCD_print("Aberta    ", 10);
  1365  001C3A  0E33               	movlw	low STR_8
  1366  001C3C  6E1B               	movwf	LCD_print@text^0,c
  1367  001C3E  0E08               	movlw	high STR_8
  1368  001C40  6E1C               	movwf	(LCD_print@text+1)^0,c
  1369  001C42  0E0A               	movlw	10
  1370  001C44  6E1D               	movwf	LCD_print@delay^0,c
  1371  001C46  0E00               	movlw	0
  1372  001C48  6E1E               	movwf	(LCD_print@delay+1)^0,c
  1373  001C4A  0E00               	movlw	0
  1374  001C4C  6E1F               	movwf	(LCD_print@delay+2)^0,c
  1375  001C4E  0E00               	movlw	0
  1376  001C50  6E20               	movwf	(LCD_print@delay+3)^0,c
  1377  001C52  EC13  F00F         	call	_LCD_print	;wreg free
  1378  001C56                     
  1379                           ;./util.h: 210:       doorStatus = opened;
  1380  001C56  0E03               	movlw	3
  1381  001C58  6E44               	movwf	_doorStatus^0,c
  1382  001C5A                     l116:
  1383  001C5A  0004               	clrwdt		;# 
  1384  001C5C  0012               	return		;funcret
  1385  001C5E                     __end_of_doorController_openingDoor:
  1386                           	callstack 0
  1387                           
  1388 ;; *************** function _doorController_closingDoor *****************
  1389 ;; Defined at:
  1390 ;;		line 218 in file "./util.h"
  1391 ;; Parameters:    Size  Location     Type
  1392 ;;		None
  1393 ;; Auto vars:     Size  Location     Type
  1394 ;;		None
  1395 ;; Return value:  Size  Location     Type
  1396 ;;                  1    wreg      void 
  1397 ;; Registers used:
  1398 ;;		wreg, status,2, status,0, tblptrl, tblptrh, tblptru, cstack
  1399 ;; Tracked objects:
  1400 ;;		On entry : 0/0
  1401 ;;		On exit  : 0/0
  1402 ;;		Unchanged: 0/0
  1403 ;; Data sizes:     COMRAM   BANK0   BANK1   BANK2   BANK3   BANK4   BANK5   BANK6   BANK7
  1404 ;;      Params:         0       0       0       0       0       0       0       0       0
  1405 ;;      Locals:         0       0       0       0       0       0       0       0       0
  1406 ;;      Temps:          0       0       0       0       0       0       0       0       0
  1407 ;;      Totals:         0       0       0       0       0       0       0       0       0
  1408 ;;Total ram usage:        0 bytes
  1409 ;; Hardware stack levels used: 1
  1410 ;; Hardware stack levels required when called: 6
  1411 ;; This function calls:
  1412 ;;		_LCD_clearScreen
  1413 ;;		_LCD_customDelay_ms
  1414 ;;		_LCD_placeCursorInPosition
  1415 ;;		_LCD_print
  1416 ;; This function is called by:
  1417 ;;		_main
  1418 ;; This function uses a non-reentrant model
  1419 ;;
  1420                           
  1421                           	psect	text7
  1422  001C5E                     __ptext7:
  1423                           	callstack 0
  1424  001C5E                     _doorController_closingDoor:
  1425                           	callstack 24
  1426  001C5E                     
  1427                           ;./util.h: 220:    if (doorStatus != closed) {
  1428  001C5E  0E04               	movlw	4
  1429  001C60  1844               	xorwf	_doorStatus^0,w,c
  1430  001C62  B4D8               	btfsc	status,2,c
  1431  001C64  EF36  F00E         	goto	u1731
  1432  001C68  EF38  F00E         	goto	u1730
  1433  001C6C                     u1731:
  1434  001C6C  EF79  F00E         	goto	l120
  1435  001C70                     u1730:
  1436  001C70                     
  1437                           ;./util.h: 221:       LCD_clearScreen();
  1438  001C70  ECE9  F010         	call	_LCD_clearScreen	;wreg free
  1439  001C74                     
  1440                           ;./util.h: 222:       LCD_placeCursorInPosition(0x81);
  1441  001C74  0E81               	movlw	129
  1442  001C76  ECC9  F010         	call	_LCD_placeCursorInPosition
  1443  001C7A                     
  1444                           ;./util.h: 223:       LCD_print("Status:", 10);
  1445  001C7A  0E70               	movlw	low STR_4
  1446  001C7C  6E1B               	movwf	LCD_print@text^0,c
  1447  001C7E  0E08               	movlw	high STR_4
  1448  001C80  6E1C               	movwf	(LCD_print@text+1)^0,c
  1449  001C82  0E0A               	movlw	10
  1450  001C84  6E1D               	movwf	LCD_print@delay^0,c
  1451  001C86  0E00               	movlw	0
  1452  001C88  6E1E               	movwf	(LCD_print@delay+1)^0,c
  1453  001C8A  0E00               	movlw	0
  1454  001C8C  6E1F               	movwf	(LCD_print@delay+2)^0,c
  1455  001C8E  0E00               	movlw	0
  1456  001C90  6E20               	movwf	(LCD_print@delay+3)^0,c
  1457  001C92  EC13  F00F         	call	_LCD_print	;wreg free
  1458  001C96                     
  1459                           ;./util.h: 225:       LCD_placeCursorInPosition(0xC3);
  1460  001C96  0EC3               	movlw	195
  1461  001C98  ECC9  F010         	call	_LCD_placeCursorInPosition
  1462  001C9C                     
  1463                           ;./util.h: 226:       LCD_print("Fechando...", 10);
  1464  001C9C  0E1B               	movlw	low STR_10
  1465  001C9E  6E1B               	movwf	LCD_print@text^0,c
  1466  001CA0  0E08               	movlw	high STR_10
  1467  001CA2  6E1C               	movwf	(LCD_print@text+1)^0,c
  1468  001CA4  0E0A               	movlw	10
  1469  001CA6  6E1D               	movwf	LCD_print@delay^0,c
  1470  001CA8  0E00               	movlw	0
  1471  001CAA  6E1E               	movwf	(LCD_print@delay+1)^0,c
  1472  001CAC  0E00               	movlw	0
  1473  001CAE  6E1F               	movwf	(LCD_print@delay+2)^0,c
  1474  001CB0  0E00               	movlw	0
  1475  001CB2  6E20               	movwf	(LCD_print@delay+3)^0,c
  1476  001CB4  EC13  F00F         	call	_LCD_print	;wreg free
  1477  001CB8                     
  1478                           ;./util.h: 227:       LCD_customDelay_ms(1500);
  1479  001CB8  0EDC               	movlw	220
  1480  001CBA  6E17               	movwf	LCD_customDelay_ms@ms^0,c
  1481  001CBC  0E05               	movlw	5
  1482  001CBE  6E18               	movwf	(LCD_customDelay_ms@ms+1)^0,c
  1483  001CC0  0E00               	movlw	0
  1484  001CC2  6E19               	movwf	(LCD_customDelay_ms@ms+2)^0,c
  1485  001CC4  0E00               	movlw	0
  1486  001CC6  6E1A               	movwf	(LCD_customDelay_ms@ms+3)^0,c
  1487  001CC8  EC57  F010         	call	_LCD_customDelay_ms	;wreg free
  1488  001CCC                     
  1489                           ;./util.h: 229:       LCD_placeCursorInPosition(0xC3);
  1490  001CCC  0EC3               	movlw	195
  1491  001CCE  ECC9  F010         	call	_LCD_placeCursorInPosition
  1492  001CD2                     
  1493                           ;./util.h: 230:       LCD_print("Fechada    ", 10);
  1494  001CD2  0E0F               	movlw	low STR_5
  1495  001CD4  6E1B               	movwf	LCD_print@text^0,c
  1496  001CD6  0E08               	movlw	high STR_5
  1497  001CD8  6E1C               	movwf	(LCD_print@text+1)^0,c
  1498  001CDA  0E0A               	movlw	10
  1499  001CDC  6E1D               	movwf	LCD_print@delay^0,c
  1500  001CDE  0E00               	movlw	0
  1501  001CE0  6E1E               	movwf	(LCD_print@delay+1)^0,c
  1502  001CE2  0E00               	movlw	0
  1503  001CE4  6E1F               	movwf	(LCD_print@delay+2)^0,c
  1504  001CE6  0E00               	movlw	0
  1505  001CE8  6E20               	movwf	(LCD_print@delay+3)^0,c
  1506  001CEA  EC13  F00F         	call	_LCD_print	;wreg free
  1507  001CEE                     
  1508                           ;./util.h: 232:       doorStatus = closed;
  1509  001CEE  0E04               	movlw	4
  1510  001CF0  6E44               	movwf	_doorStatus^0,c
  1511  001CF2                     l120:
  1512  001CF2  0004               	clrwdt		;# 
  1513  001CF4  0012               	return		;funcret
  1514  001CF6                     __end_of_doorController_closingDoor:
  1515                           	callstack 0
  1516                           
  1517 ;; *************** function _LCD_print *****************
  1518 ;; Defined at:
  1519 ;;		line 73 in file "./lcd.h"
  1520 ;; Parameters:    Size  Location     Type
  1521 ;;  text            2   26[COMRAM] PTR unsigned char 
  1522 ;;		 -> STR_15(11), STR_14(9), STR_13(11), STR_12(10), 
  1523 ;;		 -> STR_11(12), STR_10(12), STR_9(8), STR_8(11), 
  1524 ;;		 -> STR_7(11), STR_6(8), STR_5(12), STR_4(8), 
  1525 ;;		 -> STR_3(9), STR_2(12), STR_1(14), 
  1526 ;;  delay           4   28[COMRAM] long 
  1527 ;; Auto vars:     Size  Location     Type
  1528 ;;  i               2   36[COMRAM] int 
  1529 ;;  length          2   34[COMRAM] int 
  1530 ;; Return value:  Size  Location     Type
  1531 ;;                  1    wreg      void 
  1532 ;; Registers used:
  1533 ;;		wreg, status,2, status,0, tblptrl, tblptrh, tblptru, cstack
  1534 ;; Tracked objects:
  1535 ;;		On entry : 0/0
  1536 ;;		On exit  : 0/0
  1537 ;;		Unchanged: 0/0
  1538 ;; Data sizes:     COMRAM   BANK0   BANK1   BANK2   BANK3   BANK4   BANK5   BANK6   BANK7
  1539 ;;      Params:         6       0       0       0       0       0       0       0       0
  1540 ;;      Locals:         4       0       0       0       0       0       0       0       0
  1541 ;;      Temps:          2       0       0       0       0       0       0       0       0
  1542 ;;      Totals:        12       0       0       0       0       0       0       0       0
  1543 ;;Total ram usage:       12 bytes
  1544 ;; Hardware stack levels used: 1
  1545 ;; Hardware stack levels required when called: 5
  1546 ;; This function calls:
  1547 ;;		_LCD_customDelay_ms
  1548 ;;		_strlen
  1549 ;; This function is called by:
  1550 ;;		_doorController_init
  1551 ;;		_doorController_openingDoor
  1552 ;;		_doorController_closingDoor
  1553 ;; This function uses a non-reentrant model
  1554 ;;
  1555                           
  1556                           	psect	text8
  1557  001E26                     __ptext8:
  1558                           	callstack 0
  1559  001E26                     _LCD_print:
  1560                           	callstack 23
  1561  001E26                     
  1562                           ;./lcd.h: 73: void LCD_print(char text[], long delay);./lcd.h: 74: {;./lcd.h: 75:    int
      +                           i, length;;./lcd.h: 76:    length = (int) strlen(text);
  1563  001E26  C01B  F017         	movff	LCD_print@text,strlen@s
  1564  001E2A  C01C  F018         	movff	LCD_print@text+1,strlen@s+1
  1565  001E2E  EC3A  F010         	call	_strlen	;wreg free
  1566  001E32  C017  F023         	movff	?_strlen,LCD_print@length
  1567  001E36  C018  F024         	movff	?_strlen+1,LCD_print@length+1
  1568  001E3A                     
  1569                           ;./lcd.h: 77:    for (i = 0; i < length; i++) {
  1570  001E3A  0E00               	movlw	0
  1571  001E3C  6E26               	movwf	(LCD_print@i+1)^0,c
  1572  001E3E  0E00               	movlw	0
  1573  001E40  6E25               	movwf	LCD_print@i^0,c
  1574  001E42  EF42  F00F         	goto	l1840
  1575  001E46                     l67:
  1576                           
  1577                           ;./lcd.h: 78:       PORTEbits.RE1 = 1;
  1578  001E46  8284               	bsf	132,1,c	;volatile
  1579  001E48                     
  1580                           ;./lcd.h: 79:       PORTD = text[i];
  1581  001E48  5025               	movf	LCD_print@i^0,w,c
  1582  001E4A  241B               	addwf	LCD_print@text^0,w,c
  1583  001E4C  6E21               	movwf	??_LCD_print^0,c
  1584  001E4E  5026               	movf	(LCD_print@i+1)^0,w,c
  1585  001E50  201C               	addwfc	(LCD_print@text+1)^0,w,c
  1586  001E52  6E22               	movwf	(??_LCD_print+1)^0,c
  1587  001E54  C021  FFF6         	movff	??_LCD_print,tblptrl
  1588  001E58  C022  FFF7         	movff	??_LCD_print+1,tblptrh
  1589  001E5C                     	if	0	;tblptru may be non-zero
  1590  001E5C                     	endif
  1591  001E5C                     	if	0	;tblptru may be non-zero
  1592  001E5C                     	endif
  1593  001E5C  0008               	tblrd		*
  1594  001E5E  CFF5 FF83          	movff	tablat,3971	;volatile
  1595  001E62                     
  1596                           ;./lcd.h: 80:       LCD_customDelay_ms(delay);
  1597  001E62  C01D  F017         	movff	LCD_print@delay,LCD_customDelay_ms@ms
  1598  001E66  C01E  F018         	movff	LCD_print@delay+1,LCD_customDelay_ms@ms+1
  1599  001E6A  C01F  F019         	movff	LCD_print@delay+2,LCD_customDelay_ms@ms+2
  1600  001E6E  C020  F01A         	movff	LCD_print@delay+3,LCD_customDelay_ms@ms+3
  1601  001E72  EC57  F010         	call	_LCD_customDelay_ms	;wreg free
  1602  001E76                     
  1603                           ;./lcd.h: 82:       PORTEbits.RE1 = 0;
  1604  001E76  9284               	bcf	132,1,c	;volatile
  1605  001E78                     
  1606                           ;./lcd.h: 83:       _delay((unsigned long)((50)*(4000000/4000000.0)));
  1607  001E78  0E10               	movlw	16
  1608  001E7A                     u3037:
  1609  001E7A  2EE8               	decfsz	wreg,f,c
  1610  001E7C  D7FE               	bra	u3037
  1611  001E7E  D000               	nop2	
  1612  001E80                     
  1613                           ;./lcd.h: 84:    }
  1614  001E80  4A25               	infsnz	LCD_print@i^0,f,c
  1615  001E82  2A26               	incf	(LCD_print@i+1)^0,f,c
  1616  001E84                     l1840:
  1617  001E84  5023               	movf	LCD_print@length^0,w,c
  1618  001E86  5C25               	subwf	LCD_print@i^0,w,c
  1619  001E88  5026               	movf	(LCD_print@i+1)^0,w,c
  1620  001E8A  0A80               	xorlw	128
  1621  001E8C  6E21               	movwf	??_LCD_print^0,c
  1622  001E8E  5024               	movf	(LCD_print@length+1)^0,w,c
  1623  001E90  0A80               	xorlw	128
  1624  001E92  5821               	subwfb	??_LCD_print^0,w,c
  1625  001E94  A0D8               	btfss	status,0,c
  1626  001E96  EF4F  F00F         	goto	u1271
  1627  001E9A  EF51  F00F         	goto	u1270
  1628  001E9E                     u1271:
  1629  001E9E  EF23  F00F         	goto	l67
  1630  001EA2                     u1270:
  1631  001EA2  0012               	return		;funcret
  1632  001EA4                     __end_of_LCD_print:
  1633                           	callstack 0
  1634                           
  1635 ;; *************** function _strlen *****************
  1636 ;; Defined at:
  1637 ;;		line 5 in file "C:\Program Files\Microchip\xc8\v2.32\pic\sources\c99\common\strlen.c"
  1638 ;; Parameters:    Size  Location     Type
  1639 ;;  s               2   22[COMRAM] PTR const unsigned char 
  1640 ;;		 -> STR_15(11), STR_14(9), STR_13(11), STR_12(10), 
  1641 ;;		 -> STR_11(12), STR_10(12), STR_9(8), STR_8(11), 
  1642 ;;		 -> STR_7(11), STR_6(8), STR_5(12), STR_4(8), 
  1643 ;;		 -> STR_3(9), STR_2(12), STR_1(14), 
  1644 ;; Auto vars:     Size  Location     Type
  1645 ;;  a               2   24[COMRAM] PTR const unsigned char 
  1646 ;;		 -> STR_15(11), STR_14(9), STR_13(11), STR_12(10), 
  1647 ;;		 -> STR_11(12), STR_10(12), STR_9(8), STR_8(11), 
  1648 ;;		 -> STR_7(11), STR_6(8), STR_5(12), STR_4(8), 
  1649 ;;		 -> STR_3(9), STR_2(12), STR_1(14), 
  1650 ;; Return value:  Size  Location     Type
  1651 ;;                  2   22[COMRAM] unsigned int 
  1652 ;; Registers used:
  1653 ;;		wreg, status,2, status,0, tblptrl, tblptrh, tblptru
  1654 ;; Tracked objects:
  1655 ;;		On entry : 0/0
  1656 ;;		On exit  : 0/0
  1657 ;;		Unchanged: 0/0
  1658 ;; Data sizes:     COMRAM   BANK0   BANK1   BANK2   BANK3   BANK4   BANK5   BANK6   BANK7
  1659 ;;      Params:         2       0       0       0       0       0       0       0       0
  1660 ;;      Locals:         2       0       0       0       0       0       0       0       0
  1661 ;;      Temps:          0       0       0       0       0       0       0       0       0
  1662 ;;      Totals:         4       0       0       0       0       0       0       0       0
  1663 ;;Total ram usage:        4 bytes
  1664 ;; Hardware stack levels used: 1
  1665 ;; Hardware stack levels required when called: 4
  1666 ;; This function calls:
  1667 ;;		Nothing
  1668 ;; This function is called by:
  1669 ;;		_LCD_print
  1670 ;; This function uses a non-reentrant model
  1671 ;;
  1672                           
  1673                           	psect	text9
  1674  002074                     __ptext9:
  1675                           	callstack 0
  1676  002074                     _strlen:
  1677                           	callstack 23
  1678  002074  C017  F019         	movff	strlen@s,strlen@a
  1679  002078  C018  F01A         	movff	strlen@s+1,strlen@a+1
  1680  00207C  EF42  F010         	goto	l1796
  1681  002080                     l1794:
  1682  002080  4A17               	infsnz	strlen@s^0,f,c
  1683  002082  2A18               	incf	(strlen@s+1)^0,f,c
  1684  002084                     l1796:
  1685  002084  C017  FFF6         	movff	strlen@s,tblptrl
  1686  002088  C018  FFF7         	movff	strlen@s+1,tblptrh
  1687  00208C                     	if	0	;tblptru may be non-zero
  1688  00208C                     	endif
  1689  00208C                     	if	0	;tblptru may be non-zero
  1690  00208C                     	endif
  1691  00208C  0008               	tblrd		*
  1692  00208E  50F5               	movf	tablat,w,c
  1693  002090  0900               	iorlw	0
  1694  002092  A4D8               	btfss	status,2,c
  1695  002094  EF4E  F010         	goto	u1261
  1696  002098  EF50  F010         	goto	u1260
  1697  00209C                     u1261:
  1698  00209C  EF40  F010         	goto	l1794
  1699  0020A0                     u1260:
  1700  0020A0  5019               	movf	strlen@a^0,w,c
  1701  0020A2  5C17               	subwf	strlen@s^0,w,c
  1702  0020A4  6E17               	movwf	?_strlen^0,c
  1703  0020A6  501A               	movf	(strlen@a+1)^0,w,c
  1704  0020A8  5818               	subwfb	(strlen@s+1)^0,w,c
  1705  0020AA  6E18               	movwf	(?_strlen+1)^0,c
  1706  0020AC  0012               	return		;funcret
  1707  0020AE                     __end_of_strlen:
  1708                           	callstack 0
  1709                           
  1710 ;; *************** function _LCD_customDelay_ms *****************
  1711 ;; Defined at:
  1712 ;;		line 66 in file "./lcd.h"
  1713 ;; Parameters:    Size  Location     Type
  1714 ;;  ms              4   22[COMRAM] long 
  1715 ;; Auto vars:     Size  Location     Type
  1716 ;;		None
  1717 ;; Return value:  Size  Location     Type
  1718 ;;                  1    wreg      void 
  1719 ;; Registers used:
  1720 ;;		wreg, status,2, status,0
  1721 ;; Tracked objects:
  1722 ;;		On entry : 0/0
  1723 ;;		On exit  : 0/0
  1724 ;;		Unchanged: 0/0
  1725 ;; Data sizes:     COMRAM   BANK0   BANK1   BANK2   BANK3   BANK4   BANK5   BANK6   BANK7
  1726 ;;      Params:         4       0       0       0       0       0       0       0       0
  1727 ;;      Locals:         0       0       0       0       0       0       0       0       0
  1728 ;;      Temps:          0       0       0       0       0       0       0       0       0
  1729 ;;      Totals:         4       0       0       0       0       0       0       0       0
  1730 ;;Total ram usage:        4 bytes
  1731 ;; Hardware stack levels used: 1
  1732 ;; Hardware stack levels required when called: 4
  1733 ;; This function calls:
  1734 ;;		Nothing
  1735 ;; This function is called by:
  1736 ;;		_LCD_print
  1737 ;;		_doorController_openingDoor
  1738 ;;		_doorController_closingDoor
  1739 ;; This function uses a non-reentrant model
  1740 ;;
  1741                           
  1742                           	psect	text10
  1743  0020AE                     __ptext10:
  1744                           	callstack 0
  1745  0020AE                     _LCD_customDelay_ms:
  1746                           	callstack 23
  1747  0020AE                     
  1748                           ;./lcd.h: 66: void LCD_customDelay_ms(long ms);./lcd.h: 67: {;./lcd.h: 68:    while (ms-
      +                          -) {
  1749  0020AE  EF5D  F010         	goto	l1790
  1750  0020B2                     l1788:
  1751                           
  1752                           ;./lcd.h: 69:       _delay((unsigned long)((1)*(4000000/4000.0)));
  1753  0020B2  0EC8               	movlw	200
  1754  0020B4                     u3047:
  1755  0020B4  D000               	nop2	
  1756  0020B6  2EE8               	decfsz	wreg,f,c
  1757  0020B8  D7FD               	bra	u3047
  1758  0020BA                     l1790:
  1759                           
  1760                           ;./lcd.h: 68:    while (ms--) {
  1761  0020BA  0EFF               	movlw	255
  1762  0020BC  2617               	addwf	LCD_customDelay_ms@ms^0,f,c
  1763  0020BE  0EFF               	movlw	255
  1764  0020C0  2218               	addwfc	(LCD_customDelay_ms@ms+1)^0,f,c
  1765  0020C2  0EFF               	movlw	255
  1766  0020C4  2219               	addwfc	(LCD_customDelay_ms@ms+2)^0,f,c
  1767  0020C6  0EFF               	movlw	255
  1768  0020C8  221A               	addwfc	(LCD_customDelay_ms@ms+3)^0,f,c
  1769  0020CA  2817               	incf	LCD_customDelay_ms@ms^0,w,c
  1770  0020CC  E10A               	bnz	u1251
  1771  0020CE  2818               	incf	(LCD_customDelay_ms@ms+1)^0,w,c
  1772  0020D0  E108               	bnz	u1251
  1773  0020D2  2819               	incf	(LCD_customDelay_ms@ms+2)^0,w,c
  1774  0020D4  E106               	bnz	u1251
  1775  0020D6  281A               	incf	(LCD_customDelay_ms@ms+3)^0,w,c
  1776  0020D8  A4D8               	btfss	status,2,c
  1777  0020DA  EF71  F010         	goto	u1251
  1778  0020DE  EF73  F010         	goto	u1250
  1779  0020E2                     u1251:
  1780  0020E2  EF59  F010         	goto	l1788
  1781  0020E6                     u1250:
  1782  0020E6  0012               	return		;funcret
  1783  0020E8                     __end_of_LCD_customDelay_ms:
  1784                           	callstack 0
  1785                           
  1786 ;; *************** function _LCD_placeCursorInPosition *****************
  1787 ;; Defined at:
  1788 ;;		line 55 in file "./lcd.h"
  1789 ;; Parameters:    Size  Location     Type
  1790 ;;  position        1    wreg     unsigned char 
  1791 ;; Auto vars:     Size  Location     Type
  1792 ;;  position        1   22[COMRAM] unsigned char 
  1793 ;; Return value:  Size  Location     Type
  1794 ;;                  1    wreg      void 
  1795 ;; Registers used:
  1796 ;;		wreg
  1797 ;; Tracked objects:
  1798 ;;		On entry : 0/0
  1799 ;;		On exit  : 0/0
  1800 ;;		Unchanged: 0/0
  1801 ;; Data sizes:     COMRAM   BANK0   BANK1   BANK2   BANK3   BANK4   BANK5   BANK6   BANK7
  1802 ;;      Params:         0       0       0       0       0       0       0       0       0
  1803 ;;      Locals:         1       0       0       0       0       0       0       0       0
  1804 ;;      Temps:          0       0       0       0       0       0       0       0       0
  1805 ;;      Totals:         1       0       0       0       0       0       0       0       0
  1806 ;;Total ram usage:        1 bytes
  1807 ;; Hardware stack levels used: 1
  1808 ;; Hardware stack levels required when called: 4
  1809 ;; This function calls:
  1810 ;;		Nothing
  1811 ;; This function is called by:
  1812 ;;		_doorController_init
  1813 ;;		_doorController_openingDoor
  1814 ;;		_doorController_closingDoor
  1815 ;; This function uses a non-reentrant model
  1816 ;;
  1817                           
  1818                           	psect	text11
  1819  002192                     __ptext11:
  1820                           	callstack 0
  1821  002192                     _LCD_placeCursorInPosition:
  1822                           	callstack 24
  1823                           
  1824                           ;incstack = 0
  1825                           ;LCD_placeCursorInPosition@position stored from wreg
  1826  002192  6E17               	movwf	LCD_placeCursorInPosition@position^0,c
  1827  002194                     
  1828                           ;./lcd.h: 55: void LCD_placeCursorInPosition(char position);./lcd.h: 56: {;./lcd.h: 57: 
      +                             PORTEbits.RE2 = 0;
  1829  002194  9484               	bcf	132,2,c	;volatile
  1830                           
  1831                           ;./lcd.h: 58:    PORTEbits.RE1 = 1;
  1832  002196  8284               	bsf	132,1,c	;volatile
  1833  002198                     
  1834                           ;./lcd.h: 59:    PORTD = position;
  1835  002198  C017  FF83         	movff	LCD_placeCursorInPosition@position,3971	;volatile
  1836  00219C                     
  1837                           ;./lcd.h: 60:    _delay((unsigned long)((50)*(4000000/4000000.0)));
  1838  00219C  0E10               	movlw	16
  1839  00219E                     u3057:
  1840  00219E  2EE8               	decfsz	wreg,f,c
  1841  0021A0  D7FE               	bra	u3057
  1842  0021A2  D000               	nop2	
  1843  0021A4                     
  1844                           ;./lcd.h: 61:    PORTEbits.RE1 = 0;
  1845  0021A4  9284               	bcf	132,1,c	;volatile
  1846  0021A6                     
  1847                           ;./lcd.h: 62:    _delay((unsigned long)((50)*(4000000/4000000.0)));
  1848  0021A6  0E10               	movlw	16
  1849  0021A8                     u3067:
  1850  0021A8  2EE8               	decfsz	wreg,f,c
  1851  0021AA  D7FE               	bra	u3067
  1852  0021AC  D000               	nop2	
  1853  0021AE                     
  1854                           ;./lcd.h: 63:    PORTEbits.RE2 = 1;
  1855  0021AE  8484               	bsf	132,2,c	;volatile
  1856  0021B0  0012               	return		;funcret
  1857  0021B2                     __end_of_LCD_placeCursorInPosition:
  1858                           	callstack 0
  1859                           
  1860 ;; *************** function _LCD_clearScreen *****************
  1861 ;; Defined at:
  1862 ;;		line 44 in file "./lcd.h"
  1863 ;; Parameters:    Size  Location     Type
  1864 ;;		None
  1865 ;; Auto vars:     Size  Location     Type
  1866 ;;		None
  1867 ;; Return value:  Size  Location     Type
  1868 ;;                  1    wreg      void 
  1869 ;; Registers used:
  1870 ;;		wreg, status,2
  1871 ;; Tracked objects:
  1872 ;;		On entry : 0/0
  1873 ;;		On exit  : 0/0
  1874 ;;		Unchanged: 0/0
  1875 ;; Data sizes:     COMRAM   BANK0   BANK1   BANK2   BANK3   BANK4   BANK5   BANK6   BANK7
  1876 ;;      Params:         0       0       0       0       0       0       0       0       0
  1877 ;;      Locals:         0       0       0       0       0       0       0       0       0
  1878 ;;      Temps:          0       0       0       0       0       0       0       0       0
  1879 ;;      Totals:         0       0       0       0       0       0       0       0       0
  1880 ;;Total ram usage:        0 bytes
  1881 ;; Hardware stack levels used: 1
  1882 ;; Hardware stack levels required when called: 4
  1883 ;; This function calls:
  1884 ;;		Nothing
  1885 ;; This function is called by:
  1886 ;;		_doorController_init
  1887 ;;		_doorController_openingDoor
  1888 ;;		_doorController_closingDoor
  1889 ;; This function uses a non-reentrant model
  1890 ;;
  1891                           
  1892                           	psect	text12
  1893  0021D2                     __ptext12:
  1894                           	callstack 0
  1895  0021D2                     _LCD_clearScreen:
  1896                           	callstack 24
  1897  0021D2                     
  1898                           ;./lcd.h: 46:    PORTEbits.RE2 = 0;
  1899  0021D2  9484               	bcf	132,2,c	;volatile
  1900                           
  1901                           ;./lcd.h: 47:    PORTEbits.RE1 = 1;
  1902  0021D4  8284               	bsf	132,1,c	;volatile
  1903  0021D6                     
  1904                           ;./lcd.h: 48:    PORTD = 0x01;
  1905  0021D6  0E01               	movlw	1
  1906  0021D8  6E83               	movwf	131,c	;volatile
  1907  0021DA                     
  1908                           ;./lcd.h: 49:    _delay((unsigned long)((50)*(4000000/4000000.0)));
  1909  0021DA  0E10               	movlw	16
  1910  0021DC                     u3077:
  1911  0021DC  2EE8               	decfsz	wreg,f,c
  1912  0021DE  D7FE               	bra	u3077
  1913  0021E0  D000               	nop2	
  1914  0021E2                     
  1915                           ;./lcd.h: 50:    PORTEbits.RE1 = 0;
  1916  0021E2  9284               	bcf	132,1,c	;volatile
  1917  0021E4                     
  1918                           ;./lcd.h: 51:    _delay((unsigned long)((50)*(4000000/4000000.0)));
  1919  0021E4  0E10               	movlw	16
  1920  0021E6                     u3087:
  1921  0021E6  2EE8               	decfsz	wreg,f,c
  1922  0021E8  D7FE               	bra	u3087
  1923  0021EA  D000               	nop2	
  1924  0021EC                     
  1925                           ;./lcd.h: 52:    PORTEbits.RE2 = 1;
  1926  0021EC  8484               	bsf	132,2,c	;volatile
  1927  0021EE  0012               	return		;funcret
  1928  0021F0                     __end_of_LCD_clearScreen:
  1929                           	callstack 0
  1930                           
  1931 ;; *************** function ___xxtofl *****************
  1932 ;; Defined at:
  1933 ;;		line 10 in file "C:\Program Files\Microchip\xc8\v2.32\pic\sources\c99\common\xxtofl.c"
  1934 ;; Parameters:    Size  Location     Type
  1935 ;;  sign            1    wreg     unsigned char 
  1936 ;;  val             4   22[COMRAM] long 
  1937 ;; Auto vars:     Size  Location     Type
  1938 ;;  sign            1   30[COMRAM] unsigned char 
  1939 ;;  arg             4   32[COMRAM] unsigned long 
  1940 ;;  exp             1   31[COMRAM] unsigned char 
  1941 ;; Return value:  Size  Location     Type
  1942 ;;                  4   22[COMRAM] unsigned char 
  1943 ;; Registers used:
  1944 ;;		wreg, status,2, status,0
  1945 ;; Tracked objects:
  1946 ;;		On entry : 0/0
  1947 ;;		On exit  : 0/0
  1948 ;;		Unchanged: 0/0
  1949 ;; Data sizes:     COMRAM   BANK0   BANK1   BANK2   BANK3   BANK4   BANK5   BANK6   BANK7
  1950 ;;      Params:         4       0       0       0       0       0       0       0       0
  1951 ;;      Locals:         6       0       0       0       0       0       0       0       0
  1952 ;;      Temps:          4       0       0       0       0       0       0       0       0
  1953 ;;      Totals:        14       0       0       0       0       0       0       0       0
  1954 ;;Total ram usage:       14 bytes
  1955 ;; Hardware stack levels used: 1
  1956 ;; Hardware stack levels required when called: 4
  1957 ;; This function calls:
  1958 ;;		Nothing
  1959 ;; This function is called by:
  1960 ;;		_main
  1961 ;;		_LCD_printFloatNumber
  1962 ;; This function uses a non-reentrant model
  1963 ;;
  1964                           
  1965                           	psect	text13
  1966  001502                     __ptext13:
  1967                           	callstack 0
  1968  001502                     ___xxtofl:
  1969                           	callstack 26
  1970                           
  1971                           ;incstack = 0
  1972                           ;___xxtofl@sign stored from wreg
  1973  001502  6E1F               	movwf	___xxtofl@sign^0,c
  1974  001504  501F               	movf	___xxtofl@sign^0,w,c
  1975  001506  B4D8               	btfsc	status,2,c
  1976  001508  EF88  F00A         	goto	u2241
  1977  00150C  EF8A  F00A         	goto	u2240
  1978  001510                     u2241:
  1979  001510  EFAC  F00A         	goto	l803
  1980  001514                     u2240:
  1981  001514  BE1A               	btfsc	(___xxtofl@val+3)^0,7,c
  1982  001516  EF91  F00A         	goto	u2250
  1983  00151A  EF8F  F00A         	goto	u2251
  1984  00151E                     u2251:
  1985  00151E  EFAC  F00A         	goto	l803
  1986  001522                     u2250:
  1987  001522  C017  F01B         	movff	___xxtofl@val,??___xxtofl
  1988  001526  C018  F01C         	movff	___xxtofl@val+1,??___xxtofl+1
  1989  00152A  C019  F01D         	movff	___xxtofl@val+2,??___xxtofl+2
  1990  00152E  C01A  F01E         	movff	___xxtofl@val+3,??___xxtofl+3
  1991  001532  1E1B               	comf	??___xxtofl^0,f,c
  1992  001534  1E1C               	comf	(??___xxtofl+1)^0,f,c
  1993  001536  1E1D               	comf	(??___xxtofl+2)^0,f,c
  1994  001538  1E1E               	comf	(??___xxtofl+3)^0,f,c
  1995  00153A  2A1B               	incf	??___xxtofl^0,f,c
  1996  00153C  0E00               	movlw	0
  1997  00153E  221C               	addwfc	(??___xxtofl+1)^0,f,c
  1998  001540  221D               	addwfc	(??___xxtofl+2)^0,f,c
  1999  001542  221E               	addwfc	(??___xxtofl+3)^0,f,c
  2000  001544  C01B  F021         	movff	??___xxtofl,___xxtofl@arg
  2001  001548  C01C  F022         	movff	??___xxtofl+1,___xxtofl@arg+1
  2002  00154C  C01D  F023         	movff	??___xxtofl+2,___xxtofl@arg+2
  2003  001550  C01E  F024         	movff	??___xxtofl+3,___xxtofl@arg+3
  2004  001554  EFB4  F00A         	goto	l2538
  2005  001558                     l803:
  2006  001558  C017  F021         	movff	___xxtofl@val,___xxtofl@arg
  2007  00155C  C018  F022         	movff	___xxtofl@val+1,___xxtofl@arg+1
  2008  001560  C019  F023         	movff	___xxtofl@val+2,___xxtofl@arg+2
  2009  001564  C01A  F024         	movff	___xxtofl@val+3,___xxtofl@arg+3
  2010  001568                     l2538:
  2011  001568  5017               	movf	___xxtofl@val^0,w,c
  2012  00156A  1018               	iorwf	(___xxtofl@val+1)^0,w,c
  2013  00156C  1019               	iorwf	(___xxtofl@val+2)^0,w,c
  2014  00156E  101A               	iorwf	(___xxtofl@val+3)^0,w,c
  2015  001570  A4D8               	btfss	status,2,c
  2016  001572  EFBD  F00A         	goto	u2261
  2017  001576  EFBF  F00A         	goto	u2260
  2018  00157A                     u2261:
  2019  00157A  EFC9  F00A         	goto	l2544
  2020  00157E                     u2260:
  2021  00157E  0E00               	movlw	0
  2022  001580  6E17               	movwf	?___xxtofl^0,c
  2023  001582  0E00               	movlw	0
  2024  001584  6E18               	movwf	(?___xxtofl+1)^0,c
  2025  001586  0E00               	movlw	0
  2026  001588  6E19               	movwf	(?___xxtofl+2)^0,c
  2027  00158A  0E00               	movlw	0
  2028  00158C  6E1A               	movwf	(?___xxtofl+3)^0,c
  2029  00158E  EF5A  F00B         	goto	l806
  2030  001592                     l2544:
  2031  001592  0E96               	movlw	150
  2032  001594  6E20               	movwf	___xxtofl@exp^0,c
  2033  001596  EFD3  F00A         	goto	l2548
  2034  00159A                     l2546:
  2035  00159A  2A20               	incf	___xxtofl@exp^0,f,c
  2036  00159C  90D8               	bcf	status,0,c
  2037  00159E  3224               	rrcf	(___xxtofl@arg+3)^0,f,c
  2038  0015A0  3223               	rrcf	(___xxtofl@arg+2)^0,f,c
  2039  0015A2  3222               	rrcf	(___xxtofl@arg+1)^0,f,c
  2040  0015A4  3221               	rrcf	___xxtofl@arg^0,f,c
  2041  0015A6                     l2548:
  2042  0015A6  0E00               	movlw	0
  2043  0015A8  1421               	andwf	___xxtofl@arg^0,w,c
  2044  0015AA  6E1B               	movwf	??___xxtofl^0,c
  2045  0015AC  0E00               	movlw	0
  2046  0015AE  1422               	andwf	(___xxtofl@arg+1)^0,w,c
  2047  0015B0  6E1C               	movwf	(??___xxtofl+1)^0,c
  2048  0015B2  0E00               	movlw	0
  2049  0015B4  1423               	andwf	(___xxtofl@arg+2)^0,w,c
  2050  0015B6  6E1D               	movwf	(??___xxtofl+2)^0,c
  2051  0015B8  0EFE               	movlw	254
  2052  0015BA  1424               	andwf	(___xxtofl@arg+3)^0,w,c
  2053  0015BC  6E1E               	movwf	(??___xxtofl+3)^0,c
  2054  0015BE  501B               	movf	??___xxtofl^0,w,c
  2055  0015C0  101C               	iorwf	(??___xxtofl+1)^0,w,c
  2056  0015C2  101D               	iorwf	(??___xxtofl+2)^0,w,c
  2057  0015C4  101E               	iorwf	(??___xxtofl+3)^0,w,c
  2058  0015C6  A4D8               	btfss	status,2,c
  2059  0015C8  EFE8  F00A         	goto	u2271
  2060  0015CC  EFEA  F00A         	goto	u2270
  2061  0015D0                     u2271:
  2062  0015D0  EFCD  F00A         	goto	l2546
  2063  0015D4                     u2270:
  2064  0015D4  EFF8  F00A         	goto	l810
  2065  0015D8                     l2550:
  2066  0015D8  2A20               	incf	___xxtofl@exp^0,f,c
  2067  0015DA  0E01               	movlw	1
  2068  0015DC  2621               	addwf	___xxtofl@arg^0,f,c
  2069  0015DE  0E00               	movlw	0
  2070  0015E0  2222               	addwfc	(___xxtofl@arg+1)^0,f,c
  2071  0015E2  2223               	addwfc	(___xxtofl@arg+2)^0,f,c
  2072  0015E4  2224               	addwfc	(___xxtofl@arg+3)^0,f,c
  2073  0015E6  90D8               	bcf	status,0,c
  2074  0015E8  3224               	rrcf	(___xxtofl@arg+3)^0,f,c
  2075  0015EA  3223               	rrcf	(___xxtofl@arg+2)^0,f,c
  2076  0015EC  3222               	rrcf	(___xxtofl@arg+1)^0,f,c
  2077  0015EE  3221               	rrcf	___xxtofl@arg^0,f,c
  2078  0015F0                     l810:
  2079  0015F0  0E00               	movlw	0
  2080  0015F2  1421               	andwf	___xxtofl@arg^0,w,c
  2081  0015F4  6E1B               	movwf	??___xxtofl^0,c
  2082  0015F6  0E00               	movlw	0
  2083  0015F8  1422               	andwf	(___xxtofl@arg+1)^0,w,c
  2084  0015FA  6E1C               	movwf	(??___xxtofl+1)^0,c
  2085  0015FC  0E00               	movlw	0
  2086  0015FE  1423               	andwf	(___xxtofl@arg+2)^0,w,c
  2087  001600  6E1D               	movwf	(??___xxtofl+2)^0,c
  2088  001602  0EFF               	movlw	255
  2089  001604  1424               	andwf	(___xxtofl@arg+3)^0,w,c
  2090  001606  6E1E               	movwf	(??___xxtofl+3)^0,c
  2091  001608  501B               	movf	??___xxtofl^0,w,c
  2092  00160A  101C               	iorwf	(??___xxtofl+1)^0,w,c
  2093  00160C  101D               	iorwf	(??___xxtofl+2)^0,w,c
  2094  00160E  101E               	iorwf	(??___xxtofl+3)^0,w,c
  2095  001610  A4D8               	btfss	status,2,c
  2096  001612  EF0D  F00B         	goto	u2281
  2097  001616  EF0F  F00B         	goto	u2280
  2098  00161A                     u2281:
  2099  00161A  EFEC  F00A         	goto	l2550
  2100  00161E                     u2280:
  2101  00161E  EF17  F00B         	goto	l2558
  2102  001622                     l2556:
  2103  001622  0620               	decf	___xxtofl@exp^0,f,c
  2104  001624  90D8               	bcf	status,0,c
  2105  001626  3621               	rlcf	___xxtofl@arg^0,f,c
  2106  001628  3622               	rlcf	(___xxtofl@arg+1)^0,f,c
  2107  00162A  3623               	rlcf	(___xxtofl@arg+2)^0,f,c
  2108  00162C  3624               	rlcf	(___xxtofl@arg+3)^0,f,c
  2109  00162E                     l2558:
  2110  00162E  BE23               	btfsc	(___xxtofl@arg+2)^0,7,c
  2111  001630  EF1C  F00B         	goto	u2291
  2112  001634  EF1E  F00B         	goto	u2290
  2113  001638                     u2291:
  2114  001638  EF26  F00B         	goto	l817
  2115  00163C                     u2290:
  2116  00163C  0E02               	movlw	2
  2117  00163E  6020               	cpfslt	___xxtofl@exp^0,c
  2118  001640  EF24  F00B         	goto	u2301
  2119  001644  EF26  F00B         	goto	u2300
  2120  001648                     u2301:
  2121  001648  EF11  F00B         	goto	l2556
  2122  00164C                     u2300:
  2123  00164C                     l817:
  2124  00164C  B020               	btfsc	___xxtofl@exp^0,0,c
  2125  00164E  EF2B  F00B         	goto	u2311
  2126  001652  EF2D  F00B         	goto	u2310
  2127  001656                     u2311:
  2128  001656  EF2E  F00B         	goto	l2564
  2129  00165A                     u2310:
  2130  00165A  9E23               	bcf	(___xxtofl@arg+2)^0,7,c
  2131  00165C                     l2564:
  2132  00165C  90D8               	bcf	status,0,c
  2133  00165E  3220               	rrcf	___xxtofl@exp^0,f,c
  2134  001660  C020  F01B         	movff	___xxtofl@exp,??___xxtofl
  2135  001664  6A1C               	clrf	(??___xxtofl+1)^0,c
  2136  001666  6A1D               	clrf	(??___xxtofl+2)^0,c
  2137  001668  6A1E               	clrf	(??___xxtofl+3)^0,c
  2138  00166A  C01B  F01E         	movff	??___xxtofl,??___xxtofl+3
  2139  00166E  6A1D               	clrf	(??___xxtofl+2)^0,c
  2140  001670  6A1C               	clrf	(??___xxtofl+1)^0,c
  2141  001672  6A1B               	clrf	??___xxtofl^0,c
  2142  001674  501B               	movf	??___xxtofl^0,w,c
  2143  001676  1221               	iorwf	___xxtofl@arg^0,f,c
  2144  001678  501C               	movf	(??___xxtofl+1)^0,w,c
  2145  00167A  1222               	iorwf	(___xxtofl@arg+1)^0,f,c
  2146  00167C  501D               	movf	(??___xxtofl+2)^0,w,c
  2147  00167E  1223               	iorwf	(___xxtofl@arg+2)^0,f,c
  2148  001680  501E               	movf	(??___xxtofl+3)^0,w,c
  2149  001682  1224               	iorwf	(___xxtofl@arg+3)^0,f,c
  2150  001684  501F               	movf	___xxtofl@sign^0,w,c
  2151  001686  B4D8               	btfsc	status,2,c
  2152  001688  EF48  F00B         	goto	u2321
  2153  00168C  EF4A  F00B         	goto	u2320
  2154  001690                     u2321:
  2155  001690  EF52  F00B         	goto	l2574
  2156  001694                     u2320:
  2157  001694  BE1A               	btfsc	(___xxtofl@val+3)^0,7,c
  2158  001696  EF51  F00B         	goto	u2330
  2159  00169A  EF4F  F00B         	goto	u2331
  2160  00169E                     u2331:
  2161  00169E  EF52  F00B         	goto	l2574
  2162  0016A2                     u2330:
  2163  0016A2  8E24               	bsf	(___xxtofl@arg+3)^0,7,c
  2164  0016A4                     l2574:
  2165  0016A4  C021  F017         	movff	___xxtofl@arg,?___xxtofl
  2166  0016A8  C022  F018         	movff	___xxtofl@arg+1,?___xxtofl+1
  2167  0016AC  C023  F019         	movff	___xxtofl@arg+2,?___xxtofl+2
  2168  0016B0  C024  F01A         	movff	___xxtofl@arg+3,?___xxtofl+3
  2169  0016B4                     l806:
  2170  0016B4  0012               	return		;funcret
  2171  0016B6                     __end_of___xxtofl:
  2172                           	callstack 0
  2173                           
  2174 ;; *************** function ___flsub *****************
  2175 ;; Defined at:
  2176 ;;		line 245 in file "C:\Program Files\Microchip\xc8\v2.32\pic\sources\c99\common\sprcadd.c"
  2177 ;; Parameters:    Size  Location     Type
  2178 ;;  b               4   38[COMRAM] unsigned char 
  2179 ;;  a               4   42[COMRAM] unsigned char 
  2180 ;; Auto vars:     Size  Location     Type
  2181 ;;		None
  2182 ;; Return value:  Size  Location     Type
  2183 ;;                  4   38[COMRAM] unsigned char 
  2184 ;; Registers used:
  2185 ;;		wreg, status,2, status,0, cstack
  2186 ;; Tracked objects:
  2187 ;;		On entry : 0/0
  2188 ;;		On exit  : 0/0
  2189 ;;		Unchanged: 0/0
  2190 ;; Data sizes:     COMRAM   BANK0   BANK1   BANK2   BANK3   BANK4   BANK5   BANK6   BANK7
  2191 ;;      Params:         8       0       0       0       0       0       0       0       0
  2192 ;;      Locals:         0       0       0       0       0       0       0       0       0
  2193 ;;      Temps:          0       0       0       0       0       0       0       0       0
  2194 ;;      Totals:         8       0       0       0       0       0       0       0       0
  2195 ;;Total ram usage:        8 bytes
  2196 ;; Hardware stack levels used: 1
  2197 ;; Hardware stack levels required when called: 5
  2198 ;; This function calls:
  2199 ;;		___fladd
  2200 ;; This function is called by:
  2201 ;;		_main
  2202 ;;		_LCD_printFloatNumber
  2203 ;; This function uses a non-reentrant model
  2204 ;;
  2205                           
  2206                           	psect	text14
  2207  00202E                     __ptext14:
  2208                           	callstack 0
  2209  00202E                     ___flsub:
  2210                           	callstack 25
  2211  00202E  0E00               	movlw	0
  2212  002030  1A2B               	xorwf	___flsub@a^0,f,c
  2213  002032  0E00               	movlw	0
  2214  002034  1A2C               	xorwf	(___flsub@a+1)^0,f,c
  2215  002036  0E00               	movlw	0
  2216  002038  1A2D               	xorwf	(___flsub@a+2)^0,f,c
  2217  00203A  0E80               	movlw	128
  2218  00203C  1A2E               	xorwf	(___flsub@a+3)^0,f,c
  2219  00203E  C027  F017         	movff	___flsub@b,___fladd@b
  2220  002042  C028  F018         	movff	___flsub@b+1,___fladd@b+1
  2221  002046  C029  F019         	movff	___flsub@b+2,___fladd@b+2
  2222  00204A  C02A  F01A         	movff	___flsub@b+3,___fladd@b+3
  2223  00204E  C02B  F01B         	movff	___flsub@a,___fladd@a
  2224  002052  C02C  F01C         	movff	___flsub@a+1,___fladd@a+1
  2225  002056  C02D  F01D         	movff	___flsub@a+2,___fladd@a+2
  2226  00205A  C02E  F01E         	movff	___flsub@a+3,___fladd@a+3
  2227  00205E  EC3D  F004         	call	___fladd	;wreg free
  2228  002062  C017  F027         	movff	?___fladd,?___flsub
  2229  002066  C018  F028         	movff	?___fladd+1,?___flsub+1
  2230  00206A  C019  F029         	movff	?___fladd+2,?___flsub+2
  2231  00206E  C01A  F02A         	movff	?___fladd+3,?___flsub+3
  2232  002072  0012               	return		;funcret
  2233  002074                     __end_of___flsub:
  2234                           	callstack 0
  2235                           
  2236 ;; *************** function ___fladd *****************
  2237 ;; Defined at:
  2238 ;;		line 10 in file "C:\Program Files\Microchip\xc8\v2.32\pic\sources\c99\common\sprcadd.c"
  2239 ;; Parameters:    Size  Location     Type
  2240 ;;  b               4   22[COMRAM] unsigned char 
  2241 ;;  a               4   26[COMRAM] unsigned char 
  2242 ;; Auto vars:     Size  Location     Type
  2243 ;;  grs             1   37[COMRAM] unsigned char 
  2244 ;;  bexp            1   36[COMRAM] unsigned char 
  2245 ;;  aexp            1   35[COMRAM] unsigned char 
  2246 ;;  signs           1   34[COMRAM] unsigned char 
  2247 ;; Return value:  Size  Location     Type
  2248 ;;                  4   22[COMRAM] unsigned char 
  2249 ;; Registers used:
  2250 ;;		wreg, status,2, status,0
  2251 ;; Tracked objects:
  2252 ;;		On entry : 0/0
  2253 ;;		On exit  : 0/0
  2254 ;;		Unchanged: 0/0
  2255 ;; Data sizes:     COMRAM   BANK0   BANK1   BANK2   BANK3   BANK4   BANK5   BANK6   BANK7
  2256 ;;      Params:         8       0       0       0       0       0       0       0       0
  2257 ;;      Locals:         4       0       0       0       0       0       0       0       0
  2258 ;;      Temps:          4       0       0       0       0       0       0       0       0
  2259 ;;      Totals:        16       0       0       0       0       0       0       0       0
  2260 ;;Total ram usage:       16 bytes
  2261 ;; Hardware stack levels used: 1
  2262 ;; Hardware stack levels required when called: 4
  2263 ;; This function calls:
  2264 ;;		Nothing
  2265 ;; This function is called by:
  2266 ;;		___flsub
  2267 ;; This function uses a non-reentrant model
  2268 ;;
  2269                           
  2270                           	psect	text15
  2271  00087A                     __ptext15:
  2272                           	callstack 0
  2273  00087A                     ___fladd:
  2274                           	callstack 25
  2275  00087A  501A               	movf	(___fladd@b+3)^0,w,c
  2276  00087C  0B80               	andlw	128
  2277  00087E  6E23               	movwf	___fladd@signs^0,c
  2278  000880  501A               	movf	(___fladd@b+3)^0,w,c
  2279  000882  241A               	addwf	(___fladd@b+3)^0,w,c
  2280  000884  6E25               	movwf	___fladd@bexp^0,c
  2281  000886  AE19               	btfss	(___fladd@b+2)^0,7,c
  2282  000888  EF48  F004         	goto	u1321
  2283  00088C  EF4A  F004         	goto	u1320
  2284  000890                     u1321:
  2285  000890  EF4B  F004         	goto	l1924
  2286  000894                     u1320:
  2287  000894  8025               	bsf	___fladd@bexp^0,0,c
  2288  000896                     l1924:
  2289  000896  5025               	movf	___fladd@bexp^0,w,c
  2290  000898  B4D8               	btfsc	status,2,c
  2291  00089A  EF51  F004         	goto	u1331
  2292  00089E  EF53  F004         	goto	u1330
  2293  0008A2                     u1331:
  2294  0008A2  EF68  F004         	goto	l1934
  2295  0008A6                     u1330:
  2296  0008A6  2825               	incf	___fladd@bexp^0,w,c
  2297  0008A8  A4D8               	btfss	status,2,c
  2298  0008AA  EF59  F004         	goto	u1341
  2299  0008AE  EF5B  F004         	goto	u1340
  2300  0008B2                     u1341:
  2301  0008B2  EF63  F004         	goto	l1930
  2302  0008B6                     u1340:
  2303  0008B6  0E00               	movlw	0
  2304  0008B8  6E17               	movwf	___fladd@b^0,c
  2305  0008BA  0E00               	movlw	0
  2306  0008BC  6E18               	movwf	(___fladd@b+1)^0,c
  2307  0008BE  0E00               	movlw	0
  2308  0008C0  6E19               	movwf	(___fladd@b+2)^0,c
  2309  0008C2  0E00               	movlw	0
  2310  0008C4  6E1A               	movwf	(___fladd@b+3)^0,c
  2311  0008C6                     l1930:
  2312  0008C6  8E19               	bsf	(___fladd@b+2)^0,7,c
  2313  0008C8  0E00               	movlw	0
  2314  0008CA  6E1A               	movwf	(___fladd@b+3)^0,c
  2315  0008CC  EF70  F004         	goto	l1936
  2316  0008D0                     l1934:
  2317  0008D0  0E00               	movlw	0
  2318  0008D2  6E17               	movwf	___fladd@b^0,c
  2319  0008D4  0E00               	movlw	0
  2320  0008D6  6E18               	movwf	(___fladd@b+1)^0,c
  2321  0008D8  0E00               	movlw	0
  2322  0008DA  6E19               	movwf	(___fladd@b+2)^0,c
  2323  0008DC  0E00               	movlw	0
  2324  0008DE  6E1A               	movwf	(___fladd@b+3)^0,c
  2325  0008E0                     l1936:
  2326  0008E0  501E               	movf	(___fladd@a+3)^0,w,c
  2327  0008E2  0B80               	andlw	128
  2328  0008E4  6E24               	movwf	___fladd@aexp^0,c
  2329  0008E6  5023               	movf	___fladd@signs^0,w,c
  2330  0008E8  1824               	xorwf	___fladd@aexp^0,w,c
  2331  0008EA  B4D8               	btfsc	status,2,c
  2332  0008EC  EF7A  F004         	goto	u1351
  2333  0008F0  EF7C  F004         	goto	u1350
  2334  0008F4                     u1351:
  2335  0008F4  EF7D  F004         	goto	l1942
  2336  0008F8                     u1350:
  2337  0008F8  8C23               	bsf	___fladd@signs^0,6,c
  2338  0008FA                     l1942:
  2339  0008FA  501E               	movf	(___fladd@a+3)^0,w,c
  2340  0008FC  241E               	addwf	(___fladd@a+3)^0,w,c
  2341  0008FE  6E24               	movwf	___fladd@aexp^0,c
  2342  000900  AE1D               	btfss	(___fladd@a+2)^0,7,c
  2343  000902  EF85  F004         	goto	u1361
  2344  000906  EF87  F004         	goto	u1360
  2345  00090A                     u1361:
  2346  00090A  EF88  F004         	goto	l1948
  2347  00090E                     u1360:
  2348  00090E  8024               	bsf	___fladd@aexp^0,0,c
  2349  000910                     l1948:
  2350  000910  5024               	movf	___fladd@aexp^0,w,c
  2351  000912  B4D8               	btfsc	status,2,c
  2352  000914  EF8E  F004         	goto	u1371
  2353  000918  EF90  F004         	goto	u1370
  2354  00091C                     u1371:
  2355  00091C  EFA5  F004         	goto	l1958
  2356  000920                     u1370:
  2357  000920  2824               	incf	___fladd@aexp^0,w,c
  2358  000922  A4D8               	btfss	status,2,c
  2359  000924  EF96  F004         	goto	u1381
  2360  000928  EF98  F004         	goto	u1380
  2361  00092C                     u1381:
  2362  00092C  EFA0  F004         	goto	l1954
  2363  000930                     u1380:
  2364  000930  0E00               	movlw	0
  2365  000932  6E1B               	movwf	___fladd@a^0,c
  2366  000934  0E00               	movlw	0
  2367  000936  6E1C               	movwf	(___fladd@a+1)^0,c
  2368  000938  0E00               	movlw	0
  2369  00093A  6E1D               	movwf	(___fladd@a+2)^0,c
  2370  00093C  0E00               	movlw	0
  2371  00093E  6E1E               	movwf	(___fladd@a+3)^0,c
  2372  000940                     l1954:
  2373  000940  8E1D               	bsf	(___fladd@a+2)^0,7,c
  2374  000942  0E00               	movlw	0
  2375  000944  6E1E               	movwf	(___fladd@a+3)^0,c
  2376  000946  EFAD  F004         	goto	l1960
  2377  00094A                     l1958:
  2378  00094A  0E00               	movlw	0
  2379  00094C  6E1B               	movwf	___fladd@a^0,c
  2380  00094E  0E00               	movlw	0
  2381  000950  6E1C               	movwf	(___fladd@a+1)^0,c
  2382  000952  0E00               	movlw	0
  2383  000954  6E1D               	movwf	(___fladd@a+2)^0,c
  2384  000956  0E00               	movlw	0
  2385  000958  6E1E               	movwf	(___fladd@a+3)^0,c
  2386  00095A                     l1960:
  2387  00095A  5025               	movf	___fladd@bexp^0,w,c
  2388  00095C  5C24               	subwf	___fladd@aexp^0,w,c
  2389  00095E  B0D8               	btfsc	status,0,c
  2390  000960  EFB4  F004         	goto	u1391
  2391  000964  EFB6  F004         	goto	u1390
  2392  000968                     u1391:
  2393  000968  EFDD  F004         	goto	l1996
  2394  00096C                     u1390:
  2395  00096C  AC23               	btfss	___fladd@signs^0,6,c
  2396  00096E  EFBB  F004         	goto	u1401
  2397  000972  EFBD  F004         	goto	u1400
  2398  000976                     u1401:
  2399  000976  EFBF  F004         	goto	l1966
  2400  00097A                     u1400:
  2401  00097A  0E80               	movlw	128
  2402  00097C  1A23               	xorwf	___fladd@signs^0,f,c
  2403  00097E                     l1966:
  2404  00097E  C025  F026         	movff	___fladd@bexp,___fladd@grs
  2405  000982  C024  F025         	movff	___fladd@aexp,___fladd@bexp
  2406  000986  C026  F024         	movff	___fladd@grs,___fladd@aexp
  2407  00098A  C017  F026         	movff	___fladd@b,___fladd@grs
  2408  00098E  C01B  F017         	movff	___fladd@a,___fladd@b
  2409  000992  C026  F01B         	movff	___fladd@grs,___fladd@a
  2410  000996  C018  F026         	movff	___fladd@b+1,___fladd@grs
  2411  00099A  C01C  F018         	movff	___fladd@a+1,___fladd@b+1
  2412  00099E  C026  F01C         	movff	___fladd@grs,___fladd@a+1
  2413  0009A2  C019  F026         	movff	___fladd@b+2,___fladd@grs
  2414  0009A6  C01D  F019         	movff	___fladd@a+2,___fladd@b+2
  2415  0009AA  C026  F01D         	movff	___fladd@grs,___fladd@a+2
  2416  0009AE  C01A  F026         	movff	___fladd@b+3,___fladd@grs
  2417  0009B2  C01E  F01A         	movff	___fladd@a+3,___fladd@b+3
  2418  0009B6  C026  F01E         	movff	___fladd@grs,___fladd@a+3
  2419  0009BA                     l1996:
  2420  0009BA  0E00               	movlw	0
  2421  0009BC  6E26               	movwf	___fladd@grs^0,c
  2422  0009BE  5025               	movf	___fladd@bexp^0,w,c
  2423  0009C0  C024  F01F         	movff	___fladd@aexp,??___fladd
  2424  0009C4  6A20               	clrf	(??___fladd+1)^0,c
  2425  0009C6  5E1F               	subwf	??___fladd^0,f,c
  2426  0009C8  0E00               	movlw	0
  2427  0009CA  5A20               	subwfb	(??___fladd+1)^0,f,c
  2428  0009CC  BE20               	btfsc	(??___fladd+1)^0,7,c
  2429  0009CE  EFF2  F004         	goto	u1411
  2430  0009D2  5020               	movf	(??___fladd+1)^0,w,c
  2431  0009D4  E109               	bnz	u1410
  2432  0009D6  0E1A               	movlw	26
  2433  0009D8  5C1F               	subwf	??___fladd^0,w,c
  2434  0009DA  A0D8               	btfss	status,0,c
  2435  0009DC  EFF2  F004         	goto	u1411
  2436  0009E0  EFF4  F004         	goto	u1410
  2437  0009E4                     u1411:
  2438  0009E4  EF2B  F005         	goto	l677
  2439  0009E8                     u1410:
  2440  0009E8  5017               	movf	___fladd@b^0,w,c
  2441  0009EA  1018               	iorwf	(___fladd@b+1)^0,w,c
  2442  0009EC  1019               	iorwf	(___fladd@b+2)^0,w,c
  2443  0009EE  101A               	iorwf	(___fladd@b+3)^0,w,c
  2444  0009F0  A4D8               	btfss	status,2,c
  2445  0009F2  EFFD  F004         	goto	u1421
  2446  0009F6  EF00  F005         	goto	u1420
  2447  0009FA                     u1421:
  2448  0009FA  0E01               	movlw	1
  2449  0009FC  EF01  F005         	goto	u1430
  2450  000A00                     u1420:
  2451  000A00  0E00               	movlw	0
  2452  000A02                     u1430:
  2453  000A02  6E26               	movwf	___fladd@grs^0,c
  2454  000A04  0E00               	movlw	0
  2455  000A06  6E17               	movwf	___fladd@b^0,c
  2456  000A08  0E00               	movlw	0
  2457  000A0A  6E18               	movwf	(___fladd@b+1)^0,c
  2458  000A0C  0E00               	movlw	0
  2459  000A0E  6E19               	movwf	(___fladd@b+2)^0,c
  2460  000A10  0E00               	movlw	0
  2461  000A12  6E1A               	movwf	(___fladd@b+3)^0,c
  2462  000A14  C024  F025         	movff	___fladd@aexp,___fladd@bexp
  2463  000A18  EF34  F005         	goto	l676
  2464  000A1C                     l678:
  2465  000A1C  A026               	btfss	___fladd@grs^0,0,c
  2466  000A1E  EF13  F005         	goto	u1441
  2467  000A22  EF15  F005         	goto	u1440
  2468  000A26                     u1441:
  2469  000A26  EF1B  F005         	goto	l2008
  2470  000A2A                     u1440:
  2471  000A2A  90D8               	bcf	status,0,c
  2472  000A2C  3026               	rrcf	___fladd@grs^0,w,c
  2473  000A2E  0901               	iorlw	1
  2474  000A30  6E26               	movwf	___fladd@grs^0,c
  2475  000A32  EF1D  F005         	goto	l2010
  2476  000A36                     l2008:
  2477  000A36  90D8               	bcf	status,0,c
  2478  000A38  3226               	rrcf	___fladd@grs^0,f,c
  2479  000A3A                     l2010:
  2480  000A3A  A017               	btfss	___fladd@b^0,0,c
  2481  000A3C  EF22  F005         	goto	u1451
  2482  000A40  EF24  F005         	goto	u1450
  2483  000A44                     u1451:
  2484  000A44  EF25  F005         	goto	l2014
  2485  000A48                     u1450:
  2486  000A48  8E26               	bsf	___fladd@grs^0,7,c
  2487  000A4A                     l2014:
  2488  000A4A  341A               	rlcf	(___fladd@b+3)^0,w,c
  2489  000A4C  321A               	rrcf	(___fladd@b+3)^0,f,c
  2490  000A4E  3219               	rrcf	(___fladd@b+2)^0,f,c
  2491  000A50  3218               	rrcf	(___fladd@b+1)^0,f,c
  2492  000A52  3217               	rrcf	___fladd@b^0,f,c
  2493  000A54  2A25               	incf	___fladd@bexp^0,f,c
  2494  000A56                     l677:
  2495  000A56  5024               	movf	___fladd@aexp^0,w,c
  2496  000A58  5C25               	subwf	___fladd@bexp^0,w,c
  2497  000A5A  A0D8               	btfss	status,0,c
  2498  000A5C  EF32  F005         	goto	u1461
  2499  000A60  EF34  F005         	goto	u1460
  2500  000A64                     u1461:
  2501  000A64  EF0E  F005         	goto	l678
  2502  000A68                     u1460:
  2503  000A68                     l676:
  2504  000A68  BC23               	btfsc	___fladd@signs^0,6,c
  2505  000A6A  EF39  F005         	goto	u1471
  2506  000A6E  EF3B  F005         	goto	u1470
  2507  000A72                     u1471:
  2508  000A72  EF7B  F005         	goto	l2042
  2509  000A76                     u1470:
  2510  000A76  5025               	movf	___fladd@bexp^0,w,c
  2511  000A78  A4D8               	btfss	status,2,c
  2512  000A7A  EF41  F005         	goto	u1481
  2513  000A7E  EF43  F005         	goto	u1480
  2514  000A82                     u1481:
  2515  000A82  EF4D  F005         	goto	l2024
  2516  000A86                     u1480:
  2517  000A86  0E00               	movlw	0
  2518  000A88  6E17               	movwf	?___fladd^0,c
  2519  000A8A  0E00               	movlw	0
  2520  000A8C  6E18               	movwf	(?___fladd+1)^0,c
  2521  000A8E  0E00               	movlw	0
  2522  000A90  6E19               	movwf	(?___fladd+2)^0,c
  2523  000A92  0E00               	movlw	0
  2524  000A94  6E1A               	movwf	(?___fladd+3)^0,c
  2525  000A96  EF9C  F006         	goto	l685
  2526  000A9A                     l2024:
  2527  000A9A  501B               	movf	___fladd@a^0,w,c
  2528  000A9C  2617               	addwf	___fladd@b^0,f,c
  2529  000A9E  501C               	movf	(___fladd@a+1)^0,w,c
  2530  000AA0  2218               	addwfc	(___fladd@b+1)^0,f,c
  2531  000AA2  501D               	movf	(___fladd@a+2)^0,w,c
  2532  000AA4  2219               	addwfc	(___fladd@b+2)^0,f,c
  2533  000AA6  501E               	movf	(___fladd@a+3)^0,w,c
  2534  000AA8  221A               	addwfc	(___fladd@b+3)^0,f,c
  2535  000AAA  A01A               	btfss	(___fladd@b+3)^0,0,c
  2536  000AAC  EF5A  F005         	goto	u1491
  2537  000AB0  EF5C  F005         	goto	u1490
  2538  000AB4                     u1491:
  2539  000AB4  EF08  F006         	goto	l2078
  2540  000AB8                     u1490:
  2541  000AB8  A026               	btfss	___fladd@grs^0,0,c
  2542  000ABA  EF61  F005         	goto	u1501
  2543  000ABE  EF63  F005         	goto	u1500
  2544  000AC2                     u1501:
  2545  000AC2  EF69  F005         	goto	l2032
  2546  000AC6                     u1500:
  2547  000AC6  90D8               	bcf	status,0,c
  2548  000AC8  3026               	rrcf	___fladd@grs^0,w,c
  2549  000ACA  0901               	iorlw	1
  2550  000ACC  6E26               	movwf	___fladd@grs^0,c
  2551  000ACE  EF6B  F005         	goto	l2034
  2552  000AD2                     l2032:
  2553  000AD2  90D8               	bcf	status,0,c
  2554  000AD4  3226               	rrcf	___fladd@grs^0,f,c
  2555  000AD6                     l2034:
  2556  000AD6  A017               	btfss	___fladd@b^0,0,c
  2557  000AD8  EF70  F005         	goto	u1511
  2558  000ADC  EF72  F005         	goto	u1510
  2559  000AE0                     u1511:
  2560  000AE0  EF73  F005         	goto	l2038
  2561  000AE4                     u1510:
  2562  000AE4  8E26               	bsf	___fladd@grs^0,7,c
  2563  000AE6                     l2038:
  2564  000AE6  341A               	rlcf	(___fladd@b+3)^0,w,c
  2565  000AE8  321A               	rrcf	(___fladd@b+3)^0,f,c
  2566  000AEA  3219               	rrcf	(___fladd@b+2)^0,f,c
  2567  000AEC  3218               	rrcf	(___fladd@b+1)^0,f,c
  2568  000AEE  3217               	rrcf	___fladd@b^0,f,c
  2569  000AF0  2A25               	incf	___fladd@bexp^0,f,c
  2570  000AF2  EF08  F006         	goto	l2078
  2571  000AF6                     l2042:
  2572  000AF6  501B               	movf	___fladd@a^0,w,c
  2573  000AF8  5C17               	subwf	___fladd@b^0,w,c
  2574  000AFA  501C               	movf	(___fladd@a+1)^0,w,c
  2575  000AFC  5818               	subwfb	(___fladd@b+1)^0,w,c
  2576  000AFE  501D               	movf	(___fladd@a+2)^0,w,c
  2577  000B00  5819               	subwfb	(___fladd@b+2)^0,w,c
  2578  000B02  501A               	movf	(___fladd@b+3)^0,w,c
  2579  000B04  0A80               	xorlw	128
  2580  000B06  6E1F               	movwf	??___fladd^0,c
  2581  000B08  501E               	movf	(___fladd@a+3)^0,w,c
  2582  000B0A  0A80               	xorlw	128
  2583  000B0C  581F               	subwfb	??___fladd^0,w,c
  2584  000B0E  B0D8               	btfsc	status,0,c
  2585  000B10  EF8C  F005         	goto	u1521
  2586  000B14  EF8E  F005         	goto	u1520
  2587  000B18                     u1521:
  2588  000B18  EFB9  F005         	goto	l2052
  2589  000B1C                     u1520:
  2590  000B1C  5017               	movf	___fladd@b^0,w,c
  2591  000B1E  5C1B               	subwf	___fladd@a^0,w,c
  2592  000B20  6E1F               	movwf	??___fladd^0,c
  2593  000B22  5018               	movf	(___fladd@b+1)^0,w,c
  2594  000B24  581C               	subwfb	(___fladd@a+1)^0,w,c
  2595  000B26  6E20               	movwf	(??___fladd+1)^0,c
  2596  000B28  5019               	movf	(___fladd@b+2)^0,w,c
  2597  000B2A  581D               	subwfb	(___fladd@a+2)^0,w,c
  2598  000B2C  6E21               	movwf	(??___fladd+2)^0,c
  2599  000B2E  501A               	movf	(___fladd@b+3)^0,w,c
  2600  000B30  581E               	subwfb	(___fladd@a+3)^0,w,c
  2601  000B32  6E22               	movwf	(??___fladd+3)^0,c
  2602  000B34  0EFF               	movlw	255
  2603  000B36  241F               	addwf	??___fladd^0,w,c
  2604  000B38  6E17               	movwf	___fladd@b^0,c
  2605  000B3A  0EFF               	movlw	255
  2606  000B3C  2020               	addwfc	(??___fladd+1)^0,w,c
  2607  000B3E  6E18               	movwf	(___fladd@b+1)^0,c
  2608  000B40  0EFF               	movlw	255
  2609  000B42  2021               	addwfc	(??___fladd+2)^0,w,c
  2610  000B44  6E19               	movwf	(___fladd@b+2)^0,c
  2611  000B46  0EFF               	movlw	255
  2612  000B48  2022               	addwfc	(??___fladd+3)^0,w,c
  2613  000B4A  6E1A               	movwf	(___fladd@b+3)^0,c
  2614  000B4C  0E80               	movlw	128
  2615  000B4E  1A23               	xorwf	___fladd@signs^0,f,c
  2616  000B50  6C26               	negf	___fladd@grs^0,c
  2617  000B52  5026               	movf	___fladd@grs^0,w,c
  2618  000B54  A4D8               	btfss	status,2,c
  2619  000B56  EFAF  F005         	goto	u1531
  2620  000B5A  EFB1  F005         	goto	u1530
  2621  000B5E                     u1531:
  2622  000B5E  EFC1  F005         	goto	l693
  2623  000B62                     u1530:
  2624  000B62  0E01               	movlw	1
  2625  000B64  2617               	addwf	___fladd@b^0,f,c
  2626  000B66  0E00               	movlw	0
  2627  000B68  2218               	addwfc	(___fladd@b+1)^0,f,c
  2628  000B6A  2219               	addwfc	(___fladd@b+2)^0,f,c
  2629  000B6C  221A               	addwfc	(___fladd@b+3)^0,f,c
  2630  000B6E  EFC1  F005         	goto	l693
  2631  000B72                     l2052:
  2632  000B72  501B               	movf	___fladd@a^0,w,c
  2633  000B74  5E17               	subwf	___fladd@b^0,f,c
  2634  000B76  501C               	movf	(___fladd@a+1)^0,w,c
  2635  000B78  5A18               	subwfb	(___fladd@b+1)^0,f,c
  2636  000B7A  501D               	movf	(___fladd@a+2)^0,w,c
  2637  000B7C  5A19               	subwfb	(___fladd@b+2)^0,f,c
  2638  000B7E  501E               	movf	(___fladd@a+3)^0,w,c
  2639  000B80  5A1A               	subwfb	(___fladd@b+3)^0,f,c
  2640  000B82                     l693:
  2641  000B82  5017               	movf	___fladd@b^0,w,c
  2642  000B84  1018               	iorwf	(___fladd@b+1)^0,w,c
  2643  000B86  1019               	iorwf	(___fladd@b+2)^0,w,c
  2644  000B88  101A               	iorwf	(___fladd@b+3)^0,w,c
  2645  000B8A  A4D8               	btfss	status,2,c
  2646  000B8C  EFCA  F005         	goto	u1541
  2647  000B90  EFCC  F005         	goto	u1540
  2648  000B94                     u1541:
  2649  000B94  EF01  F006         	goto	l2076
  2650  000B98                     u1540:
  2651  000B98  5026               	movf	___fladd@grs^0,w,c
  2652  000B9A  A4D8               	btfss	status,2,c
  2653  000B9C  EFD2  F005         	goto	u1551
  2654  000BA0  EFD4  F005         	goto	u1550
  2655  000BA4                     u1551:
  2656  000BA4  EF01  F006         	goto	l2076
  2657  000BA8                     u1550:
  2658  000BA8  0E00               	movlw	0
  2659  000BAA  6E17               	movwf	?___fladd^0,c
  2660  000BAC  0E00               	movlw	0
  2661  000BAE  6E18               	movwf	(?___fladd+1)^0,c
  2662  000BB0  0E00               	movlw	0
  2663  000BB2  6E19               	movwf	(?___fladd+2)^0,c
  2664  000BB4  0E00               	movlw	0
  2665  000BB6  6E1A               	movwf	(?___fladd+3)^0,c
  2666  000BB8  EF9C  F006         	goto	l685
  2667  000BBC                     l2060:
  2668  000BBC  90D8               	bcf	status,0,c
  2669  000BBE  3617               	rlcf	___fladd@b^0,f,c
  2670  000BC0  3618               	rlcf	(___fladd@b+1)^0,f,c
  2671  000BC2  3619               	rlcf	(___fladd@b+2)^0,f,c
  2672  000BC4  361A               	rlcf	(___fladd@b+3)^0,f,c
  2673  000BC6  AE26               	btfss	___fladd@grs^0,7,c
  2674  000BC8  EFE8  F005         	goto	u1561
  2675  000BCC  EFEA  F005         	goto	u1560
  2676  000BD0                     u1561:
  2677  000BD0  EFEB  F005         	goto	l2066
  2678  000BD4                     u1560:
  2679  000BD4  8017               	bsf	___fladd@b^0,0,c
  2680  000BD6                     l2066:
  2681  000BD6  A026               	btfss	___fladd@grs^0,0,c
  2682  000BD8  EFF0  F005         	goto	u1571
  2683  000BDC  EFF2  F005         	goto	u1570
  2684  000BE0                     u1571:
  2685  000BE0  EFF6  F005         	goto	l2070
  2686  000BE4                     u1570:
  2687  000BE4  80D8               	bsf	status,0,c
  2688  000BE6  3626               	rlcf	___fladd@grs^0,f,c
  2689  000BE8  EFF8  F005         	goto	l2072
  2690  000BEC                     l2070:
  2691  000BEC  90D8               	bcf	status,0,c
  2692  000BEE  3626               	rlcf	___fladd@grs^0,f,c
  2693  000BF0                     l2072:
  2694  000BF0  5025               	movf	___fladd@bexp^0,w,c
  2695  000BF2  B4D8               	btfsc	status,2,c
  2696  000BF4  EFFE  F005         	goto	u1581
  2697  000BF8  EF00  F006         	goto	u1580
  2698  000BFC                     u1581:
  2699  000BFC  EF01  F006         	goto	l2076
  2700  000C00                     u1580:
  2701  000C00  0625               	decf	___fladd@bexp^0,f,c
  2702  000C02                     l2076:
  2703  000C02  AE19               	btfss	(___fladd@b+2)^0,7,c
  2704  000C04  EF06  F006         	goto	u1591
  2705  000C08  EF08  F006         	goto	u1590
  2706  000C0C                     u1591:
  2707  000C0C  EFDE  F005         	goto	l2060
  2708  000C10                     u1590:
  2709  000C10                     l2078:
  2710  000C10  0E00               	movlw	0
  2711  000C12  6E24               	movwf	___fladd@aexp^0,c
  2712  000C14  AE26               	btfss	___fladd@grs^0,7,c
  2713  000C16  EF0F  F006         	goto	u1601
  2714  000C1A  EF11  F006         	goto	u1600
  2715  000C1E                     u1601:
  2716  000C1E  EF29  F006         	goto	l702
  2717  000C22                     u1600:
  2718  000C22  C026  F01F         	movff	___fladd@grs,??___fladd
  2719  000C26  0E7F               	movlw	127
  2720  000C28  161F               	andwf	??___fladd^0,f,c
  2721  000C2A  B4D8               	btfsc	status,2,c
  2722  000C2C  EF1A  F006         	goto	u1611
  2723  000C30  EF1C  F006         	goto	u1610
  2724  000C34                     u1611:
  2725  000C34  EF20  F006         	goto	l703
  2726  000C38                     u1610:
  2727  000C38                     l2084:
  2728  000C38  0E01               	movlw	1
  2729  000C3A  6E24               	movwf	___fladd@aexp^0,c
  2730  000C3C  EF29  F006         	goto	l702
  2731  000C40                     l703:
  2732  000C40  A017               	btfss	___fladd@b^0,0,c
  2733  000C42  EF25  F006         	goto	u1621
  2734  000C46  EF27  F006         	goto	u1620
  2735  000C4A                     u1621:
  2736  000C4A  EF29  F006         	goto	l702
  2737  000C4E                     u1620:
  2738  000C4E  EF1C  F006         	goto	l2084
  2739  000C52                     l702:
  2740  000C52  5024               	movf	___fladd@aexp^0,w,c
  2741  000C54  B4D8               	btfsc	status,2,c
  2742  000C56  EF2F  F006         	goto	u1631
  2743  000C5A  EF31  F006         	goto	u1630
  2744  000C5E                     u1631:
  2745  000C5E  EF5C  F006         	goto	l2096
  2746  000C62                     u1630:
  2747  000C62  0E01               	movlw	1
  2748  000C64  2617               	addwf	___fladd@b^0,f,c
  2749  000C66  0E00               	movlw	0
  2750  000C68  2218               	addwfc	(___fladd@b+1)^0,f,c
  2751  000C6A  2219               	addwfc	(___fladd@b+2)^0,f,c
  2752  000C6C  221A               	addwfc	(___fladd@b+3)^0,f,c
  2753  000C6E  A01A               	btfss	(___fladd@b+3)^0,0,c
  2754  000C70  EF3C  F006         	goto	u1641
  2755  000C74  EF3E  F006         	goto	u1640
  2756  000C78                     u1641:
  2757  000C78  EF5C  F006         	goto	l2096
  2758  000C7C                     u1640:
  2759  000C7C  C017  F01F         	movff	___fladd@b,??___fladd
  2760  000C80  C018  F020         	movff	___fladd@b+1,??___fladd+1
  2761  000C84  C019  F021         	movff	___fladd@b+2,??___fladd+2
  2762  000C88  C01A  F022         	movff	___fladd@b+3,??___fladd+3
  2763  000C8C  3422               	rlcf	(??___fladd+3)^0,w,c
  2764  000C8E  3222               	rrcf	(??___fladd+3)^0,f,c
  2765  000C90  3221               	rrcf	(??___fladd+2)^0,f,c
  2766  000C92  3220               	rrcf	(??___fladd+1)^0,f,c
  2767  000C94  321F               	rrcf	??___fladd^0,f,c
  2768  000C96  C01F  F017         	movff	??___fladd,___fladd@b
  2769  000C9A  C020  F018         	movff	??___fladd+1,___fladd@b+1
  2770  000C9E  C021  F019         	movff	??___fladd+2,___fladd@b+2
  2771  000CA2  C022  F01A         	movff	??___fladd+3,___fladd@b+3
  2772  000CA6  2825               	incf	___fladd@bexp^0,w,c
  2773  000CA8  B4D8               	btfsc	status,2,c
  2774  000CAA  EF59  F006         	goto	u1651
  2775  000CAE  EF5B  F006         	goto	u1650
  2776  000CB2                     u1651:
  2777  000CB2  EF5C  F006         	goto	l2096
  2778  000CB6                     u1650:
  2779  000CB6  2A25               	incf	___fladd@bexp^0,f,c
  2780  000CB8                     l2096:
  2781  000CB8  2825               	incf	___fladd@bexp^0,w,c
  2782  000CBA  B4D8               	btfsc	status,2,c
  2783  000CBC  EF62  F006         	goto	u1661
  2784  000CC0  EF64  F006         	goto	u1660
  2785  000CC4                     u1661:
  2786  000CC4  EF6C  F006         	goto	l2100
  2787  000CC8                     u1660:
  2788  000CC8  5025               	movf	___fladd@bexp^0,w,c
  2789  000CCA  A4D8               	btfss	status,2,c
  2790  000CCC  EF6A  F006         	goto	u1671
  2791  000CD0  EF6C  F006         	goto	u1670
  2792  000CD4                     u1671:
  2793  000CD4  EF7E  F006         	goto	l2104
  2794  000CD8                     u1670:
  2795  000CD8                     l2100:
  2796  000CD8  0E00               	movlw	0
  2797  000CDA  6E17               	movwf	___fladd@b^0,c
  2798  000CDC  0E00               	movlw	0
  2799  000CDE  6E18               	movwf	(___fladd@b+1)^0,c
  2800  000CE0  0E00               	movlw	0
  2801  000CE2  6E19               	movwf	(___fladd@b+2)^0,c
  2802  000CE4  0E00               	movlw	0
  2803  000CE6  6E1A               	movwf	(___fladd@b+3)^0,c
  2804  000CE8  5025               	movf	___fladd@bexp^0,w,c
  2805  000CEA  A4D8               	btfss	status,2,c
  2806  000CEC  EF7A  F006         	goto	u1681
  2807  000CF0  EF7C  F006         	goto	u1680
  2808  000CF4                     u1681:
  2809  000CF4  EF7E  F006         	goto	l2104
  2810  000CF8                     u1680:
  2811  000CF8  0E00               	movlw	0
  2812  000CFA  6E23               	movwf	___fladd@signs^0,c
  2813  000CFC                     l2104:
  2814  000CFC  A025               	btfss	___fladd@bexp^0,0,c
  2815  000CFE  EF83  F006         	goto	u1691
  2816  000D02  EF85  F006         	goto	u1690
  2817  000D06                     u1691:
  2818  000D06  EF88  F006         	goto	l2108
  2819  000D0A                     u1690:
  2820  000D0A  8E19               	bsf	(___fladd@b+2)^0,7,c
  2821  000D0C  EF89  F006         	goto	l2110
  2822  000D10                     l2108:
  2823  000D10  9E19               	bcf	(___fladd@b+2)^0,7,c
  2824  000D12                     l2110:
  2825  000D12  90D8               	bcf	status,0,c
  2826  000D14  3025               	rrcf	___fladd@bexp^0,w,c
  2827  000D16  6E1A               	movwf	(___fladd@b+3)^0,c
  2828  000D18  AE23               	btfss	___fladd@signs^0,7,c
  2829  000D1A  EF91  F006         	goto	u1701
  2830  000D1E  EF93  F006         	goto	u1700
  2831  000D22                     u1701:
  2832  000D22  EF94  F006         	goto	l2116
  2833  000D26                     u1700:
  2834  000D26  8E1A               	bsf	(___fladd@b+3)^0,7,c
  2835  000D28                     l2116:
  2836  000D28  C017  F017         	movff	___fladd@b,?___fladd
  2837  000D2C  C018  F018         	movff	___fladd@b+1,?___fladd+1
  2838  000D30  C019  F019         	movff	___fladd@b+2,?___fladd+2
  2839  000D34  C01A  F01A         	movff	___fladd@b+3,?___fladd+3
  2840  000D38                     l685:
  2841  000D38  0012               	return		;funcret
  2842  000D3A                     __end_of___fladd:
  2843                           	callstack 0
  2844                           
  2845 ;; *************** function ___flmul *****************
  2846 ;; Defined at:
  2847 ;;		line 8 in file "C:\Program Files\Microchip\xc8\v2.32\pic\sources\c99\common\sprcmul.c"
  2848 ;; Parameters:    Size  Location     Type
  2849 ;;  b               4   36[COMRAM] unsigned char 
  2850 ;;  a               4   40[COMRAM] unsigned char 
  2851 ;; Auto vars:     Size  Location     Type
  2852 ;;  prod            4    7[BANK0 ] struct .
  2853 ;;  grs             4    2[BANK0 ] unsigned long 
  2854 ;;  temp            2   11[BANK0 ] struct .
  2855 ;;  bexp            1    6[BANK0 ] unsigned char 
  2856 ;;  aexp            1    1[BANK0 ] unsigned char 
  2857 ;;  sign            1    0[BANK0 ] unsigned char 
  2858 ;; Return value:  Size  Location     Type
  2859 ;;                  4   36[COMRAM] unsigned char 
  2860 ;; Registers used:
  2861 ;;		wreg, status,2, status,0, prodl, prodh
  2862 ;; Tracked objects:
  2863 ;;		On entry : 0/0
  2864 ;;		On exit  : 0/0
  2865 ;;		Unchanged: 0/0
  2866 ;; Data sizes:     COMRAM   BANK0   BANK1   BANK2   BANK3   BANK4   BANK5   BANK6   BANK7
  2867 ;;      Params:         8       0       0       0       0       0       0       0       0
  2868 ;;      Locals:         0      13       0       0       0       0       0       0       0
  2869 ;;      Temps:          4       0       0       0       0       0       0       0       0
  2870 ;;      Totals:        12      13       0       0       0       0       0       0       0
  2871 ;;Total ram usage:       25 bytes
  2872 ;; Hardware stack levels used: 1
  2873 ;; Hardware stack levels required when called: 4
  2874 ;; This function calls:
  2875 ;;		Nothing
  2876 ;; This function is called by:
  2877 ;;		_main
  2878 ;;		_LCD_printFloatNumber
  2879 ;; This function uses a non-reentrant model
  2880 ;;
  2881                           
  2882                           	psect	text16
  2883  000D3A                     __ptext16:
  2884                           	callstack 0
  2885  000D3A                     ___flmul:
  2886                           	callstack 26
  2887  000D3A  5028               	movf	(___flmul@b+3)^0,w,c
  2888  000D3C  0B80               	andlw	128
  2889  000D3E  0100               	movlb	0	; () banked
  2890  000D40  6F60               	movwf	___flmul@sign& (0+255),b
  2891  000D42  5028               	movf	(___flmul@b+3)^0,w,c
  2892  000D44  2428               	addwf	(___flmul@b+3)^0,w,c
  2893  000D46  6F66               	movwf	___flmul@bexp& (0+255),b
  2894  000D48                     
  2895                           ; BSR set to: 0
  2896  000D48  AE27               	btfss	(___flmul@b+2)^0,7,c
  2897  000D4A  EFA9  F006         	goto	u2721
  2898  000D4E  EFAB  F006         	goto	u2720
  2899  000D52                     u2721:
  2900  000D52  EFAC  F006         	goto	l2886
  2901  000D56                     u2720:
  2902  000D56                     
  2903                           ; BSR set to: 0
  2904  000D56  8166               	bsf	___flmul@bexp& (0+255),0,b
  2905  000D58                     l2886:
  2906                           
  2907                           ; BSR set to: 0
  2908  000D58  5166               	movf	___flmul@bexp& (0+255),w,b
  2909  000D5A  B4D8               	btfsc	status,2,c
  2910  000D5C  EFB2  F006         	goto	u2731
  2911  000D60  EFB4  F006         	goto	u2730
  2912  000D64                     u2731:
  2913  000D64  EFC7  F006         	goto	l2894
  2914  000D68                     u2730:
  2915  000D68                     
  2916                           ; BSR set to: 0
  2917  000D68  2966               	incf	___flmul@bexp& (0+255),w,b
  2918  000D6A  A4D8               	btfss	status,2,c
  2919  000D6C  EFBA  F006         	goto	u2741
  2920  000D70  EFBC  F006         	goto	u2740
  2921  000D74                     u2741:
  2922  000D74  EFC4  F006         	goto	l2892
  2923  000D78                     u2740:
  2924  000D78                     
  2925                           ; BSR set to: 0
  2926  000D78  0E00               	movlw	0
  2927  000D7A  6E25               	movwf	___flmul@b^0,c
  2928  000D7C  0E00               	movlw	0
  2929  000D7E  6E26               	movwf	(___flmul@b+1)^0,c
  2930  000D80  0E00               	movlw	0
  2931  000D82  6E27               	movwf	(___flmul@b+2)^0,c
  2932  000D84  0E00               	movlw	0
  2933  000D86  6E28               	movwf	(___flmul@b+3)^0,c
  2934  000D88                     l2892:
  2935                           
  2936                           ; BSR set to: 0
  2937  000D88  8E27               	bsf	(___flmul@b+2)^0,7,c
  2938  000D8A  EFCF  F006         	goto	l2896
  2939  000D8E                     l2894:
  2940                           
  2941                           ; BSR set to: 0
  2942  000D8E  0E00               	movlw	0
  2943  000D90  6E25               	movwf	___flmul@b^0,c
  2944  000D92  0E00               	movlw	0
  2945  000D94  6E26               	movwf	(___flmul@b+1)^0,c
  2946  000D96  0E00               	movlw	0
  2947  000D98  6E27               	movwf	(___flmul@b+2)^0,c
  2948  000D9A  0E00               	movlw	0
  2949  000D9C  6E28               	movwf	(___flmul@b+3)^0,c
  2950  000D9E                     l2896:
  2951                           
  2952                           ; BSR set to: 0
  2953  000D9E  502C               	movf	(___flmul@a+3)^0,w,c
  2954  000DA0  0B80               	andlw	128
  2955  000DA2  1B60               	xorwf	___flmul@sign& (0+255),f,b
  2956  000DA4                     
  2957                           ; BSR set to: 0
  2958  000DA4  502C               	movf	(___flmul@a+3)^0,w,c
  2959  000DA6  242C               	addwf	(___flmul@a+3)^0,w,c
  2960  000DA8  6F61               	movwf	___flmul@aexp& (0+255),b
  2961  000DAA                     
  2962                           ; BSR set to: 0
  2963  000DAA  AE2B               	btfss	(___flmul@a+2)^0,7,c
  2964  000DAC  EFDA  F006         	goto	u2751
  2965  000DB0  EFDC  F006         	goto	u2750
  2966  000DB4                     u2751:
  2967  000DB4  EFDD  F006         	goto	l2904
  2968  000DB8                     u2750:
  2969  000DB8                     
  2970                           ; BSR set to: 0
  2971  000DB8  8161               	bsf	___flmul@aexp& (0+255),0,b
  2972  000DBA                     l2904:
  2973                           
  2974                           ; BSR set to: 0
  2975  000DBA  5161               	movf	___flmul@aexp& (0+255),w,b
  2976  000DBC  B4D8               	btfsc	status,2,c
  2977  000DBE  EFE3  F006         	goto	u2761
  2978  000DC2  EFE5  F006         	goto	u2760
  2979  000DC6                     u2761:
  2980  000DC6  EFF8  F006         	goto	l2912
  2981  000DCA                     u2760:
  2982  000DCA                     
  2983                           ; BSR set to: 0
  2984  000DCA  2961               	incf	___flmul@aexp& (0+255),w,b
  2985  000DCC  A4D8               	btfss	status,2,c
  2986  000DCE  EFEB  F006         	goto	u2771
  2987  000DD2  EFED  F006         	goto	u2770
  2988  000DD6                     u2771:
  2989  000DD6  EFF5  F006         	goto	l2910
  2990  000DDA                     u2770:
  2991  000DDA                     
  2992                           ; BSR set to: 0
  2993  000DDA  0E00               	movlw	0
  2994  000DDC  6E29               	movwf	___flmul@a^0,c
  2995  000DDE  0E00               	movlw	0
  2996  000DE0  6E2A               	movwf	(___flmul@a+1)^0,c
  2997  000DE2  0E00               	movlw	0
  2998  000DE4  6E2B               	movwf	(___flmul@a+2)^0,c
  2999  000DE6  0E00               	movlw	0
  3000  000DE8  6E2C               	movwf	(___flmul@a+3)^0,c
  3001  000DEA                     l2910:
  3002                           
  3003                           ; BSR set to: 0
  3004  000DEA  8E2B               	bsf	(___flmul@a+2)^0,7,c
  3005  000DEC  EF00  F007         	goto	l762
  3006  000DF0                     l2912:
  3007                           
  3008                           ; BSR set to: 0
  3009  000DF0  0E00               	movlw	0
  3010  000DF2  6E29               	movwf	___flmul@a^0,c
  3011  000DF4  0E00               	movlw	0
  3012  000DF6  6E2A               	movwf	(___flmul@a+1)^0,c
  3013  000DF8  0E00               	movlw	0
  3014  000DFA  6E2B               	movwf	(___flmul@a+2)^0,c
  3015  000DFC  0E00               	movlw	0
  3016  000DFE  6E2C               	movwf	(___flmul@a+3)^0,c
  3017  000E00                     l762:
  3018                           
  3019                           ; BSR set to: 0
  3020  000E00  5161               	movf	___flmul@aexp& (0+255),w,b
  3021  000E02  B4D8               	btfsc	status,2,c
  3022  000E04  EF06  F007         	goto	u2781
  3023  000E08  EF08  F007         	goto	u2780
  3024  000E0C                     u2781:
  3025  000E0C  EF10  F007         	goto	l2916
  3026  000E10                     u2780:
  3027  000E10                     
  3028                           ; BSR set to: 0
  3029  000E10  5166               	movf	___flmul@bexp& (0+255),w,b
  3030  000E12  A4D8               	btfss	status,2,c
  3031  000E14  EF0E  F007         	goto	u2791
  3032  000E18  EF10  F007         	goto	u2790
  3033  000E1C                     u2791:
  3034  000E1C  EF1A  F007         	goto	l2920
  3035  000E20                     u2790:
  3036  000E20                     l2916:
  3037                           
  3038                           ; BSR set to: 0
  3039  000E20  0E00               	movlw	0
  3040  000E22  6E25               	movwf	?___flmul^0,c
  3041  000E24  0E00               	movlw	0
  3042  000E26  6E26               	movwf	(?___flmul+1)^0,c
  3043  000E28  0E00               	movlw	0
  3044  000E2A  6E27               	movwf	(?___flmul+2)^0,c
  3045  000E2C  0E00               	movlw	0
  3046  000E2E  6E28               	movwf	(?___flmul+3)^0,c
  3047  000E30  EFB2  F008         	goto	l766
  3048  000E34                     l2920:
  3049                           
  3050                           ; BSR set to: 0
  3051  000E34  502B               	movf	(___flmul@a+2)^0,w,c
  3052  000E36  0225               	mulwf	___flmul@b^0,c
  3053  000E38  CFF3 F06B          	movff	prodl,___flmul@temp
  3054  000E3C  CFF4 F06C          	movff	prodh,___flmul@temp+1
  3055  000E40                     
  3056                           ; BSR set to: 0
  3057  000E40  516B               	movf	___flmul@temp& (0+255),w,b
  3058  000E42  6F62               	movwf	___flmul@grs& (0+255),b
  3059  000E44  6B63               	clrf	(___flmul@grs+1)& (0+255),b
  3060  000E46  6B64               	clrf	(___flmul@grs+2)& (0+255),b
  3061  000E48  6B65               	clrf	(___flmul@grs+3)& (0+255),b
  3062  000E4A                     
  3063                           ; BSR set to: 0
  3064  000E4A  516C               	movf	(___flmul@temp+1)& (0+255),w,b
  3065  000E4C  6F67               	movwf	___flmul@prod& (0+255),b
  3066  000E4E  6B68               	clrf	(___flmul@prod+1)& (0+255),b
  3067  000E50  6B69               	clrf	(___flmul@prod+2)& (0+255),b
  3068  000E52  6B6A               	clrf	(___flmul@prod+3)& (0+255),b
  3069  000E54  502A               	movf	(___flmul@a+1)^0,w,c
  3070  000E56  0226               	mulwf	(___flmul@b+1)^0,c
  3071  000E58  CFF3 F06B          	movff	prodl,___flmul@temp
  3072  000E5C  CFF4 F06C          	movff	prodh,___flmul@temp+1
  3073  000E60                     
  3074                           ; BSR set to: 0
  3075  000E60  516B               	movf	___flmul@temp& (0+255),w,b
  3076  000E62  2762               	addwf	___flmul@grs& (0+255),f,b
  3077  000E64  0E00               	movlw	0
  3078  000E66  2363               	addwfc	(___flmul@grs+1)& (0+255),f,b
  3079  000E68  2364               	addwfc	(___flmul@grs+2)& (0+255),f,b
  3080  000E6A  2365               	addwfc	(___flmul@grs+3)& (0+255),f,b
  3081  000E6C                     
  3082                           ; BSR set to: 0
  3083  000E6C  516C               	movf	(___flmul@temp+1)& (0+255),w,b
  3084  000E6E  2767               	addwf	___flmul@prod& (0+255),f,b
  3085  000E70  0E00               	movlw	0
  3086  000E72  2368               	addwfc	(___flmul@prod+1)& (0+255),f,b
  3087  000E74  2369               	addwfc	(___flmul@prod+2)& (0+255),f,b
  3088  000E76  236A               	addwfc	(___flmul@prod+3)& (0+255),f,b
  3089  000E78  5029               	movf	___flmul@a^0,w,c
  3090  000E7A  0227               	mulwf	(___flmul@b+2)^0,c
  3091  000E7C  CFF3 F06B          	movff	prodl,___flmul@temp
  3092  000E80  CFF4 F06C          	movff	prodh,___flmul@temp+1
  3093  000E84                     
  3094                           ; BSR set to: 0
  3095  000E84  516B               	movf	___flmul@temp& (0+255),w,b
  3096  000E86  2762               	addwf	___flmul@grs& (0+255),f,b
  3097  000E88  0E00               	movlw	0
  3098  000E8A  2363               	addwfc	(___flmul@grs+1)& (0+255),f,b
  3099  000E8C  2364               	addwfc	(___flmul@grs+2)& (0+255),f,b
  3100  000E8E  2365               	addwfc	(___flmul@grs+3)& (0+255),f,b
  3101  000E90                     
  3102                           ; BSR set to: 0
  3103  000E90  516C               	movf	(___flmul@temp+1)& (0+255),w,b
  3104  000E92  2767               	addwf	___flmul@prod& (0+255),f,b
  3105  000E94  0E00               	movlw	0
  3106  000E96  2368               	addwfc	(___flmul@prod+1)& (0+255),f,b
  3107  000E98  2369               	addwfc	(___flmul@prod+2)& (0+255),f,b
  3108  000E9A  236A               	addwfc	(___flmul@prod+3)& (0+255),f,b
  3109  000E9C                     
  3110                           ; BSR set to: 0
  3111  000E9C  C064  F065         	movff	___flmul@grs+2,___flmul@grs+3
  3112  000EA0  C063  F064         	movff	___flmul@grs+1,___flmul@grs+2
  3113  000EA4  C062  F063         	movff	___flmul@grs,___flmul@grs+1
  3114  000EA8  6B62               	clrf	___flmul@grs& (0+255),b
  3115  000EAA                     
  3116                           ; BSR set to: 0
  3117  000EAA  5029               	movf	___flmul@a^0,w,c
  3118  000EAC  0226               	mulwf	(___flmul@b+1)^0,c
  3119  000EAE  CFF3 F06B          	movff	prodl,___flmul@temp
  3120  000EB2  CFF4 F06C          	movff	prodh,___flmul@temp+1
  3121  000EB6                     
  3122                           ; BSR set to: 0
  3123  000EB6  516B               	movf	___flmul@temp& (0+255),w,b
  3124  000EB8  2762               	addwf	___flmul@grs& (0+255),f,b
  3125  000EBA  516C               	movf	(___flmul@temp+1)& (0+255),w,b
  3126  000EBC  2363               	addwfc	(___flmul@grs+1)& (0+255),f,b
  3127  000EBE  0E00               	movlw	0
  3128  000EC0  2364               	addwfc	(___flmul@grs+2)& (0+255),f,b
  3129  000EC2  0E00               	movlw	0
  3130  000EC4  2365               	addwfc	(___flmul@grs+3)& (0+255),f,b
  3131  000EC6                     
  3132                           ; BSR set to: 0
  3133  000EC6  502A               	movf	(___flmul@a+1)^0,w,c
  3134  000EC8  0225               	mulwf	___flmul@b^0,c
  3135  000ECA  CFF3 F06B          	movff	prodl,___flmul@temp
  3136  000ECE  CFF4 F06C          	movff	prodh,___flmul@temp+1
  3137  000ED2                     
  3138                           ; BSR set to: 0
  3139  000ED2  516B               	movf	___flmul@temp& (0+255),w,b
  3140  000ED4  2762               	addwf	___flmul@grs& (0+255),f,b
  3141  000ED6  516C               	movf	(___flmul@temp+1)& (0+255),w,b
  3142  000ED8  2363               	addwfc	(___flmul@grs+1)& (0+255),f,b
  3143  000EDA  0E00               	movlw	0
  3144  000EDC  2364               	addwfc	(___flmul@grs+2)& (0+255),f,b
  3145  000EDE  0E00               	movlw	0
  3146  000EE0  2365               	addwfc	(___flmul@grs+3)& (0+255),f,b
  3147  000EE2                     
  3148                           ; BSR set to: 0
  3149  000EE2  C064  F065         	movff	___flmul@grs+2,___flmul@grs+3
  3150  000EE6  C063  F064         	movff	___flmul@grs+1,___flmul@grs+2
  3151  000EEA  C062  F063         	movff	___flmul@grs,___flmul@grs+1
  3152  000EEE  6B62               	clrf	___flmul@grs& (0+255),b
  3153  000EF0  5029               	movf	___flmul@a^0,w,c
  3154  000EF2  0225               	mulwf	___flmul@b^0,c
  3155  000EF4  CFF3 F06B          	movff	prodl,___flmul@temp
  3156  000EF8  CFF4 F06C          	movff	prodh,___flmul@temp+1
  3157  000EFC                     
  3158                           ; BSR set to: 0
  3159  000EFC  516B               	movf	___flmul@temp& (0+255),w,b
  3160  000EFE  2762               	addwf	___flmul@grs& (0+255),f,b
  3161  000F00  516C               	movf	(___flmul@temp+1)& (0+255),w,b
  3162  000F02  2363               	addwfc	(___flmul@grs+1)& (0+255),f,b
  3163  000F04  0E00               	movlw	0
  3164  000F06  2364               	addwfc	(___flmul@grs+2)& (0+255),f,b
  3165  000F08  0E00               	movlw	0
  3166  000F0A  2365               	addwfc	(___flmul@grs+3)& (0+255),f,b
  3167  000F0C                     
  3168                           ; BSR set to: 0
  3169  000F0C  502B               	movf	(___flmul@a+2)^0,w,c
  3170  000F0E  0226               	mulwf	(___flmul@b+1)^0,c
  3171  000F10  CFF3 F06B          	movff	prodl,___flmul@temp
  3172  000F14  CFF4 F06C          	movff	prodh,___flmul@temp+1
  3173  000F18  516B               	movf	___flmul@temp& (0+255),w,b
  3174  000F1A  2767               	addwf	___flmul@prod& (0+255),f,b
  3175  000F1C  516C               	movf	(___flmul@temp+1)& (0+255),w,b
  3176  000F1E  2368               	addwfc	(___flmul@prod+1)& (0+255),f,b
  3177  000F20  0E00               	movlw	0
  3178  000F22  2369               	addwfc	(___flmul@prod+2)& (0+255),f,b
  3179  000F24  0E00               	movlw	0
  3180  000F26  236A               	addwfc	(___flmul@prod+3)& (0+255),f,b
  3181  000F28                     
  3182                           ; BSR set to: 0
  3183  000F28  502A               	movf	(___flmul@a+1)^0,w,c
  3184  000F2A  0227               	mulwf	(___flmul@b+2)^0,c
  3185  000F2C  CFF3 F06B          	movff	prodl,___flmul@temp
  3186  000F30  CFF4 F06C          	movff	prodh,___flmul@temp+1
  3187  000F34                     
  3188                           ; BSR set to: 0
  3189  000F34  516B               	movf	___flmul@temp& (0+255),w,b
  3190  000F36  2767               	addwf	___flmul@prod& (0+255),f,b
  3191  000F38  516C               	movf	(___flmul@temp+1)& (0+255),w,b
  3192  000F3A  2368               	addwfc	(___flmul@prod+1)& (0+255),f,b
  3193  000F3C  0E00               	movlw	0
  3194  000F3E  2369               	addwfc	(___flmul@prod+2)& (0+255),f,b
  3195  000F40  0E00               	movlw	0
  3196  000F42  236A               	addwfc	(___flmul@prod+3)& (0+255),f,b
  3197  000F44  502B               	movf	(___flmul@a+2)^0,w,c
  3198  000F46  0227               	mulwf	(___flmul@b+2)^0,c
  3199  000F48  CFF3 F06B          	movff	prodl,___flmul@temp
  3200  000F4C  CFF4 F06C          	movff	prodh,___flmul@temp+1
  3201  000F50                     
  3202                           ; BSR set to: 0
  3203  000F50  516B               	movf	___flmul@temp& (0+255),w,b
  3204  000F52  6E2D               	movwf	??___flmul^0,c
  3205  000F54  516C               	movf	(___flmul@temp+1)& (0+255),w,b
  3206  000F56  6E2E               	movwf	(??___flmul+1)^0,c
  3207  000F58  6A2F               	clrf	(??___flmul+2)^0,c
  3208  000F5A  6A30               	clrf	(??___flmul+3)^0,c
  3209  000F5C  C02F  F030         	movff	??___flmul+2,??___flmul+3
  3210  000F60  C02E  F02F         	movff	??___flmul+1,??___flmul+2
  3211  000F64  C02D  F02E         	movff	??___flmul,??___flmul+1
  3212  000F68  6A2D               	clrf	??___flmul^0,c
  3213  000F6A  502D               	movf	??___flmul^0,w,c
  3214  000F6C  2767               	addwf	___flmul@prod& (0+255),f,b
  3215  000F6E  502E               	movf	(??___flmul+1)^0,w,c
  3216  000F70  2368               	addwfc	(___flmul@prod+1)& (0+255),f,b
  3217  000F72  502F               	movf	(??___flmul+2)^0,w,c
  3218  000F74  2369               	addwfc	(___flmul@prod+2)& (0+255),f,b
  3219  000F76  5030               	movf	(??___flmul+3)^0,w,c
  3220  000F78  236A               	addwfc	(___flmul@prod+3)& (0+255),f,b
  3221  000F7A                     
  3222                           ; BSR set to: 0
  3223  000F7A  C062  F02D         	movff	___flmul@grs,??___flmul
  3224  000F7E  C063  F02E         	movff	___flmul@grs+1,??___flmul+1
  3225  000F82  C064  F02F         	movff	___flmul@grs+2,??___flmul+2
  3226  000F86  C065  F030         	movff	___flmul@grs+3,??___flmul+3
  3227  000F8A  0E19               	movlw	25
  3228  000F8C  EFCD  F007         	goto	u2800
  3229  000F90                     u2805:
  3230  000F90  90D8               	bcf	status,0,c
  3231  000F92  3230               	rrcf	(??___flmul+3)^0,f,c
  3232  000F94  322F               	rrcf	(??___flmul+2)^0,f,c
  3233  000F96  322E               	rrcf	(??___flmul+1)^0,f,c
  3234  000F98  322D               	rrcf	??___flmul^0,f,c
  3235  000F9A                     u2800:
  3236  000F9A  2EE8               	decfsz	wreg,f,c
  3237  000F9C  EFC8  F007         	goto	u2805
  3238  000FA0  502D               	movf	??___flmul^0,w,c
  3239  000FA2  2767               	addwf	___flmul@prod& (0+255),f,b
  3240  000FA4  502E               	movf	(??___flmul+1)^0,w,c
  3241  000FA6  2368               	addwfc	(___flmul@prod+1)& (0+255),f,b
  3242  000FA8  502F               	movf	(??___flmul+2)^0,w,c
  3243  000FAA  2369               	addwfc	(___flmul@prod+2)& (0+255),f,b
  3244  000FAC  5030               	movf	(??___flmul+3)^0,w,c
  3245  000FAE  236A               	addwfc	(___flmul@prod+3)& (0+255),f,b
  3246  000FB0                     
  3247                           ; BSR set to: 0
  3248  000FB0  C064  F065         	movff	___flmul@grs+2,___flmul@grs+3
  3249  000FB4  C063  F064         	movff	___flmul@grs+1,___flmul@grs+2
  3250  000FB8  C062  F063         	movff	___flmul@grs,___flmul@grs+1
  3251  000FBC  6B62               	clrf	___flmul@grs& (0+255),b
  3252  000FBE                     
  3253                           ; BSR set to: 0
  3254  000FBE  5161               	movf	___flmul@aexp& (0+255),w,b
  3255  000FC0  C066  F02D         	movff	___flmul@bexp,??___flmul
  3256  000FC4  6A2E               	clrf	(??___flmul+1)^0,c
  3257  000FC6  262D               	addwf	??___flmul^0,f,c
  3258  000FC8  0E00               	movlw	0
  3259  000FCA  222E               	addwfc	(??___flmul+1)^0,f,c
  3260  000FCC  0E82               	movlw	130
  3261  000FCE  242D               	addwf	??___flmul^0,w,c
  3262  000FD0  6F6B               	movwf	___flmul@temp& (0+255),b
  3263  000FD2  0EFF               	movlw	255
  3264  000FD4  202E               	addwfc	(??___flmul+1)^0,w,c
  3265  000FD6  6F6C               	movwf	(___flmul@temp+1)& (0+255),b
  3266  000FD8  EF03  F008         	goto	l2968
  3267  000FDC                     l2962:
  3268                           
  3269                           ; BSR set to: 0
  3270  000FDC  90D8               	bcf	status,0,c
  3271  000FDE  3767               	rlcf	___flmul@prod& (0+255),f,b
  3272  000FE0  3768               	rlcf	(___flmul@prod+1)& (0+255),f,b
  3273  000FE2  3769               	rlcf	(___flmul@prod+2)& (0+255),f,b
  3274  000FE4  376A               	rlcf	(___flmul@prod+3)& (0+255),f,b
  3275  000FE6                     
  3276                           ; BSR set to: 0
  3277  000FE6  AF65               	btfss	(___flmul@grs+3)& (0+255),7,b
  3278  000FE8  EFF8  F007         	goto	u2811
  3279  000FEC  EFFA  F007         	goto	u2810
  3280  000FF0                     u2811:
  3281  000FF0  EFFB  F007         	goto	l769
  3282  000FF4                     u2810:
  3283  000FF4                     
  3284                           ; BSR set to: 0
  3285  000FF4  8167               	bsf	___flmul@prod& (0+255),0,b
  3286  000FF6                     l769:
  3287                           
  3288                           ; BSR set to: 0
  3289  000FF6  90D8               	bcf	status,0,c
  3290  000FF8  3762               	rlcf	___flmul@grs& (0+255),f,b
  3291  000FFA  3763               	rlcf	(___flmul@grs+1)& (0+255),f,b
  3292  000FFC  3764               	rlcf	(___flmul@grs+2)& (0+255),f,b
  3293  000FFE  3765               	rlcf	(___flmul@grs+3)& (0+255),f,b
  3294  001000  076B               	decf	___flmul@temp& (0+255),f,b
  3295  001002  A0D8               	btfss	status,0,c
  3296  001004  076C               	decf	(___flmul@temp+1)& (0+255),f,b
  3297  001006                     l2968:
  3298                           
  3299                           ; BSR set to: 0
  3300  001006  AF69               	btfss	(___flmul@prod+2)& (0+255),7,b
  3301  001008  EF08  F008         	goto	u2821
  3302  00100C  EF0A  F008         	goto	u2820
  3303  001010                     u2821:
  3304  001010  EFEE  F007         	goto	l2962
  3305  001014                     u2820:
  3306  001014                     
  3307                           ; BSR set to: 0
  3308  001014  0E00               	movlw	0
  3309  001016  6F61               	movwf	___flmul@aexp& (0+255),b
  3310  001018                     
  3311                           ; BSR set to: 0
  3312  001018  AF65               	btfss	(___flmul@grs+3)& (0+255),7,b
  3313  00101A  EF11  F008         	goto	u2831
  3314  00101E  EF13  F008         	goto	u2830
  3315  001022                     u2831:
  3316  001022  EF37  F008         	goto	l771
  3317  001026                     u2830:
  3318  001026                     
  3319                           ; BSR set to: 0
  3320  001026  0EFF               	movlw	255
  3321  001028  1562               	andwf	___flmul@grs& (0+255),w,b
  3322  00102A  6E2D               	movwf	??___flmul^0,c
  3323  00102C  0EFF               	movlw	255
  3324  00102E  1563               	andwf	(___flmul@grs+1)& (0+255),w,b
  3325  001030  6E2E               	movwf	(??___flmul+1)^0,c
  3326  001032  0EFF               	movlw	255
  3327  001034  1564               	andwf	(___flmul@grs+2)& (0+255),w,b
  3328  001036  6E2F               	movwf	(??___flmul+2)^0,c
  3329  001038  0E7F               	movlw	127
  3330  00103A  1565               	andwf	(___flmul@grs+3)& (0+255),w,b
  3331  00103C  6E30               	movwf	(??___flmul+3)^0,c
  3332  00103E  502D               	movf	??___flmul^0,w,c
  3333  001040  102E               	iorwf	(??___flmul+1)^0,w,c
  3334  001042  102F               	iorwf	(??___flmul+2)^0,w,c
  3335  001044  1030               	iorwf	(??___flmul+3)^0,w,c
  3336  001046  B4D8               	btfsc	status,2,c
  3337  001048  EF28  F008         	goto	u2841
  3338  00104C  EF2A  F008         	goto	u2840
  3339  001050                     u2841:
  3340  001050  EF2E  F008         	goto	l772
  3341  001054                     u2840:
  3342  001054                     l2976:
  3343                           
  3344                           ; BSR set to: 0
  3345  001054  0E01               	movlw	1
  3346  001056  6F61               	movwf	___flmul@aexp& (0+255),b
  3347  001058  EF37  F008         	goto	l771
  3348  00105C                     l772:
  3349                           
  3350                           ; BSR set to: 0
  3351  00105C  A167               	btfss	___flmul@prod& (0+255),0,b
  3352  00105E  EF33  F008         	goto	u2851
  3353  001062  EF35  F008         	goto	u2850
  3354  001066                     u2851:
  3355  001066  EF37  F008         	goto	l771
  3356  00106A                     u2850:
  3357  00106A  EF2A  F008         	goto	l2976
  3358  00106E                     l771:
  3359                           
  3360                           ; BSR set to: 0
  3361  00106E  5161               	movf	___flmul@aexp& (0+255),w,b
  3362  001070  B4D8               	btfsc	status,2,c
  3363  001072  EF3D  F008         	goto	u2861
  3364  001076  EF3F  F008         	goto	u2860
  3365  00107A                     u2861:
  3366  00107A  EF63  F008         	goto	l2988
  3367  00107E                     u2860:
  3368  00107E                     
  3369                           ; BSR set to: 0
  3370  00107E  0E01               	movlw	1
  3371  001080  2767               	addwf	___flmul@prod& (0+255),f,b
  3372  001082  0E00               	movlw	0
  3373  001084  2368               	addwfc	(___flmul@prod+1)& (0+255),f,b
  3374  001086  2369               	addwfc	(___flmul@prod+2)& (0+255),f,b
  3375  001088  236A               	addwfc	(___flmul@prod+3)& (0+255),f,b
  3376  00108A                     
  3377                           ; BSR set to: 0
  3378  00108A  A16A               	btfss	(___flmul@prod+3)& (0+255),0,b
  3379  00108C  EF4A  F008         	goto	u2871
  3380  001090  EF4C  F008         	goto	u2870
  3381  001094                     u2871:
  3382  001094  EF63  F008         	goto	l2988
  3383  001098                     u2870:
  3384  001098                     
  3385                           ; BSR set to: 0
  3386  001098  C067  F02D         	movff	___flmul@prod,??___flmul
  3387  00109C  C068  F02E         	movff	___flmul@prod+1,??___flmul+1
  3388  0010A0  C069  F02F         	movff	___flmul@prod+2,??___flmul+2
  3389  0010A4  C06A  F030         	movff	___flmul@prod+3,??___flmul+3
  3390  0010A8  3430               	rlcf	(??___flmul+3)^0,w,c
  3391  0010AA  3230               	rrcf	(??___flmul+3)^0,f,c
  3392  0010AC  322F               	rrcf	(??___flmul+2)^0,f,c
  3393  0010AE  322E               	rrcf	(??___flmul+1)^0,f,c
  3394  0010B0  322D               	rrcf	??___flmul^0,f,c
  3395  0010B2  C02D  F067         	movff	??___flmul,___flmul@prod
  3396  0010B6  C02E  F068         	movff	??___flmul+1,___flmul@prod+1
  3397  0010BA  C02F  F069         	movff	??___flmul+2,___flmul@prod+2
  3398  0010BE  C030  F06A         	movff	??___flmul+3,___flmul@prod+3
  3399  0010C2                     
  3400                           ; BSR set to: 0
  3401  0010C2  4B6B               	infsnz	___flmul@temp& (0+255),f,b
  3402  0010C4  2B6C               	incf	(___flmul@temp+1)& (0+255),f,b
  3403  0010C6                     l2988:
  3404                           
  3405                           ; BSR set to: 0
  3406  0010C6  BF6C               	btfsc	(___flmul@temp+1)& (0+255),7,b
  3407  0010C8  EF6E  F008         	goto	u2881
  3408  0010CC  516C               	movf	(___flmul@temp+1)& (0+255),w,b
  3409  0010CE  E108               	bnz	u2880
  3410  0010D0  296B               	incf	___flmul@temp& (0+255),w,b
  3411  0010D2  A0D8               	btfss	status,0,c
  3412  0010D4  EF6E  F008         	goto	u2881
  3413  0010D8  EF70  F008         	goto	u2880
  3414  0010DC                     u2881:
  3415  0010DC  EF7A  F008         	goto	l2992
  3416  0010E0                     u2880:
  3417  0010E0                     
  3418                           ; BSR set to: 0
  3419  0010E0  0E00               	movlw	0
  3420  0010E2  6F67               	movwf	___flmul@prod& (0+255),b
  3421  0010E4  0E00               	movlw	0
  3422  0010E6  6F68               	movwf	(___flmul@prod+1)& (0+255),b
  3423  0010E8  0E80               	movlw	128
  3424  0010EA  6F69               	movwf	(___flmul@prod+2)& (0+255),b
  3425  0010EC  0E7F               	movlw	127
  3426  0010EE  6F6A               	movwf	(___flmul@prod+3)& (0+255),b
  3427  0010F0  EFA8  F008         	goto	l3004
  3428  0010F4                     l2992:
  3429                           
  3430                           ; BSR set to: 0
  3431  0010F4  BF6C               	btfsc	(___flmul@temp+1)& (0+255),7,b
  3432  0010F6  EF87  F008         	goto	u2890
  3433  0010FA  516C               	movf	(___flmul@temp+1)& (0+255),w,b
  3434  0010FC  E106               	bnz	u2891
  3435  0010FE  056B               	decf	___flmul@temp& (0+255),w,b
  3436  001100  B0D8               	btfsc	status,0,c
  3437  001102  EF85  F008         	goto	u2891
  3438  001106  EF87  F008         	goto	u2890
  3439  00110A                     u2891:
  3440  00110A  EF93  F008         	goto	l779
  3441  00110E                     u2890:
  3442  00110E                     
  3443                           ; BSR set to: 0
  3444  00110E  0E00               	movlw	0
  3445  001110  6F67               	movwf	___flmul@prod& (0+255),b
  3446  001112  0E00               	movlw	0
  3447  001114  6F68               	movwf	(___flmul@prod+1)& (0+255),b
  3448  001116  0E00               	movlw	0
  3449  001118  6F69               	movwf	(___flmul@prod+2)& (0+255),b
  3450  00111A  0E00               	movlw	0
  3451  00111C  6F6A               	movwf	(___flmul@prod+3)& (0+255),b
  3452  00111E  0E00               	movlw	0
  3453  001120  6F60               	movwf	___flmul@sign& (0+255),b
  3454  001122  EFA8  F008         	goto	l3004
  3455  001126                     l779:
  3456                           
  3457                           ; BSR set to: 0
  3458  001126  C06B  F066         	movff	___flmul@temp,___flmul@bexp
  3459  00112A                     
  3460                           ; BSR set to: 0
  3461  00112A  0EFF               	movlw	255
  3462  00112C  1767               	andwf	___flmul@prod& (0+255),f,b
  3463  00112E  0EFF               	movlw	255
  3464  001130  1768               	andwf	(___flmul@prod+1)& (0+255),f,b
  3465  001132  0E7F               	movlw	127
  3466  001134  1769               	andwf	(___flmul@prod+2)& (0+255),f,b
  3467  001136  0E00               	movlw	0
  3468  001138  176A               	andwf	(___flmul@prod+3)& (0+255),f,b
  3469  00113A                     
  3470                           ; BSR set to: 0
  3471  00113A  A166               	btfss	___flmul@bexp& (0+255),0,b
  3472  00113C  EFA2  F008         	goto	u2901
  3473  001140  EFA4  F008         	goto	u2900
  3474  001144                     u2901:
  3475  001144  EFA5  F008         	goto	l3002
  3476  001148                     u2900:
  3477  001148                     
  3478                           ; BSR set to: 0
  3479  001148  8F69               	bsf	(___flmul@prod+2)& (0+255),7,b
  3480  00114A                     l3002:
  3481                           
  3482                           ; BSR set to: 0
  3483  00114A  90D8               	bcf	status,0,c
  3484  00114C  3166               	rrcf	___flmul@bexp& (0+255),w,b
  3485  00114E  6F6A               	movwf	(___flmul@prod+3)& (0+255),b
  3486  001150                     l3004:
  3487                           
  3488                           ; BSR set to: 0
  3489  001150  5160               	movf	___flmul@sign& (0+255),w,b
  3490  001152  136A               	iorwf	(___flmul@prod+3)& (0+255),f,b
  3491  001154                     
  3492                           ; BSR set to: 0
  3493  001154  C067  F025         	movff	___flmul@prod,?___flmul
  3494  001158  C068  F026         	movff	___flmul@prod+1,?___flmul+1
  3495  00115C  C069  F027         	movff	___flmul@prod+2,?___flmul+2
  3496  001160  C06A  F028         	movff	___flmul@prod+3,?___flmul+3
  3497  001164                     l766:
  3498                           
  3499                           ; BSR set to: 0
  3500  001164  0012               	return		;funcret
  3501  001166                     __end_of___flmul:
  3502                           	callstack 0
  3503                           
  3504 ;; *************** function ___flge *****************
  3505 ;; Defined at:
  3506 ;;		line 4 in file "C:\Program Files\Microchip\xc8\v2.32\pic\sources\c99\common\flge.c"
  3507 ;; Parameters:    Size  Location     Type
  3508 ;;  ff1             4   22[COMRAM] unsigned char 
  3509 ;;  ff2             4   26[COMRAM] unsigned char 
  3510 ;; Auto vars:     Size  Location     Type
  3511 ;;		None
  3512 ;; Return value:  Size  Location     Type
  3513 ;;		None               void
  3514 ;; Registers used:
  3515 ;;		wreg, status,2, status,0
  3516 ;; Tracked objects:
  3517 ;;		On entry : 0/0
  3518 ;;		On exit  : 0/0
  3519 ;;		Unchanged: 0/0
  3520 ;; Data sizes:     COMRAM   BANK0   BANK1   BANK2   BANK3   BANK4   BANK5   BANK6   BANK7
  3521 ;;      Params:         8       0       0       0       0       0       0       0       0
  3522 ;;      Locals:         0       0       0       0       0       0       0       0       0
  3523 ;;      Temps:          4       0       0       0       0       0       0       0       0
  3524 ;;      Totals:        12       0       0       0       0       0       0       0       0
  3525 ;;Total ram usage:       12 bytes
  3526 ;; Hardware stack levels used: 1
  3527 ;; Hardware stack levels required when called: 4
  3528 ;; This function calls:
  3529 ;;		Nothing
  3530 ;; This function is called by:
  3531 ;;		_main
  3532 ;;		_LCD_printFloatNumber
  3533 ;; This function uses a non-reentrant model
  3534 ;;
  3535                           
  3536                           	psect	text17
  3537  00194A                     __ptext17:
  3538                           	callstack 0
  3539  00194A                     ___flge:
  3540                           	callstack 26
  3541  00194A  0E00               	movlw	0
  3542  00194C  1417               	andwf	___flge@ff1^0,w,c
  3543  00194E  6E1F               	movwf	??___flge^0,c
  3544  001950  0E00               	movlw	0
  3545  001952  1418               	andwf	(___flge@ff1+1)^0,w,c
  3546  001954  6E20               	movwf	(??___flge+1)^0,c
  3547  001956  0E80               	movlw	128
  3548  001958  1419               	andwf	(___flge@ff1+2)^0,w,c
  3549  00195A  6E21               	movwf	(??___flge+2)^0,c
  3550  00195C  0E7F               	movlw	127
  3551  00195E  141A               	andwf	(___flge@ff1+3)^0,w,c
  3552  001960  6E22               	movwf	(??___flge+3)^0,c
  3553  001962  501F               	movf	??___flge^0,w,c
  3554  001964  1020               	iorwf	(??___flge+1)^0,w,c
  3555  001966  1021               	iorwf	(??___flge+2)^0,w,c
  3556  001968  1022               	iorwf	(??___flge+3)^0,w,c
  3557  00196A  A4D8               	btfss	status,2,c
  3558  00196C  EFBA  F00C         	goto	u2191
  3559  001970  EFBC  F00C         	goto	u2190
  3560  001974                     u2191:
  3561  001974  EFC4  F00C         	goto	l2514
  3562  001978                     u2190:
  3563  001978  0E00               	movlw	0
  3564  00197A  6E17               	movwf	___flge@ff1^0,c
  3565  00197C  0E00               	movlw	0
  3566  00197E  6E18               	movwf	(___flge@ff1+1)^0,c
  3567  001980  0E00               	movlw	0
  3568  001982  6E19               	movwf	(___flge@ff1+2)^0,c
  3569  001984  0E00               	movlw	0
  3570  001986  6E1A               	movwf	(___flge@ff1+3)^0,c
  3571  001988                     l2514:
  3572  001988  0E00               	movlw	0
  3573  00198A  141B               	andwf	___flge@ff2^0,w,c
  3574  00198C  6E1F               	movwf	??___flge^0,c
  3575  00198E  0E00               	movlw	0
  3576  001990  141C               	andwf	(___flge@ff2+1)^0,w,c
  3577  001992  6E20               	movwf	(??___flge+1)^0,c
  3578  001994  0E80               	movlw	128
  3579  001996  141D               	andwf	(___flge@ff2+2)^0,w,c
  3580  001998  6E21               	movwf	(??___flge+2)^0,c
  3581  00199A  0E7F               	movlw	127
  3582  00199C  141E               	andwf	(___flge@ff2+3)^0,w,c
  3583  00199E  6E22               	movwf	(??___flge+3)^0,c
  3584  0019A0  501F               	movf	??___flge^0,w,c
  3585  0019A2  1020               	iorwf	(??___flge+1)^0,w,c
  3586  0019A4  1021               	iorwf	(??___flge+2)^0,w,c
  3587  0019A6  1022               	iorwf	(??___flge+3)^0,w,c
  3588  0019A8  A4D8               	btfss	status,2,c
  3589  0019AA  EFD9  F00C         	goto	u2201
  3590  0019AE  EFDB  F00C         	goto	u2200
  3591  0019B2                     u2201:
  3592  0019B2  EFE3  F00C         	goto	l2518
  3593  0019B6                     u2200:
  3594  0019B6  0E00               	movlw	0
  3595  0019B8  6E1B               	movwf	___flge@ff2^0,c
  3596  0019BA  0E00               	movlw	0
  3597  0019BC  6E1C               	movwf	(___flge@ff2+1)^0,c
  3598  0019BE  0E00               	movlw	0
  3599  0019C0  6E1D               	movwf	(___flge@ff2+2)^0,c
  3600  0019C2  0E00               	movlw	0
  3601  0019C4  6E1E               	movwf	(___flge@ff2+3)^0,c
  3602  0019C6                     l2518:
  3603  0019C6  AE1A               	btfss	(___flge@ff1+3)^0,7,c
  3604  0019C8  EFE8  F00C         	goto	u2211
  3605  0019CC  EFEA  F00C         	goto	u2210
  3606  0019D0                     u2211:
  3607  0019D0  EFF3  F00C         	goto	l2522
  3608  0019D4                     u2210:
  3609  0019D4  6C17               	negf	___flge@ff1^0,c
  3610  0019D6  1E18               	comf	(___flge@ff1+1)^0,f,c
  3611  0019D8  B0D8               	btfsc	status,0,c
  3612  0019DA  2A18               	incf	(___flge@ff1+1)^0,f,c
  3613  0019DC  1E19               	comf	(___flge@ff1+2)^0,f,c
  3614  0019DE  B0D8               	btfsc	status,0,c
  3615  0019E0  2A19               	incf	(___flge@ff1+2)^0,f,c
  3616  0019E2  0E80               	movlw	128
  3617  0019E4  561A               	subfwb	(___flge@ff1+3)^0,f,c
  3618  0019E6                     l2522:
  3619  0019E6  AE1E               	btfss	(___flge@ff2+3)^0,7,c
  3620  0019E8  EFF8  F00C         	goto	u2221
  3621  0019EC  EFFA  F00C         	goto	u2220
  3622  0019F0                     u2221:
  3623  0019F0  EF03  F00D         	goto	l413
  3624  0019F4                     u2220:
  3625  0019F4  6C1B               	negf	___flge@ff2^0,c
  3626  0019F6  1E1C               	comf	(___flge@ff2+1)^0,f,c
  3627  0019F8  B0D8               	btfsc	status,0,c
  3628  0019FA  2A1C               	incf	(___flge@ff2+1)^0,f,c
  3629  0019FC  1E1D               	comf	(___flge@ff2+2)^0,f,c
  3630  0019FE  B0D8               	btfsc	status,0,c
  3631  001A00  2A1D               	incf	(___flge@ff2+2)^0,f,c
  3632  001A02  0E80               	movlw	128
  3633  001A04  561E               	subfwb	(___flge@ff2+3)^0,f,c
  3634  001A06                     l413:
  3635  001A06  0E00               	movlw	0
  3636  001A08  1A17               	xorwf	___flge@ff1^0,f,c
  3637  001A0A  0E00               	movlw	0
  3638  001A0C  1A18               	xorwf	(___flge@ff1+1)^0,f,c
  3639  001A0E  0E00               	movlw	0
  3640  001A10  1A19               	xorwf	(___flge@ff1+2)^0,f,c
  3641  001A12  0E80               	movlw	128
  3642  001A14  1A1A               	xorwf	(___flge@ff1+3)^0,f,c
  3643  001A16  0E00               	movlw	0
  3644  001A18  1A1B               	xorwf	___flge@ff2^0,f,c
  3645  001A1A  0E00               	movlw	0
  3646  001A1C  1A1C               	xorwf	(___flge@ff2+1)^0,f,c
  3647  001A1E  0E00               	movlw	0
  3648  001A20  1A1D               	xorwf	(___flge@ff2+2)^0,f,c
  3649  001A22  0E80               	movlw	128
  3650  001A24  1A1E               	xorwf	(___flge@ff2+3)^0,f,c
  3651  001A26  501B               	movf	___flge@ff2^0,w,c
  3652  001A28  5C17               	subwf	___flge@ff1^0,w,c
  3653  001A2A  501C               	movf	(___flge@ff2+1)^0,w,c
  3654  001A2C  5818               	subwfb	(___flge@ff1+1)^0,w,c
  3655  001A2E  501D               	movf	(___flge@ff2+2)^0,w,c
  3656  001A30  5819               	subwfb	(___flge@ff1+2)^0,w,c
  3657  001A32  501E               	movf	(___flge@ff2+3)^0,w,c
  3658  001A34  581A               	subwfb	(___flge@ff1+3)^0,w,c
  3659  001A36  B0D8               	btfsc	status,0,c
  3660  001A38  EF20  F00D         	goto	u2231
  3661  001A3C  EF22  F00D         	goto	u2230
  3662  001A40                     u2231:
  3663  001A40  EF25  F00D         	goto	l2528
  3664  001A44                     u2230:
  3665  001A44  90D8               	bcf	status,0,c
  3666  001A46  EF26  F00D         	goto	l418
  3667  001A4A                     l2528:
  3668  001A4A  80D8               	bsf	status,0,c
  3669  001A4C                     l418:
  3670  001A4C  0012               	return		;funcret
  3671  001A4E                     __end_of___flge:
  3672                           	callstack 0
  3673                           
  3674 ;; *************** function ___fleq *****************
  3675 ;; Defined at:
  3676 ;;		line 4 in file "C:\Program Files\Microchip\xc8\v2.32\pic\sources\c99\common\fleq.c"
  3677 ;; Parameters:    Size  Location     Type
  3678 ;;  ff1             4   22[COMRAM] unsigned char 
  3679 ;;  ff2             4   26[COMRAM] unsigned char 
  3680 ;; Auto vars:     Size  Location     Type
  3681 ;;		None
  3682 ;; Return value:  Size  Location     Type
  3683 ;;		None               void
  3684 ;; Registers used:
  3685 ;;		wreg, status,2, status,0
  3686 ;; Tracked objects:
  3687 ;;		On entry : 0/0
  3688 ;;		On exit  : 0/0
  3689 ;;		Unchanged: 0/0
  3690 ;; Data sizes:     COMRAM   BANK0   BANK1   BANK2   BANK3   BANK4   BANK5   BANK6   BANK7
  3691 ;;      Params:         8       0       0       0       0       0       0       0       0
  3692 ;;      Locals:         0       0       0       0       0       0       0       0       0
  3693 ;;      Temps:          4       0       0       0       0       0       0       0       0
  3694 ;;      Totals:        12       0       0       0       0       0       0       0       0
  3695 ;;Total ram usage:       12 bytes
  3696 ;; Hardware stack levels used: 1
  3697 ;; Hardware stack levels required when called: 4
  3698 ;; This function calls:
  3699 ;;		Nothing
  3700 ;; This function is called by:
  3701 ;;		_main
  3702 ;; This function uses a non-reentrant model
  3703 ;;
  3704                           
  3705                           	psect	text18
  3706  001B1C                     __ptext18:
  3707                           	callstack 0
  3708  001B1C                     ___fleq:
  3709                           	callstack 26
  3710  001B1C  0E00               	movlw	0
  3711  001B1E  1417               	andwf	___fleq@ff1^0,w,c
  3712  001B20  6E1F               	movwf	??___fleq^0,c
  3713  001B22  0E00               	movlw	0
  3714  001B24  1418               	andwf	(___fleq@ff1+1)^0,w,c
  3715  001B26  6E20               	movwf	(??___fleq+1)^0,c
  3716  001B28  0E80               	movlw	128
  3717  001B2A  1419               	andwf	(___fleq@ff1+2)^0,w,c
  3718  001B2C  6E21               	movwf	(??___fleq+2)^0,c
  3719  001B2E  0E7F               	movlw	127
  3720  001B30  141A               	andwf	(___fleq@ff1+3)^0,w,c
  3721  001B32  6E22               	movwf	(??___fleq+3)^0,c
  3722  001B34  501F               	movf	??___fleq^0,w,c
  3723  001B36  1020               	iorwf	(??___fleq+1)^0,w,c
  3724  001B38  1021               	iorwf	(??___fleq+2)^0,w,c
  3725  001B3A  1022               	iorwf	(??___fleq+3)^0,w,c
  3726  001B3C  A4D8               	btfss	status,2,c
  3727  001B3E  EFA3  F00D         	goto	u2161
  3728  001B42  EFA5  F00D         	goto	u2160
  3729  001B46                     u2161:
  3730  001B46  EFAD  F00D         	goto	l2498
  3731  001B4A                     u2160:
  3732  001B4A  0E00               	movlw	0
  3733  001B4C  6E17               	movwf	___fleq@ff1^0,c
  3734  001B4E  0E00               	movlw	0
  3735  001B50  6E18               	movwf	(___fleq@ff1+1)^0,c
  3736  001B52  0E00               	movlw	0
  3737  001B54  6E19               	movwf	(___fleq@ff1+2)^0,c
  3738  001B56  0E00               	movlw	0
  3739  001B58  6E1A               	movwf	(___fleq@ff1+3)^0,c
  3740  001B5A                     l2498:
  3741  001B5A  0E00               	movlw	0
  3742  001B5C  141B               	andwf	___fleq@ff2^0,w,c
  3743  001B5E  6E1F               	movwf	??___fleq^0,c
  3744  001B60  0E00               	movlw	0
  3745  001B62  141C               	andwf	(___fleq@ff2+1)^0,w,c
  3746  001B64  6E20               	movwf	(??___fleq+1)^0,c
  3747  001B66  0E80               	movlw	128
  3748  001B68  141D               	andwf	(___fleq@ff2+2)^0,w,c
  3749  001B6A  6E21               	movwf	(??___fleq+2)^0,c
  3750  001B6C  0E7F               	movlw	127
  3751  001B6E  141E               	andwf	(___fleq@ff2+3)^0,w,c
  3752  001B70  6E22               	movwf	(??___fleq+3)^0,c
  3753  001B72  501F               	movf	??___fleq^0,w,c
  3754  001B74  1020               	iorwf	(??___fleq+1)^0,w,c
  3755  001B76  1021               	iorwf	(??___fleq+2)^0,w,c
  3756  001B78  1022               	iorwf	(??___fleq+3)^0,w,c
  3757  001B7A  A4D8               	btfss	status,2,c
  3758  001B7C  EFC2  F00D         	goto	u2171
  3759  001B80  EFC4  F00D         	goto	u2170
  3760  001B84                     u2171:
  3761  001B84  EFCC  F00D         	goto	l2502
  3762  001B88                     u2170:
  3763  001B88  0E00               	movlw	0
  3764  001B8A  6E1B               	movwf	___fleq@ff2^0,c
  3765  001B8C  0E00               	movlw	0
  3766  001B8E  6E1C               	movwf	(___fleq@ff2+1)^0,c
  3767  001B90  0E00               	movlw	0
  3768  001B92  6E1D               	movwf	(___fleq@ff2+2)^0,c
  3769  001B94  0E00               	movlw	0
  3770  001B96  6E1E               	movwf	(___fleq@ff2+3)^0,c
  3771  001B98                     l2502:
  3772  001B98  501B               	movf	___fleq@ff2^0,w,c
  3773  001B9A  1817               	xorwf	___fleq@ff1^0,w,c
  3774  001B9C  E10F               	bnz	u2180
  3775  001B9E  501C               	movf	(___fleq@ff2+1)^0,w,c
  3776  001BA0  1818               	xorwf	(___fleq@ff1+1)^0,w,c
  3777  001BA2  E10C               	bnz	u2180
  3778  001BA4  501D               	movf	(___fleq@ff2+2)^0,w,c
  3779  001BA6  1819               	xorwf	(___fleq@ff1+2)^0,w,c
  3780  001BA8  E109               	bnz	u2180
  3781  001BAA  501E               	movf	(___fleq@ff2+3)^0,w,c
  3782  001BAC  181A               	xorwf	(___fleq@ff1+3)^0,w,c
  3783  001BAE  B4D8               	btfsc	status,2,c
  3784  001BB0  EFDC  F00D         	goto	u2181
  3785  001BB4  EFDE  F00D         	goto	u2180
  3786  001BB8                     u2181:
  3787  001BB8  EFE1  F00D         	goto	l2506
  3788  001BBC                     u2180:
  3789  001BBC  90D8               	bcf	status,0,c
  3790  001BBE  EFE2  F00D         	goto	l407
  3791  001BC2                     l2506:
  3792  001BC2  80D8               	bsf	status,0,c
  3793  001BC4                     l407:
  3794  001BC4  0012               	return		;funcret
  3795  001BC6                     __end_of___fleq:
  3796                           	callstack 0
  3797                           
  3798 ;; *************** function ___fldiv *****************
  3799 ;; Defined at:
  3800 ;;		line 11 in file "C:\Program Files\Microchip\xc8\v2.32\pic\sources\c99\common\sprcdiv.c"
  3801 ;; Parameters:    Size  Location     Type
  3802 ;;  b               4   48[COMRAM] unsigned char 
  3803 ;;  a               4   52[COMRAM] unsigned char 
  3804 ;; Auto vars:     Size  Location     Type
  3805 ;;  grs             4   20[BANK0 ] unsigned long 
  3806 ;;  rem             4   13[BANK0 ] unsigned long 
  3807 ;;  new_exp         2   18[BANK0 ] short 
  3808 ;;  aexp            1   25[BANK0 ] unsigned char 
  3809 ;;  bexp            1   24[BANK0 ] unsigned char 
  3810 ;;  sign            1   17[BANK0 ] unsigned char 
  3811 ;; Return value:  Size  Location     Type
  3812 ;;                  4   48[COMRAM] unsigned char 
  3813 ;; Registers used:
  3814 ;;		wreg, status,2, status,0
  3815 ;; Tracked objects:
  3816 ;;		On entry : 0/0
  3817 ;;		On exit  : 0/0
  3818 ;;		Unchanged: 0/0
  3819 ;; Data sizes:     COMRAM   BANK0   BANK1   BANK2   BANK3   BANK4   BANK5   BANK6   BANK7
  3820 ;;      Params:         8       0       0       0       0       0       0       0       0
  3821 ;;      Locals:         0      13       0       0       0       0       0       0       0
  3822 ;;      Temps:          4       0       0       0       0       0       0       0       0
  3823 ;;      Totals:        12      13       0       0       0       0       0       0       0
  3824 ;;Total ram usage:       25 bytes
  3825 ;; Hardware stack levels used: 1
  3826 ;; Hardware stack levels required when called: 4
  3827 ;; This function calls:
  3828 ;;		Nothing
  3829 ;; This function is called by:
  3830 ;;		_main
  3831 ;;		_LCD_printFloatNumber
  3832 ;; This function uses a non-reentrant model
  3833 ;;
  3834                           
  3835                           	psect	text19
  3836  001166                     __ptext19:
  3837                           	callstack 0
  3838  001166                     ___fldiv:
  3839                           	callstack 26
  3840  001166  5034               	movf	(___fldiv@b+3)^0,w,c
  3841  001168  0B80               	andlw	128
  3842  00116A  0100               	movlb	0	; () banked
  3843  00116C  6F71               	movwf	___fldiv@sign& (0+255),b
  3844  00116E  5034               	movf	(___fldiv@b+3)^0,w,c
  3845  001170  2434               	addwf	(___fldiv@b+3)^0,w,c
  3846  001172  6F78               	movwf	___fldiv@bexp& (0+255),b
  3847  001174                     
  3848                           ; BSR set to: 0
  3849  001174  AE33               	btfss	(___fldiv@b+2)^0,7,c
  3850  001176  EFBF  F008         	goto	u2491
  3851  00117A  EFC1  F008         	goto	u2490
  3852  00117E                     u2491:
  3853  00117E  EFC2  F008         	goto	l2748
  3854  001182                     u2490:
  3855  001182                     
  3856                           ; BSR set to: 0
  3857  001182  8178               	bsf	___fldiv@bexp& (0+255),0,b
  3858  001184                     l2748:
  3859                           
  3860                           ; BSR set to: 0
  3861  001184  5178               	movf	___fldiv@bexp& (0+255),w,b
  3862  001186  B4D8               	btfsc	status,2,c
  3863  001188  EFC8  F008         	goto	u2501
  3864  00118C  EFCA  F008         	goto	u2500
  3865  001190                     u2501:
  3866  001190  EFDF  F008         	goto	l2758
  3867  001194                     u2500:
  3868  001194                     
  3869                           ; BSR set to: 0
  3870  001194  2978               	incf	___fldiv@bexp& (0+255),w,b
  3871  001196  A4D8               	btfss	status,2,c
  3872  001198  EFD0  F008         	goto	u2511
  3873  00119C  EFD2  F008         	goto	u2510
  3874  0011A0                     u2511:
  3875  0011A0  EFDA  F008         	goto	l2754
  3876  0011A4                     u2510:
  3877  0011A4                     
  3878                           ; BSR set to: 0
  3879  0011A4  0E00               	movlw	0
  3880  0011A6  6E31               	movwf	___fldiv@b^0,c
  3881  0011A8  0E00               	movlw	0
  3882  0011AA  6E32               	movwf	(___fldiv@b+1)^0,c
  3883  0011AC  0E00               	movlw	0
  3884  0011AE  6E33               	movwf	(___fldiv@b+2)^0,c
  3885  0011B0  0E00               	movlw	0
  3886  0011B2  6E34               	movwf	(___fldiv@b+3)^0,c
  3887  0011B4                     l2754:
  3888                           
  3889                           ; BSR set to: 0
  3890  0011B4  8E33               	bsf	(___fldiv@b+2)^0,7,c
  3891  0011B6                     
  3892                           ; BSR set to: 0
  3893  0011B6  0E00               	movlw	0
  3894  0011B8  6E34               	movwf	(___fldiv@b+3)^0,c
  3895  0011BA  EFE7  F008         	goto	l2760
  3896  0011BE                     l2758:
  3897                           
  3898                           ; BSR set to: 0
  3899  0011BE  0E00               	movlw	0
  3900  0011C0  6E31               	movwf	___fldiv@b^0,c
  3901  0011C2  0E00               	movlw	0
  3902  0011C4  6E32               	movwf	(___fldiv@b+1)^0,c
  3903  0011C6  0E00               	movlw	0
  3904  0011C8  6E33               	movwf	(___fldiv@b+2)^0,c
  3905  0011CA  0E00               	movlw	0
  3906  0011CC  6E34               	movwf	(___fldiv@b+3)^0,c
  3907  0011CE                     l2760:
  3908                           
  3909                           ; BSR set to: 0
  3910  0011CE  5038               	movf	(___fldiv@a+3)^0,w,c
  3911  0011D0  0B80               	andlw	128
  3912  0011D2  1B71               	xorwf	___fldiv@sign& (0+255),f,b
  3913  0011D4                     
  3914                           ; BSR set to: 0
  3915  0011D4  5038               	movf	(___fldiv@a+3)^0,w,c
  3916  0011D6  2438               	addwf	(___fldiv@a+3)^0,w,c
  3917  0011D8  6F79               	movwf	___fldiv@aexp& (0+255),b
  3918  0011DA                     
  3919                           ; BSR set to: 0
  3920  0011DA  AE37               	btfss	(___fldiv@a+2)^0,7,c
  3921  0011DC  EFF2  F008         	goto	u2521
  3922  0011E0  EFF4  F008         	goto	u2520
  3923  0011E4                     u2521:
  3924  0011E4  EFF5  F008         	goto	l2768
  3925  0011E8                     u2520:
  3926  0011E8                     
  3927                           ; BSR set to: 0
  3928  0011E8  8179               	bsf	___fldiv@aexp& (0+255),0,b
  3929  0011EA                     l2768:
  3930                           
  3931                           ; BSR set to: 0
  3932  0011EA  5179               	movf	___fldiv@aexp& (0+255),w,b
  3933  0011EC  B4D8               	btfsc	status,2,c
  3934  0011EE  EFFB  F008         	goto	u2531
  3935  0011F2  EFFD  F008         	goto	u2530
  3936  0011F6                     u2531:
  3937  0011F6  EF12  F009         	goto	l2778
  3938  0011FA                     u2530:
  3939  0011FA                     
  3940                           ; BSR set to: 0
  3941  0011FA  2979               	incf	___fldiv@aexp& (0+255),w,b
  3942  0011FC  A4D8               	btfss	status,2,c
  3943  0011FE  EF03  F009         	goto	u2541
  3944  001202  EF05  F009         	goto	u2540
  3945  001206                     u2541:
  3946  001206  EF0D  F009         	goto	l2774
  3947  00120A                     u2540:
  3948  00120A                     
  3949                           ; BSR set to: 0
  3950  00120A  0E00               	movlw	0
  3951  00120C  6E35               	movwf	___fldiv@a^0,c
  3952  00120E  0E00               	movlw	0
  3953  001210  6E36               	movwf	(___fldiv@a+1)^0,c
  3954  001212  0E00               	movlw	0
  3955  001214  6E37               	movwf	(___fldiv@a+2)^0,c
  3956  001216  0E00               	movlw	0
  3957  001218  6E38               	movwf	(___fldiv@a+3)^0,c
  3958  00121A                     l2774:
  3959                           
  3960                           ; BSR set to: 0
  3961  00121A  8E37               	bsf	(___fldiv@a+2)^0,7,c
  3962  00121C                     
  3963                           ; BSR set to: 0
  3964  00121C  0E00               	movlw	0
  3965  00121E  6E38               	movwf	(___fldiv@a+3)^0,c
  3966  001220  EF1A  F009         	goto	l2780
  3967  001224                     l2778:
  3968                           
  3969                           ; BSR set to: 0
  3970  001224  0E00               	movlw	0
  3971  001226  6E35               	movwf	___fldiv@a^0,c
  3972  001228  0E00               	movlw	0
  3973  00122A  6E36               	movwf	(___fldiv@a+1)^0,c
  3974  00122C  0E00               	movlw	0
  3975  00122E  6E37               	movwf	(___fldiv@a+2)^0,c
  3976  001230  0E00               	movlw	0
  3977  001232  6E38               	movwf	(___fldiv@a+3)^0,c
  3978  001234                     l2780:
  3979                           
  3980                           ; BSR set to: 0
  3981  001234  5035               	movf	___fldiv@a^0,w,c
  3982  001236  1036               	iorwf	(___fldiv@a+1)^0,w,c
  3983  001238  1037               	iorwf	(___fldiv@a+2)^0,w,c
  3984  00123A  1038               	iorwf	(___fldiv@a+3)^0,w,c
  3985  00123C  A4D8               	btfss	status,2,c
  3986  00123E  EF23  F009         	goto	u2551
  3987  001242  EF25  F009         	goto	u2550
  3988  001246                     u2551:
  3989  001246  EF3D  F009         	goto	l2792
  3990  00124A                     u2550:
  3991  00124A                     
  3992                           ; BSR set to: 0
  3993  00124A  0E00               	movlw	0
  3994  00124C  6E31               	movwf	___fldiv@b^0,c
  3995  00124E  0E00               	movlw	0
  3996  001250  6E32               	movwf	(___fldiv@b+1)^0,c
  3997  001252  0E00               	movlw	0
  3998  001254  6E33               	movwf	(___fldiv@b+2)^0,c
  3999  001256  0E00               	movlw	0
  4000  001258  6E34               	movwf	(___fldiv@b+3)^0,c
  4001  00125A                     
  4002                           ; BSR set to: 0
  4003  00125A  0E80               	movlw	128
  4004  00125C  1233               	iorwf	(___fldiv@b+2)^0,f,c
  4005  00125E  0E7F               	movlw	127
  4006  001260  1234               	iorwf	(___fldiv@b+3)^0,f,c
  4007  001262                     l2786:
  4008                           
  4009                           ; BSR set to: 0
  4010  001262  5171               	movf	___fldiv@sign& (0+255),w,b
  4011  001264  1234               	iorwf	(___fldiv@b+3)^0,f,c
  4012  001266                     
  4013                           ; BSR set to: 0
  4014  001266  C031  F031         	movff	___fldiv@b,?___fldiv
  4015  00126A  C032  F032         	movff	___fldiv@b+1,?___fldiv+1
  4016  00126E  C033  F033         	movff	___fldiv@b+2,?___fldiv+2
  4017  001272  C034  F034         	movff	___fldiv@b+3,?___fldiv+3
  4018  001276  EF80  F00A         	goto	l730
  4019  00127A                     l2792:
  4020                           
  4021                           ; BSR set to: 0
  4022  00127A  5178               	movf	___fldiv@bexp& (0+255),w,b
  4023  00127C  A4D8               	btfss	status,2,c
  4024  00127E  EF43  F009         	goto	u2561
  4025  001282  EF45  F009         	goto	u2560
  4026  001286                     u2561:
  4027  001286  EF4F  F009         	goto	l2800
  4028  00128A                     u2560:
  4029  00128A                     
  4030                           ; BSR set to: 0
  4031  00128A  0E00               	movlw	0
  4032  00128C  6E31               	movwf	?___fldiv^0,c
  4033  00128E  0E00               	movlw	0
  4034  001290  6E32               	movwf	(?___fldiv+1)^0,c
  4035  001292  0E00               	movlw	0
  4036  001294  6E33               	movwf	(?___fldiv+2)^0,c
  4037  001296  0E00               	movlw	0
  4038  001298  6E34               	movwf	(?___fldiv+3)^0,c
  4039  00129A  EF80  F00A         	goto	l730
  4040  00129E                     l2800:
  4041                           
  4042                           ; BSR set to: 0
  4043  00129E  5179               	movf	___fldiv@aexp& (0+255),w,b
  4044  0012A0  C078  F039         	movff	___fldiv@bexp,??___fldiv
  4045  0012A4  6A3A               	clrf	(??___fldiv+1)^0,c
  4046  0012A6  5E39               	subwf	??___fldiv^0,f,c
  4047  0012A8  0E00               	movlw	0
  4048  0012AA  5A3A               	subwfb	(??___fldiv+1)^0,f,c
  4049  0012AC  0E7F               	movlw	127
  4050  0012AE  2439               	addwf	??___fldiv^0,w,c
  4051  0012B0  6F72               	movwf	___fldiv@new_exp& (0+255),b
  4052  0012B2  0E00               	movlw	0
  4053  0012B4  203A               	addwfc	(??___fldiv+1)^0,w,c
  4054  0012B6  6F73               	movwf	(___fldiv@new_exp+1)& (0+255),b
  4055  0012B8                     
  4056                           ; BSR set to: 0
  4057  0012B8  C031  F06D         	movff	___fldiv@b,___fldiv@rem
  4058  0012BC  C032  F06E         	movff	___fldiv@b+1,___fldiv@rem+1
  4059  0012C0  C033  F06F         	movff	___fldiv@b+2,___fldiv@rem+2
  4060  0012C4  C034  F070         	movff	___fldiv@b+3,___fldiv@rem+3
  4061  0012C8                     
  4062                           ; BSR set to: 0
  4063  0012C8  0E00               	movlw	0
  4064  0012CA  6E31               	movwf	___fldiv@b^0,c
  4065  0012CC  0E00               	movlw	0
  4066  0012CE  6E32               	movwf	(___fldiv@b+1)^0,c
  4067  0012D0  0E00               	movlw	0
  4068  0012D2  6E33               	movwf	(___fldiv@b+2)^0,c
  4069  0012D4  0E00               	movlw	0
  4070  0012D6  6E34               	movwf	(___fldiv@b+3)^0,c
  4071  0012D8                     
  4072                           ; BSR set to: 0
  4073  0012D8  0E00               	movlw	0
  4074  0012DA  6F74               	movwf	___fldiv@grs& (0+255),b
  4075  0012DC  0E00               	movlw	0
  4076  0012DE  6F75               	movwf	(___fldiv@grs+1)& (0+255),b
  4077  0012E0  0E00               	movlw	0
  4078  0012E2  6F76               	movwf	(___fldiv@grs+2)& (0+255),b
  4079  0012E4  0E00               	movlw	0
  4080  0012E6  6F77               	movwf	(___fldiv@grs+3)& (0+255),b
  4081  0012E8                     
  4082                           ; BSR set to: 0
  4083  0012E8  0E00               	movlw	0
  4084  0012EA  6F79               	movwf	___fldiv@aexp& (0+255),b
  4085  0012EC  EFB0  F009         	goto	l732
  4086  0012F0                     l2810:
  4087                           
  4088                           ; BSR set to: 0
  4089  0012F0  5179               	movf	___fldiv@aexp& (0+255),w,b
  4090  0012F2  B4D8               	btfsc	status,2,c
  4091  0012F4  EF7E  F009         	goto	u2571
  4092  0012F8  EF80  F009         	goto	u2570
  4093  0012FC                     u2571:
  4094  0012FC  EF97  F009         	goto	l2818
  4095  001300                     u2570:
  4096  001300                     
  4097                           ; BSR set to: 0
  4098  001300  90D8               	bcf	status,0,c
  4099  001302  376D               	rlcf	___fldiv@rem& (0+255),f,b
  4100  001304  376E               	rlcf	(___fldiv@rem+1)& (0+255),f,b
  4101  001306  376F               	rlcf	(___fldiv@rem+2)& (0+255),f,b
  4102  001308  3770               	rlcf	(___fldiv@rem+3)& (0+255),f,b
  4103  00130A  90D8               	bcf	status,0,c
  4104  00130C  3631               	rlcf	___fldiv@b^0,f,c
  4105  00130E  3632               	rlcf	(___fldiv@b+1)^0,f,c
  4106  001310  3633               	rlcf	(___fldiv@b+2)^0,f,c
  4107  001312  3634               	rlcf	(___fldiv@b+3)^0,f,c
  4108  001314                     
  4109                           ; BSR set to: 0
  4110  001314  AF77               	btfss	(___fldiv@grs+3)& (0+255),7,b
  4111  001316  EF8F  F009         	goto	u2581
  4112  00131A  EF91  F009         	goto	u2580
  4113  00131E                     u2581:
  4114  00131E  EF92  F009         	goto	l735
  4115  001322                     u2580:
  4116  001322                     
  4117                           ; BSR set to: 0
  4118  001322  8031               	bsf	___fldiv@b^0,0,c
  4119  001324                     l735:
  4120                           
  4121                           ; BSR set to: 0
  4122  001324  90D8               	bcf	status,0,c
  4123  001326  3774               	rlcf	___fldiv@grs& (0+255),f,b
  4124  001328  3775               	rlcf	(___fldiv@grs+1)& (0+255),f,b
  4125  00132A  3776               	rlcf	(___fldiv@grs+2)& (0+255),f,b
  4126  00132C  3777               	rlcf	(___fldiv@grs+3)& (0+255),f,b
  4127  00132E                     l2818:
  4128                           
  4129                           ; BSR set to: 0
  4130  00132E  5035               	movf	___fldiv@a^0,w,c
  4131  001330  5D6D               	subwf	___fldiv@rem& (0+255),w,b
  4132  001332  5036               	movf	(___fldiv@a+1)^0,w,c
  4133  001334  596E               	subwfb	(___fldiv@rem+1)& (0+255),w,b
  4134  001336  5037               	movf	(___fldiv@a+2)^0,w,c
  4135  001338  596F               	subwfb	(___fldiv@rem+2)& (0+255),w,b
  4136  00133A  5038               	movf	(___fldiv@a+3)^0,w,c
  4137  00133C  5970               	subwfb	(___fldiv@rem+3)& (0+255),w,b
  4138  00133E  A0D8               	btfss	status,0,c
  4139  001340  EFA4  F009         	goto	u2591
  4140  001344  EFA6  F009         	goto	u2590
  4141  001348                     u2591:
  4142  001348  EFAF  F009         	goto	l2824
  4143  00134C                     u2590:
  4144  00134C                     
  4145                           ; BSR set to: 0
  4146  00134C  8D77               	bsf	(___fldiv@grs+3)& (0+255),6,b
  4147  00134E                     
  4148                           ; BSR set to: 0
  4149  00134E  5035               	movf	___fldiv@a^0,w,c
  4150  001350  5F6D               	subwf	___fldiv@rem& (0+255),f,b
  4151  001352  5036               	movf	(___fldiv@a+1)^0,w,c
  4152  001354  5B6E               	subwfb	(___fldiv@rem+1)& (0+255),f,b
  4153  001356  5037               	movf	(___fldiv@a+2)^0,w,c
  4154  001358  5B6F               	subwfb	(___fldiv@rem+2)& (0+255),f,b
  4155  00135A  5038               	movf	(___fldiv@a+3)^0,w,c
  4156  00135C  5B70               	subwfb	(___fldiv@rem+3)& (0+255),f,b
  4157  00135E                     l2824:
  4158                           
  4159                           ; BSR set to: 0
  4160  00135E  2B79               	incf	___fldiv@aexp& (0+255),f,b
  4161  001360                     l732:
  4162                           
  4163                           ; BSR set to: 0
  4164  001360  0E19               	movlw	25
  4165  001362  6579               	cpfsgt	___fldiv@aexp& (0+255),b
  4166  001364  EFB6  F009         	goto	u2601
  4167  001368  EFB8  F009         	goto	u2600
  4168  00136C                     u2601:
  4169  00136C  EF78  F009         	goto	l2810
  4170  001370                     u2600:
  4171  001370                     
  4172                           ; BSR set to: 0
  4173  001370  516D               	movf	___fldiv@rem& (0+255),w,b
  4174  001372  116E               	iorwf	(___fldiv@rem+1)& (0+255),w,b
  4175  001374  116F               	iorwf	(___fldiv@rem+2)& (0+255),w,b
  4176  001376  1170               	iorwf	(___fldiv@rem+3)& (0+255),w,b
  4177  001378  B4D8               	btfsc	status,2,c
  4178  00137A  EFC1  F009         	goto	u2611
  4179  00137E  EFC3  F009         	goto	u2610
  4180  001382                     u2611:
  4181  001382  EFDB  F009         	goto	l2836
  4182  001386                     u2610:
  4183  001386                     
  4184                           ; BSR set to: 0
  4185  001386  8174               	bsf	___fldiv@grs& (0+255),0,b
  4186  001388  EFDB  F009         	goto	l2836
  4187  00138C                     l2830:
  4188                           
  4189                           ; BSR set to: 0
  4190  00138C  90D8               	bcf	status,0,c
  4191  00138E  3631               	rlcf	___fldiv@b^0,f,c
  4192  001390  3632               	rlcf	(___fldiv@b+1)^0,f,c
  4193  001392  3633               	rlcf	(___fldiv@b+2)^0,f,c
  4194  001394  3634               	rlcf	(___fldiv@b+3)^0,f,c
  4195  001396                     
  4196                           ; BSR set to: 0
  4197  001396  AF77               	btfss	(___fldiv@grs+3)& (0+255),7,b
  4198  001398  EFD0  F009         	goto	u2621
  4199  00139C  EFD2  F009         	goto	u2620
  4200  0013A0                     u2621:
  4201  0013A0  EFD3  F009         	goto	l741
  4202  0013A4                     u2620:
  4203  0013A4                     
  4204                           ; BSR set to: 0
  4205  0013A4  8031               	bsf	___fldiv@b^0,0,c
  4206  0013A6                     l741:
  4207                           
  4208                           ; BSR set to: 0
  4209  0013A6  90D8               	bcf	status,0,c
  4210  0013A8  3774               	rlcf	___fldiv@grs& (0+255),f,b
  4211  0013AA  3775               	rlcf	(___fldiv@grs+1)& (0+255),f,b
  4212  0013AC  3776               	rlcf	(___fldiv@grs+2)& (0+255),f,b
  4213  0013AE  3777               	rlcf	(___fldiv@grs+3)& (0+255),f,b
  4214  0013B0  0772               	decf	___fldiv@new_exp& (0+255),f,b
  4215  0013B2  A0D8               	btfss	status,0,c
  4216  0013B4  0773               	decf	(___fldiv@new_exp+1)& (0+255),f,b
  4217  0013B6                     l2836:
  4218                           
  4219                           ; BSR set to: 0
  4220  0013B6  AE33               	btfss	(___fldiv@b+2)^0,7,c
  4221  0013B8  EFE0  F009         	goto	u2631
  4222  0013BC  EFE2  F009         	goto	u2630
  4223  0013C0                     u2631:
  4224  0013C0  EFC6  F009         	goto	l2830
  4225  0013C4                     u2630:
  4226  0013C4                     
  4227                           ; BSR set to: 0
  4228  0013C4  0E00               	movlw	0
  4229  0013C6  6F79               	movwf	___fldiv@aexp& (0+255),b
  4230  0013C8                     
  4231                           ; BSR set to: 0
  4232  0013C8  AF77               	btfss	(___fldiv@grs+3)& (0+255),7,b
  4233  0013CA  EFE9  F009         	goto	u2641
  4234  0013CE  EFEB  F009         	goto	u2640
  4235  0013D2                     u2641:
  4236  0013D2  EF0F  F00A         	goto	l743
  4237  0013D6                     u2640:
  4238  0013D6                     
  4239                           ; BSR set to: 0
  4240  0013D6  0EFF               	movlw	255
  4241  0013D8  1574               	andwf	___fldiv@grs& (0+255),w,b
  4242  0013DA  6E39               	movwf	??___fldiv^0,c
  4243  0013DC  0EFF               	movlw	255
  4244  0013DE  1575               	andwf	(___fldiv@grs+1)& (0+255),w,b
  4245  0013E0  6E3A               	movwf	(??___fldiv+1)^0,c
  4246  0013E2  0EFF               	movlw	255
  4247  0013E4  1576               	andwf	(___fldiv@grs+2)& (0+255),w,b
  4248  0013E6  6E3B               	movwf	(??___fldiv+2)^0,c
  4249  0013E8  0E7F               	movlw	127
  4250  0013EA  1577               	andwf	(___fldiv@grs+3)& (0+255),w,b
  4251  0013EC  6E3C               	movwf	(??___fldiv+3)^0,c
  4252  0013EE  5039               	movf	??___fldiv^0,w,c
  4253  0013F0  103A               	iorwf	(??___fldiv+1)^0,w,c
  4254  0013F2  103B               	iorwf	(??___fldiv+2)^0,w,c
  4255  0013F4  103C               	iorwf	(??___fldiv+3)^0,w,c
  4256  0013F6  B4D8               	btfsc	status,2,c
  4257  0013F8  EF00  F00A         	goto	u2651
  4258  0013FC  EF02  F00A         	goto	u2650
  4259  001400                     u2651:
  4260  001400  EF06  F00A         	goto	l744
  4261  001404                     u2650:
  4262  001404                     l2844:
  4263                           
  4264                           ; BSR set to: 0
  4265  001404  0E01               	movlw	1
  4266  001406  6F79               	movwf	___fldiv@aexp& (0+255),b
  4267  001408  EF0F  F00A         	goto	l743
  4268  00140C                     l744:
  4269                           
  4270                           ; BSR set to: 0
  4271  00140C  A031               	btfss	___fldiv@b^0,0,c
  4272  00140E  EF0B  F00A         	goto	u2661
  4273  001412  EF0D  F00A         	goto	u2660
  4274  001416                     u2661:
  4275  001416  EF0F  F00A         	goto	l743
  4276  00141A                     u2660:
  4277  00141A  EF02  F00A         	goto	l2844
  4278  00141E                     l743:
  4279                           
  4280                           ; BSR set to: 0
  4281  00141E  5179               	movf	___fldiv@aexp& (0+255),w,b
  4282  001420  B4D8               	btfsc	status,2,c
  4283  001422  EF15  F00A         	goto	u2671
  4284  001426  EF17  F00A         	goto	u2670
  4285  00142A                     u2671:
  4286  00142A  EF3B  F00A         	goto	l2856
  4287  00142E                     u2670:
  4288  00142E                     
  4289                           ; BSR set to: 0
  4290  00142E  0E01               	movlw	1
  4291  001430  2631               	addwf	___fldiv@b^0,f,c
  4292  001432  0E00               	movlw	0
  4293  001434  2232               	addwfc	(___fldiv@b+1)^0,f,c
  4294  001436  2233               	addwfc	(___fldiv@b+2)^0,f,c
  4295  001438  2234               	addwfc	(___fldiv@b+3)^0,f,c
  4296  00143A                     
  4297                           ; BSR set to: 0
  4298  00143A  A034               	btfss	(___fldiv@b+3)^0,0,c
  4299  00143C  EF22  F00A         	goto	u2681
  4300  001440  EF24  F00A         	goto	u2680
  4301  001444                     u2681:
  4302  001444  EF3B  F00A         	goto	l2856
  4303  001448                     u2680:
  4304  001448                     
  4305                           ; BSR set to: 0
  4306  001448  C031  F039         	movff	___fldiv@b,??___fldiv
  4307  00144C  C032  F03A         	movff	___fldiv@b+1,??___fldiv+1
  4308  001450  C033  F03B         	movff	___fldiv@b+2,??___fldiv+2
  4309  001454  C034  F03C         	movff	___fldiv@b+3,??___fldiv+3
  4310  001458  343C               	rlcf	(??___fldiv+3)^0,w,c
  4311  00145A  323C               	rrcf	(??___fldiv+3)^0,f,c
  4312  00145C  323B               	rrcf	(??___fldiv+2)^0,f,c
  4313  00145E  323A               	rrcf	(??___fldiv+1)^0,f,c
  4314  001460  3239               	rrcf	??___fldiv^0,f,c
  4315  001462  C039  F031         	movff	??___fldiv,___fldiv@b
  4316  001466  C03A  F032         	movff	??___fldiv+1,___fldiv@b+1
  4317  00146A  C03B  F033         	movff	??___fldiv+2,___fldiv@b+2
  4318  00146E  C03C  F034         	movff	??___fldiv+3,___fldiv@b+3
  4319  001472                     
  4320                           ; BSR set to: 0
  4321  001472  4B72               	infsnz	___fldiv@new_exp& (0+255),f,b
  4322  001474  2B73               	incf	(___fldiv@new_exp+1)& (0+255),f,b
  4323  001476                     l2856:
  4324                           
  4325                           ; BSR set to: 0
  4326  001476  BF73               	btfsc	(___fldiv@new_exp+1)& (0+255),7,b
  4327  001478  EF46  F00A         	goto	u2691
  4328  00147C  5173               	movf	(___fldiv@new_exp+1)& (0+255),w,b
  4329  00147E  E108               	bnz	u2690
  4330  001480  2972               	incf	___fldiv@new_exp& (0+255),w,b
  4331  001482  A0D8               	btfss	status,0,c
  4332  001484  EF46  F00A         	goto	u2691
  4333  001488  EF48  F00A         	goto	u2690
  4334  00148C                     u2691:
  4335  00148C  EF53  F00A         	goto	l2860
  4336  001490                     u2690:
  4337  001490                     
  4338                           ; BSR set to: 0
  4339  001490  0E00               	movlw	0
  4340  001492  6F73               	movwf	(___fldiv@new_exp+1)& (0+255),b
  4341  001494  6972               	setf	___fldiv@new_exp& (0+255),b
  4342  001496  0E00               	movlw	0
  4343  001498  6E31               	movwf	___fldiv@b^0,c
  4344  00149A  0E00               	movlw	0
  4345  00149C  6E32               	movwf	(___fldiv@b+1)^0,c
  4346  00149E  0E00               	movlw	0
  4347  0014A0  6E33               	movwf	(___fldiv@b+2)^0,c
  4348  0014A2  0E00               	movlw	0
  4349  0014A4  6E34               	movwf	(___fldiv@b+3)^0,c
  4350  0014A6                     l2860:
  4351                           
  4352                           ; BSR set to: 0
  4353  0014A6  BF73               	btfsc	(___fldiv@new_exp+1)& (0+255),7,b
  4354  0014A8  EF60  F00A         	goto	u2700
  4355  0014AC  5173               	movf	(___fldiv@new_exp+1)& (0+255),w,b
  4356  0014AE  E106               	bnz	u2701
  4357  0014B0  0572               	decf	___fldiv@new_exp& (0+255),w,b
  4358  0014B2  B0D8               	btfsc	status,0,c
  4359  0014B4  EF5E  F00A         	goto	u2701
  4360  0014B8  EF60  F00A         	goto	u2700
  4361  0014BC                     u2701:
  4362  0014BC  EF6E  F00A         	goto	l2864
  4363  0014C0                     u2700:
  4364  0014C0                     
  4365                           ; BSR set to: 0
  4366  0014C0  0E00               	movlw	0
  4367  0014C2  6F73               	movwf	(___fldiv@new_exp+1)& (0+255),b
  4368  0014C4  0E00               	movlw	0
  4369  0014C6  6F72               	movwf	___fldiv@new_exp& (0+255),b
  4370  0014C8  0E00               	movlw	0
  4371  0014CA  6E31               	movwf	___fldiv@b^0,c
  4372  0014CC  0E00               	movlw	0
  4373  0014CE  6E32               	movwf	(___fldiv@b+1)^0,c
  4374  0014D0  0E00               	movlw	0
  4375  0014D2  6E33               	movwf	(___fldiv@b+2)^0,c
  4376  0014D4  0E00               	movlw	0
  4377  0014D6  6E34               	movwf	(___fldiv@b+3)^0,c
  4378  0014D8  0E00               	movlw	0
  4379  0014DA  6F71               	movwf	___fldiv@sign& (0+255),b
  4380  0014DC                     l2864:
  4381                           
  4382                           ; BSR set to: 0
  4383  0014DC  C072  F078         	movff	___fldiv@new_exp,___fldiv@bexp
  4384  0014E0                     
  4385                           ; BSR set to: 0
  4386  0014E0  A178               	btfss	___fldiv@bexp& (0+255),0,b
  4387  0014E2  EF75  F00A         	goto	u2711
  4388  0014E6  EF77  F00A         	goto	u2710
  4389  0014EA                     u2711:
  4390  0014EA  EF7A  F00A         	goto	l2870
  4391  0014EE                     u2710:
  4392  0014EE                     
  4393                           ; BSR set to: 0
  4394  0014EE  8E33               	bsf	(___fldiv@b+2)^0,7,c
  4395  0014F0  EF7B  F00A         	goto	l2872
  4396  0014F4                     l2870:
  4397                           
  4398                           ; BSR set to: 0
  4399  0014F4  9E33               	bcf	(___fldiv@b+2)^0,7,c
  4400  0014F6                     l2872:
  4401                           
  4402                           ; BSR set to: 0
  4403  0014F6  90D8               	bcf	status,0,c
  4404  0014F8  3178               	rrcf	___fldiv@bexp& (0+255),w,b
  4405  0014FA  6E34               	movwf	(___fldiv@b+3)^0,c
  4406  0014FC  EF31  F009         	goto	l2786
  4407  001500                     l730:
  4408                           
  4409                           ; BSR set to: 0
  4410  001500  0012               	return		;funcret
  4411  001502                     __end_of___fldiv:
  4412                           	callstack 0
  4413                           
  4414 ;; *************** function _interrupt_service_routine *****************
  4415 ;; Defined at:
  4416 ;;		line 123 in file "./util.h"
  4417 ;; Parameters:    Size  Location     Type
  4418 ;;		None
  4419 ;; Auto vars:     Size  Location     Type
  4420 ;;		None
  4421 ;; Return value:  Size  Location     Type
  4422 ;;                  1    wreg      void 
  4423 ;; Registers used:
  4424 ;;		wreg, status,2, status,0, tblptrl, tblptrh, tblptru, cstack
  4425 ;; Tracked objects:
  4426 ;;		On entry : 0/0
  4427 ;;		On exit  : 0/0
  4428 ;;		Unchanged: 0/0
  4429 ;; Data sizes:     COMRAM   BANK0   BANK1   BANK2   BANK3   BANK4   BANK5   BANK6   BANK7
  4430 ;;      Params:         0       0       0       0       0       0       0       0       0
  4431 ;;      Locals:         0       0       0       0       0       0       0       0       0
  4432 ;;      Temps:          6       0       0       0       0       0       0       0       0
  4433 ;;      Totals:         6       0       0       0       0       0       0       0       0
  4434 ;;Total ram usage:        6 bytes
  4435 ;; Hardware stack levels used: 1
  4436 ;; Hardware stack levels required when called: 3
  4437 ;; This function calls:
  4438 ;;		_doorController_fire
  4439 ;;		_doorController_invasion
  4440 ;;		i2_doorController_closingDoor
  4441 ;;		i2_doorController_openingDoor
  4442 ;; This function is called by:
  4443 ;;		Interrupt level 2
  4444 ;; This function uses a non-reentrant model
  4445 ;;
  4446                           
  4447                           	psect	intcode
  4448  000008                     __pintcode:
  4449                           	callstack 0
  4450  000008                     _interrupt_service_routine:
  4451                           	callstack 23
  4452                           
  4453                           ; BSR set to: 0
  4454                           ;incstack = 0
  4455  000008  8249               	bsf	int$flags,1,c	;set compiler interrupt flag (level 2)
  4456  00000A  ED21  F00C         	call	int_func,f	;refresh shadow registers
  4457                           
  4458                           	psect	intcode_body
  4459  001842                     __pintcode_body:
  4460                           	callstack 23
  4461  001842                     int_func:
  4462                           	callstack 23
  4463  001842  0006               	pop		; remove dummy address from shadow register refresh
  4464  001844  CFF6 F013          	movff	tblptrl,??_interrupt_service_routine+2
  4465  001848  CFF7 F014          	movff	tblptrh,??_interrupt_service_routine+3
  4466  00184C  CFF8 F015          	movff	tblptru,??_interrupt_service_routine+4
  4467  001850  CFF5 F016          	movff	tablat,??_interrupt_service_routine+5
  4468  001854                     
  4469                           ;./util.h: 125:    if (INTCON3bits.INT1IE && INTCON3bits.INT1IF) {
  4470  001854  A6F0               	btfss	240,3,c	;volatile
  4471  001856  EF2F  F00C         	goto	i2u240_41
  4472  00185A  EF31  F00C         	goto	i2u240_40
  4473  00185E                     i2u240_41:
  4474  00185E  EF62  F00C         	goto	i2l93
  4475  001862                     i2u240_40:
  4476  001862  A0F0               	btfss	240,0,c	;volatile
  4477  001864  EF36  F00C         	goto	i2u241_41
  4478  001868  EF38  F00C         	goto	i2u241_40
  4479  00186C                     i2u241_41:
  4480  00186C  EF62  F00C         	goto	i2l93
  4481  001870                     i2u241_40:
  4482  001870  EF44  F00C         	goto	i2l2656
  4483  001874                     i2l2652:
  4484  001874  EC7B  F00E         	call	i2_doorController_openingDoor	;wreg free
  4485  001878                     i2l97:
  4486  001878  ECEF  F00F         	call	_doorController_fire	;wreg free
  4487  00187C  EF61  F00C         	goto	i2l98
  4488  001880                     i2l2654:
  4489  001880  ECC7  F00E         	call	i2_doorController_closingDoor	;wreg free
  4490                           
  4491                           ;./util.h: 132:       }
  4492  001884  EF61  F00C         	goto	i2l98
  4493  001888                     i2l2656:
  4494  001888  5044               	movf	_doorStatus^0,w,c
  4495  00188A  6E11               	movwf	??_interrupt_service_routine^0,c
  4496  00188C  6A12               	clrf	(??_interrupt_service_routine+1)^0,c
  4497                           
  4498                           ; Switch on 2 bytes has been partitioned into a top level switch of size 1, and 1 sub-sw
      +                          itches
  4499                           ; Switch size 1, requested type "simple"
  4500                           ; Number of cases is 1, Range of values is 0 to 0
  4501                           ; switch strategies available:
  4502                           ; Name         Instructions Cycles
  4503                           ; simple_byte            4     3 (average)
  4504                           ;	Chosen strategy is simple_byte
  4505  00188E  5012               	movf	(??_interrupt_service_routine+1)^0,w,c
  4506  001890  0A00               	xorlw	0	; case 0
  4507  001892  B4D8               	btfsc	status,2,c
  4508  001894  EF4E  F00C         	goto	i2l3104
  4509  001898  EF61  F00C         	goto	i2l98
  4510  00189C                     i2l3104:
  4511                           
  4512                           ; Switch size 1, requested type "simple"
  4513                           ; Number of cases is 4, Range of values is 1 to 4
  4514                           ; switch strategies available:
  4515                           ; Name         Instructions Cycles
  4516                           ; simple_byte           13     7 (average)
  4517                           ;	Chosen strategy is simple_byte
  4518  00189C  5011               	movf	??_interrupt_service_routine^0,w,c
  4519  00189E  0A01               	xorlw	1	; case 1
  4520  0018A0  B4D8               	btfsc	status,2,c
  4521  0018A2  EF40  F00C         	goto	i2l2654
  4522  0018A6  0A03               	xorlw	3	; case 2
  4523  0018A8  B4D8               	btfsc	status,2,c
  4524  0018AA  EF3A  F00C         	goto	i2l2652
  4525  0018AE  0A01               	xorlw	1	; case 3
  4526  0018B0  B4D8               	btfsc	status,2,c
  4527  0018B2  EF3C  F00C         	goto	i2l97
  4528  0018B6  0A07               	xorlw	7	; case 4
  4529  0018B8  B4D8               	btfsc	status,2,c
  4530  0018BA  EF3A  F00C         	goto	i2l2652
  4531  0018BE  EF61  F00C         	goto	i2l98
  4532  0018C2                     i2l98:
  4533                           
  4534                           ;./util.h: 133:       INTCON3bits.INT1IF = 0;
  4535  0018C2  90F0               	bcf	240,0,c	;volatile
  4536  0018C4                     i2l93:
  4537                           
  4538                           ;./util.h: 137:    if (INTCON3bits.INT2IE && INTCON3bits.INT2IF) {
  4539  0018C4  A8F0               	btfss	240,4,c	;volatile
  4540  0018C6  EF67  F00C         	goto	i2u242_41
  4541  0018CA  EF69  F00C         	goto	i2u242_40
  4542  0018CE                     i2u242_41:
  4543  0018CE  EF9A  F00C         	goto	i2l100
  4544  0018D2                     i2u242_40:
  4545  0018D2  A2F0               	btfss	240,1,c	;volatile
  4546  0018D4  EF6E  F00C         	goto	i2u243_41
  4547  0018D8  EF70  F00C         	goto	i2u243_40
  4548  0018DC                     i2u243_41:
  4549  0018DC  EF9A  F00C         	goto	i2l100
  4550  0018E0                     i2u243_40:
  4551  0018E0  EF7C  F00C         	goto	i2l2666
  4552  0018E4                     i2l2662:
  4553  0018E4  ECC7  F00E         	call	i2_doorController_closingDoor	;wreg free
  4554  0018E8                     i2l103:
  4555  0018E8  ECC7  F00F         	call	_doorController_invasion	;wreg free
  4556                           
  4557                           ;./util.h: 142:             break;
  4558  0018EC  EF99  F00C         	goto	i2l104
  4559  0018F0                     i2l2664:
  4560  0018F0  EC7B  F00E         	call	i2_doorController_openingDoor	;wreg free
  4561  0018F4  EF99  F00C         	goto	i2l104
  4562  0018F8                     i2l2666:
  4563  0018F8  5044               	movf	_doorStatus^0,w,c
  4564  0018FA  6E11               	movwf	??_interrupt_service_routine^0,c
  4565  0018FC  6A12               	clrf	(??_interrupt_service_routine+1)^0,c
  4566                           
  4567                           ; Switch on 2 bytes has been partitioned into a top level switch of size 1, and 1 sub-sw
      +                          itches
  4568                           ; Switch size 1, requested type "simple"
  4569                           ; Number of cases is 1, Range of values is 0 to 0
  4570                           ; switch strategies available:
  4571                           ; Name         Instructions Cycles
  4572                           ; simple_byte            4     3 (average)
  4573                           ;	Chosen strategy is simple_byte
  4574  0018FE  5012               	movf	(??_interrupt_service_routine+1)^0,w,c
  4575  001900  0A00               	xorlw	0	; case 0
  4576  001902  B4D8               	btfsc	status,2,c
  4577  001904  EF86  F00C         	goto	i2l3106
  4578  001908  EF99  F00C         	goto	i2l104
  4579  00190C                     i2l3106:
  4580                           
  4581                           ; Switch size 1, requested type "simple"
  4582                           ; Number of cases is 4, Range of values is 1 to 4
  4583                           ; switch strategies available:
  4584                           ; Name         Instructions Cycles
  4585                           ; simple_byte           13     7 (average)
  4586                           ;	Chosen strategy is simple_byte
  4587  00190C  5011               	movf	??_interrupt_service_routine^0,w,c
  4588  00190E  0A01               	xorlw	1	; case 1
  4589  001910  B4D8               	btfsc	status,2,c
  4590  001912  EF99  F00C         	goto	i2l104
  4591  001916  0A03               	xorlw	3	; case 2
  4592  001918  B4D8               	btfsc	status,2,c
  4593  00191A  EF78  F00C         	goto	i2l2664
  4594  00191E  0A01               	xorlw	1	; case 3
  4595  001920  B4D8               	btfsc	status,2,c
  4596  001922  EF72  F00C         	goto	i2l2662
  4597  001926  0A07               	xorlw	7	; case 4
  4598  001928  B4D8               	btfsc	status,2,c
  4599  00192A  EF74  F00C         	goto	i2l103
  4600  00192E  EF99  F00C         	goto	i2l104
  4601  001932                     i2l104:
  4602                           
  4603                           ;./util.h: 146:       INTCON3bits.INT2IF = 0;
  4604  001932  92F0               	bcf	240,1,c	;volatile
  4605  001934                     i2l100:
  4606  001934  0004               	clrwdt		;# 
  4607  001936  C016  FFF5         	movff	??_interrupt_service_routine+5,tablat
  4608  00193A  C015  FFF8         	movff	??_interrupt_service_routine+4,tblptru
  4609  00193E  C014  FFF7         	movff	??_interrupt_service_routine+3,tblptrh
  4610  001942  C013  FFF6         	movff	??_interrupt_service_routine+2,tblptrl
  4611  001946  9249               	bcf	int$flags,1,c	;clear compiler interrupt flag (level 2)
  4612  001948  0011               	retfie		f
  4613  00194A                     __end_of_interrupt_service_routine:
  4614                           	callstack 0
  4615                           
  4616 ;; *************** function i2_doorController_openingDoor *****************
  4617 ;; Defined at:
  4618 ;;		line 196 in file "./util.h"
  4619 ;; Parameters:    Size  Location     Type
  4620 ;;		None
  4621 ;; Auto vars:     Size  Location     Type
  4622 ;;		None
  4623 ;; Return value:  Size  Location     Type
  4624 ;;                  1    wreg      void 
  4625 ;; Registers used:
  4626 ;;		wreg, status,2, status,0, tblptrl, tblptrh, tblptru, cstack
  4627 ;; Tracked objects:
  4628 ;;		On entry : 0/0
  4629 ;;		On exit  : 0/0
  4630 ;;		Unchanged: 0/0
  4631 ;; Data sizes:     COMRAM   BANK0   BANK1   BANK2   BANK3   BANK4   BANK5   BANK6   BANK7
  4632 ;;      Params:         0       0       0       0       0       0       0       0       0
  4633 ;;      Locals:         0       0       0       0       0       0       0       0       0
  4634 ;;      Temps:          0       0       0       0       0       0       0       0       0
  4635 ;;      Totals:         0       0       0       0       0       0       0       0       0
  4636 ;;Total ram usage:        0 bytes
  4637 ;; Hardware stack levels used: 1
  4638 ;; Hardware stack levels required when called: 2
  4639 ;; This function calls:
  4640 ;;		i2_LCD_clearScreen
  4641 ;;		i2_LCD_customDelay_ms
  4642 ;;		i2_LCD_placeCursorInPosition
  4643 ;;		i2_LCD_print
  4644 ;; This function is called by:
  4645 ;;		_interrupt_service_routine
  4646 ;; This function uses a non-reentrant model
  4647 ;;
  4648                           
  4649                           	psect	text21
  4650  001CF6                     __ptext21:
  4651                           	callstack 0
  4652  001CF6                     i2_doorController_openingDoor:
  4653                           	callstack 23
  4654  001CF6                     
  4655                           ;./util.h: 198:    if (doorStatus != opened) {
  4656  001CF6  0E03               	movlw	3
  4657  001CF8  1844               	xorwf	_doorStatus^0,w,c
  4658  001CFA  B4D8               	btfsc	status,2,c
  4659  001CFC  EF82  F00E         	goto	i2u234_41
  4660  001D00  EF84  F00E         	goto	i2u234_40
  4661  001D04                     i2u234_41:
  4662  001D04  EFC5  F00E         	goto	i2l116
  4663  001D08                     i2u234_40:
  4664  001D08                     
  4665                           ;./util.h: 199:       LCD_clearScreen();
  4666  001D08  ECF8  F010         	call	i2_LCD_clearScreen	;wreg free
  4667  001D0C                     
  4668                           ;./util.h: 200:       LCD_placeCursorInPosition(0x81);
  4669  001D0C  0E81               	movlw	129
  4670  001D0E  ECD9  F010         	call	i2_LCD_placeCursorInPosition
  4671  001D12                     
  4672                           ;./util.h: 201:       LCD_print("Status:", 10);
  4673  001D12  0E70               	movlw	low STR_4
  4674  001D14  6E05               	movwf	i2LCD_print@text^0,c
  4675  001D16  0E08               	movlw	high STR_4
  4676  001D18  6E06               	movwf	(i2LCD_print@text+1)^0,c
  4677  001D1A  0E0A               	movlw	10
  4678  001D1C  6E07               	movwf	i2LCD_print@delay^0,c
  4679  001D1E  0E00               	movlw	0
  4680  001D20  6E08               	movwf	(i2LCD_print@delay+1)^0,c
  4681  001D22  0E00               	movlw	0
  4682  001D24  6E09               	movwf	(i2LCD_print@delay+2)^0,c
  4683  001D26  0E00               	movlw	0
  4684  001D28  6E0A               	movwf	(i2LCD_print@delay+3)^0,c
  4685  001D2A  EC52  F00F         	call	i2_LCD_print	;wreg free
  4686  001D2E                     
  4687                           ;./util.h: 203:       LCD_placeCursorInPosition(0xC3);
  4688  001D2E  0EC3               	movlw	195
  4689  001D30  ECD9  F010         	call	i2_LCD_placeCursorInPosition
  4690  001D34                     
  4691                           ;./util.h: 204:       LCD_print("Abrindo...", 10);
  4692  001D34  0E3E               	movlw	low STR_7
  4693  001D36  6E05               	movwf	i2LCD_print@text^0,c
  4694  001D38  0E08               	movlw	high STR_7
  4695  001D3A  6E06               	movwf	(i2LCD_print@text+1)^0,c
  4696  001D3C  0E0A               	movlw	10
  4697  001D3E  6E07               	movwf	i2LCD_print@delay^0,c
  4698  001D40  0E00               	movlw	0
  4699  001D42  6E08               	movwf	(i2LCD_print@delay+1)^0,c
  4700  001D44  0E00               	movlw	0
  4701  001D46  6E09               	movwf	(i2LCD_print@delay+2)^0,c
  4702  001D48  0E00               	movlw	0
  4703  001D4A  6E0A               	movwf	(i2LCD_print@delay+3)^0,c
  4704  001D4C  EC52  F00F         	call	i2_LCD_print	;wreg free
  4705  001D50                     
  4706                           ;./util.h: 205:       LCD_customDelay_ms(1500);
  4707  001D50  0EDC               	movlw	220
  4708  001D52  6E01               	movwf	i2LCD_customDelay_ms@ms^0,c
  4709  001D54  0E05               	movlw	5
  4710  001D56  6E02               	movwf	(i2LCD_customDelay_ms@ms+1)^0,c
  4711  001D58  0E00               	movlw	0
  4712  001D5A  6E03               	movwf	(i2LCD_customDelay_ms@ms+2)^0,c
  4713  001D5C  0E00               	movlw	0
  4714  001D5E  6E04               	movwf	(i2LCD_customDelay_ms@ms+3)^0,c
  4715  001D60  EC91  F010         	call	i2_LCD_customDelay_ms	;wreg free
  4716  001D64                     
  4717                           ;./util.h: 207:       LCD_placeCursorInPosition(0xC3);
  4718  001D64  0EC3               	movlw	195
  4719  001D66  ECD9  F010         	call	i2_LCD_placeCursorInPosition
  4720  001D6A                     
  4721                           ;./util.h: 208:       LCD_print("Aberta    ", 10);
  4722  001D6A  0E33               	movlw	low STR_8
  4723  001D6C  6E05               	movwf	i2LCD_print@text^0,c
  4724  001D6E  0E08               	movlw	high STR_8
  4725  001D70  6E06               	movwf	(i2LCD_print@text+1)^0,c
  4726  001D72  0E0A               	movlw	10
  4727  001D74  6E07               	movwf	i2LCD_print@delay^0,c
  4728  001D76  0E00               	movlw	0
  4729  001D78  6E08               	movwf	(i2LCD_print@delay+1)^0,c
  4730  001D7A  0E00               	movlw	0
  4731  001D7C  6E09               	movwf	(i2LCD_print@delay+2)^0,c
  4732  001D7E  0E00               	movlw	0
  4733  001D80  6E0A               	movwf	(i2LCD_print@delay+3)^0,c
  4734  001D82  EC52  F00F         	call	i2_LCD_print	;wreg free
  4735  001D86                     
  4736                           ;./util.h: 210:       doorStatus = opened;
  4737  001D86  0E03               	movlw	3
  4738  001D88  6E44               	movwf	_doorStatus^0,c
  4739  001D8A                     i2l116:
  4740  001D8A  0004               	clrwdt		;# 
  4741  001D8C  0012               	return		;funcret
  4742  001D8E                     __end_ofi2_doorController_openingDoor:
  4743                           	callstack 0
  4744                           
  4745 ;; *************** function i2_doorController_closingDoor *****************
  4746 ;; Defined at:
  4747 ;;		line 218 in file "./util.h"
  4748 ;; Parameters:    Size  Location     Type
  4749 ;;		None
  4750 ;; Auto vars:     Size  Location     Type
  4751 ;;		None
  4752 ;; Return value:  Size  Location     Type
  4753 ;;                  1    wreg      void 
  4754 ;; Registers used:
  4755 ;;		wreg, status,2, status,0, tblptrl, tblptrh, tblptru, cstack
  4756 ;; Tracked objects:
  4757 ;;		On entry : 0/0
  4758 ;;		On exit  : 0/0
  4759 ;;		Unchanged: 0/0
  4760 ;; Data sizes:     COMRAM   BANK0   BANK1   BANK2   BANK3   BANK4   BANK5   BANK6   BANK7
  4761 ;;      Params:         0       0       0       0       0       0       0       0       0
  4762 ;;      Locals:         0       0       0       0       0       0       0       0       0
  4763 ;;      Temps:          0       0       0       0       0       0       0       0       0
  4764 ;;      Totals:         0       0       0       0       0       0       0       0       0
  4765 ;;Total ram usage:        0 bytes
  4766 ;; Hardware stack levels used: 1
  4767 ;; Hardware stack levels required when called: 2
  4768 ;; This function calls:
  4769 ;;		i2_LCD_clearScreen
  4770 ;;		i2_LCD_customDelay_ms
  4771 ;;		i2_LCD_placeCursorInPosition
  4772 ;;		i2_LCD_print
  4773 ;; This function is called by:
  4774 ;;		_interrupt_service_routine
  4775 ;; This function uses a non-reentrant model
  4776 ;;
  4777                           
  4778                           	psect	text22
  4779  001D8E                     __ptext22:
  4780                           	callstack 0
  4781  001D8E                     i2_doorController_closingDoor:
  4782                           	callstack 23
  4783  001D8E                     
  4784                           ;./util.h: 220:    if (doorStatus != closed) {
  4785  001D8E  0E04               	movlw	4
  4786  001D90  1844               	xorwf	_doorStatus^0,w,c
  4787  001D92  B4D8               	btfsc	status,2,c
  4788  001D94  EFCE  F00E         	goto	i2u235_41
  4789  001D98  EFD0  F00E         	goto	i2u235_40
  4790  001D9C                     i2u235_41:
  4791  001D9C  EF11  F00F         	goto	i2l120
  4792  001DA0                     i2u235_40:
  4793  001DA0                     
  4794                           ;./util.h: 221:       LCD_clearScreen();
  4795  001DA0  ECF8  F010         	call	i2_LCD_clearScreen	;wreg free
  4796  001DA4                     
  4797                           ;./util.h: 222:       LCD_placeCursorInPosition(0x81);
  4798  001DA4  0E81               	movlw	129
  4799  001DA6  ECD9  F010         	call	i2_LCD_placeCursorInPosition
  4800  001DAA                     
  4801                           ;./util.h: 223:       LCD_print("Status:", 10);
  4802  001DAA  0E70               	movlw	low STR_4
  4803  001DAC  6E05               	movwf	i2LCD_print@text^0,c
  4804  001DAE  0E08               	movlw	high STR_4
  4805  001DB0  6E06               	movwf	(i2LCD_print@text+1)^0,c
  4806  001DB2  0E0A               	movlw	10
  4807  001DB4  6E07               	movwf	i2LCD_print@delay^0,c
  4808  001DB6  0E00               	movlw	0
  4809  001DB8  6E08               	movwf	(i2LCD_print@delay+1)^0,c
  4810  001DBA  0E00               	movlw	0
  4811  001DBC  6E09               	movwf	(i2LCD_print@delay+2)^0,c
  4812  001DBE  0E00               	movlw	0
  4813  001DC0  6E0A               	movwf	(i2LCD_print@delay+3)^0,c
  4814  001DC2  EC52  F00F         	call	i2_LCD_print	;wreg free
  4815  001DC6                     
  4816                           ;./util.h: 225:       LCD_placeCursorInPosition(0xC3);
  4817  001DC6  0EC3               	movlw	195
  4818  001DC8  ECD9  F010         	call	i2_LCD_placeCursorInPosition
  4819  001DCC                     
  4820                           ;./util.h: 226:       LCD_print("Fechando...", 10);
  4821  001DCC  0E1B               	movlw	low STR_10
  4822  001DCE  6E05               	movwf	i2LCD_print@text^0,c
  4823  001DD0  0E08               	movlw	high STR_10
  4824  001DD2  6E06               	movwf	(i2LCD_print@text+1)^0,c
  4825  001DD4  0E0A               	movlw	10
  4826  001DD6  6E07               	movwf	i2LCD_print@delay^0,c
  4827  001DD8  0E00               	movlw	0
  4828  001DDA  6E08               	movwf	(i2LCD_print@delay+1)^0,c
  4829  001DDC  0E00               	movlw	0
  4830  001DDE  6E09               	movwf	(i2LCD_print@delay+2)^0,c
  4831  001DE0  0E00               	movlw	0
  4832  001DE2  6E0A               	movwf	(i2LCD_print@delay+3)^0,c
  4833  001DE4  EC52  F00F         	call	i2_LCD_print	;wreg free
  4834  001DE8                     
  4835                           ;./util.h: 227:       LCD_customDelay_ms(1500);
  4836  001DE8  0EDC               	movlw	220
  4837  001DEA  6E01               	movwf	i2LCD_customDelay_ms@ms^0,c
  4838  001DEC  0E05               	movlw	5
  4839  001DEE  6E02               	movwf	(i2LCD_customDelay_ms@ms+1)^0,c
  4840  001DF0  0E00               	movlw	0
  4841  001DF2  6E03               	movwf	(i2LCD_customDelay_ms@ms+2)^0,c
  4842  001DF4  0E00               	movlw	0
  4843  001DF6  6E04               	movwf	(i2LCD_customDelay_ms@ms+3)^0,c
  4844  001DF8  EC91  F010         	call	i2_LCD_customDelay_ms	;wreg free
  4845  001DFC                     
  4846                           ;./util.h: 229:       LCD_placeCursorInPosition(0xC3);
  4847  001DFC  0EC3               	movlw	195
  4848  001DFE  ECD9  F010         	call	i2_LCD_placeCursorInPosition
  4849  001E02                     
  4850                           ;./util.h: 230:       LCD_print("Fechada    ", 10);
  4851  001E02  0E0F               	movlw	low STR_5
  4852  001E04  6E05               	movwf	i2LCD_print@text^0,c
  4853  001E06  0E08               	movlw	high STR_5
  4854  001E08  6E06               	movwf	(i2LCD_print@text+1)^0,c
  4855  001E0A  0E0A               	movlw	10
  4856  001E0C  6E07               	movwf	i2LCD_print@delay^0,c
  4857  001E0E  0E00               	movlw	0
  4858  001E10  6E08               	movwf	(i2LCD_print@delay+1)^0,c
  4859  001E12  0E00               	movlw	0
  4860  001E14  6E09               	movwf	(i2LCD_print@delay+2)^0,c
  4861  001E16  0E00               	movlw	0
  4862  001E18  6E0A               	movwf	(i2LCD_print@delay+3)^0,c
  4863  001E1A  EC52  F00F         	call	i2_LCD_print	;wreg free
  4864  001E1E                     
  4865                           ;./util.h: 232:       doorStatus = closed;
  4866  001E1E  0E04               	movlw	4
  4867  001E20  6E44               	movwf	_doorStatus^0,c
  4868  001E22                     i2l120:
  4869  001E22  0004               	clrwdt		;# 
  4870  001E24  0012               	return		;funcret
  4871  001E26                     __end_ofi2_doorController_closingDoor:
  4872                           	callstack 0
  4873                           
  4874 ;; *************** function _doorController_invasion *****************
  4875 ;; Defined at:
  4876 ;;		line 257 in file "./util.h"
  4877 ;; Parameters:    Size  Location     Type
  4878 ;;		None
  4879 ;; Auto vars:     Size  Location     Type
  4880 ;;		None
  4881 ;; Return value:  Size  Location     Type
  4882 ;;                  1    wreg      void 
  4883 ;; Registers used:
  4884 ;;		wreg, status,2, status,0, tblptrl, tblptrh, tblptru, cstack
  4885 ;; Tracked objects:
  4886 ;;		On entry : 0/0
  4887 ;;		On exit  : 0/0
  4888 ;;		Unchanged: 0/0
  4889 ;; Data sizes:     COMRAM   BANK0   BANK1   BANK2   BANK3   BANK4   BANK5   BANK6   BANK7
  4890 ;;      Params:         0       0       0       0       0       0       0       0       0
  4891 ;;      Locals:         0       0       0       0       0       0       0       0       0
  4892 ;;      Temps:          0       0       0       0       0       0       0       0       0
  4893 ;;      Totals:         0       0       0       0       0       0       0       0       0
  4894 ;;Total ram usage:        0 bytes
  4895 ;; Hardware stack levels used: 1
  4896 ;; Hardware stack levels required when called: 2
  4897 ;; This function calls:
  4898 ;;		i2_LCD_clearScreen
  4899 ;;		i2_LCD_placeCursorInPosition
  4900 ;;		i2_LCD_print
  4901 ;; This function is called by:
  4902 ;;		_interrupt_service_routine
  4903 ;; This function uses a non-reentrant model
  4904 ;;
  4905                           
  4906                           	psect	text23
  4907  001F8E                     __ptext23:
  4908                           	callstack 0
  4909  001F8E                     _doorController_invasion:
  4910                           	callstack 23
  4911  001F8E                     
  4912                           ;./util.h: 259:    LCD_clearScreen();
  4913  001F8E  ECF8  F010         	call	i2_LCD_clearScreen	;wreg free
  4914  001F92                     
  4915                           ;./util.h: 260:    LCD_placeCursorInPosition(0xC1);
  4916  001F92  0EC1               	movlw	193
  4917  001F94  ECD9  F010         	call	i2_LCD_placeCursorInPosition
  4918  001F98                     
  4919                           ;./util.h: 261:    LCD_print("INVASAO!", 10);
  4920  001F98  0E5E               	movlw	low STR_14
  4921  001F9A  6E05               	movwf	i2LCD_print@text^0,c
  4922  001F9C  0E08               	movlw	high STR_14
  4923  001F9E  6E06               	movwf	(i2LCD_print@text+1)^0,c
  4924  001FA0  0E0A               	movlw	10
  4925  001FA2  6E07               	movwf	i2LCD_print@delay^0,c
  4926  001FA4  0E00               	movlw	0
  4927  001FA6  6E08               	movwf	(i2LCD_print@delay+1)^0,c
  4928  001FA8  0E00               	movlw	0
  4929  001FAA  6E09               	movwf	(i2LCD_print@delay+2)^0,c
  4930  001FAC  0E00               	movlw	0
  4931  001FAE  6E0A               	movwf	(i2LCD_print@delay+3)^0,c
  4932  001FB0  EC52  F00F         	call	i2_LCD_print	;wreg free
  4933  001FB4                     
  4934                           ;./util.h: 263:    LCD_placeCursorInPosition(0x91);
  4935  001FB4  0E91               	movlw	145
  4936  001FB6  ECD9  F010         	call	i2_LCD_placeCursorInPosition
  4937  001FBA                     
  4938                           ;./util.h: 264:    LCD_print("Emergencia", 10);
  4939  001FBA  0E49               	movlw	low STR_13
  4940  001FBC  6E05               	movwf	i2LCD_print@text^0,c
  4941  001FBE  0E08               	movlw	high STR_13
  4942  001FC0  6E06               	movwf	(i2LCD_print@text+1)^0,c
  4943  001FC2  0E0A               	movlw	10
  4944  001FC4  6E07               	movwf	i2LCD_print@delay^0,c
  4945  001FC6  0E00               	movlw	0
  4946  001FC8  6E08               	movwf	(i2LCD_print@delay+1)^0,c
  4947  001FCA  0E00               	movlw	0
  4948  001FCC  6E09               	movwf	(i2LCD_print@delay+2)^0,c
  4949  001FCE  0E00               	movlw	0
  4950  001FD0  6E0A               	movwf	(i2LCD_print@delay+3)^0,c
  4951  001FD2  EC52  F00F         	call	i2_LCD_print	;wreg free
  4952  001FD6                     
  4953                           ;./util.h: 266:    doorStatus = invasion;
  4954  001FD6  0E02               	movlw	2
  4955  001FD8  6E44               	movwf	_doorStatus^0,c
  4956  001FDA  0004               	clrwdt		;# 
  4957  001FDC  0012               	return		;funcret
  4958  001FDE                     __end_of_doorController_invasion:
  4959                           	callstack 0
  4960                           
  4961 ;; *************** function _doorController_fire *****************
  4962 ;; Defined at:
  4963 ;;		line 240 in file "./util.h"
  4964 ;; Parameters:    Size  Location     Type
  4965 ;;		None
  4966 ;; Auto vars:     Size  Location     Type
  4967 ;;		None
  4968 ;; Return value:  Size  Location     Type
  4969 ;;                  1    wreg      void 
  4970 ;; Registers used:
  4971 ;;		wreg, status,2, status,0, tblptrl, tblptrh, tblptru, cstack
  4972 ;; Tracked objects:
  4973 ;;		On entry : 0/0
  4974 ;;		On exit  : 0/0
  4975 ;;		Unchanged: 0/0
  4976 ;; Data sizes:     COMRAM   BANK0   BANK1   BANK2   BANK3   BANK4   BANK5   BANK6   BANK7
  4977 ;;      Params:         0       0       0       0       0       0       0       0       0
  4978 ;;      Locals:         0       0       0       0       0       0       0       0       0
  4979 ;;      Temps:          0       0       0       0       0       0       0       0       0
  4980 ;;      Totals:         0       0       0       0       0       0       0       0       0
  4981 ;;Total ram usage:        0 bytes
  4982 ;; Hardware stack levels used: 1
  4983 ;; Hardware stack levels required when called: 2
  4984 ;; This function calls:
  4985 ;;		i2_LCD_clearScreen
  4986 ;;		i2_LCD_placeCursorInPosition
  4987 ;;		i2_LCD_print
  4988 ;; This function is called by:
  4989 ;;		_interrupt_service_routine
  4990 ;; This function uses a non-reentrant model
  4991 ;;
  4992                           
  4993                           	psect	text24
  4994  001FDE                     __ptext24:
  4995                           	callstack 0
  4996  001FDE                     _doorController_fire:
  4997                           	callstack 23
  4998  001FDE                     
  4999                           ;./util.h: 242:    LCD_clearScreen();
  5000  001FDE  ECF8  F010         	call	i2_LCD_clearScreen	;wreg free
  5001  001FE2                     
  5002                           ;./util.h: 243:    LCD_placeCursorInPosition(0xC1);
  5003  001FE2  0EC1               	movlw	193
  5004  001FE4  ECD9  F010         	call	i2_LCD_placeCursorInPosition
  5005  001FE8                     
  5006                           ;./util.h: 244:    LCD_print("INCENDIO!", 10);
  5007  001FE8  0E54               	movlw	low STR_12
  5008  001FEA  6E05               	movwf	i2LCD_print@text^0,c
  5009  001FEC  0E08               	movlw	high STR_12
  5010  001FEE  6E06               	movwf	(i2LCD_print@text+1)^0,c
  5011  001FF0  0E0A               	movlw	10
  5012  001FF2  6E07               	movwf	i2LCD_print@delay^0,c
  5013  001FF4  0E00               	movlw	0
  5014  001FF6  6E08               	movwf	(i2LCD_print@delay+1)^0,c
  5015  001FF8  0E00               	movlw	0
  5016  001FFA  6E09               	movwf	(i2LCD_print@delay+2)^0,c
  5017  001FFC  0E00               	movlw	0
  5018  001FFE  6E0A               	movwf	(i2LCD_print@delay+3)^0,c
  5019  002000  EC52  F00F         	call	i2_LCD_print	;wreg free
  5020  002004                     
  5021                           ;./util.h: 246:    LCD_placeCursorInPosition(0x91);
  5022  002004  0E91               	movlw	145
  5023  002006  ECD9  F010         	call	i2_LCD_placeCursorInPosition
  5024  00200A                     
  5025                           ;./util.h: 247:    LCD_print("Emergencia", 10);
  5026  00200A  0E49               	movlw	low STR_13
  5027  00200C  6E05               	movwf	i2LCD_print@text^0,c
  5028  00200E  0E08               	movlw	high STR_13
  5029  002010  6E06               	movwf	(i2LCD_print@text+1)^0,c
  5030  002012  0E0A               	movlw	10
  5031  002014  6E07               	movwf	i2LCD_print@delay^0,c
  5032  002016  0E00               	movlw	0
  5033  002018  6E08               	movwf	(i2LCD_print@delay+1)^0,c
  5034  00201A  0E00               	movlw	0
  5035  00201C  6E09               	movwf	(i2LCD_print@delay+2)^0,c
  5036  00201E  0E00               	movlw	0
  5037  002020  6E0A               	movwf	(i2LCD_print@delay+3)^0,c
  5038  002022  EC52  F00F         	call	i2_LCD_print	;wreg free
  5039  002026                     
  5040                           ;./util.h: 249:    doorStatus = fire;
  5041  002026  0E01               	movlw	1
  5042  002028  6E44               	movwf	_doorStatus^0,c
  5043  00202A  0004               	clrwdt		;# 
  5044  00202C  0012               	return		;funcret
  5045  00202E                     __end_of_doorController_fire:
  5046                           	callstack 0
  5047                           
  5048 ;; *************** function i2_LCD_print *****************
  5049 ;; Defined at:
  5050 ;;		line 73 in file "./lcd.h"
  5051 ;; Parameters:    Size  Location     Type
  5052 ;;  text            2    4[COMRAM] PTR unsigned char 
  5053 ;;		 -> STR_15(11), STR_14(9), STR_13(11), STR_12(10), 
  5054 ;;		 -> STR_11(12), STR_10(12), STR_9(8), STR_8(11), 
  5055 ;;		 -> STR_7(11), STR_6(8), STR_5(12), STR_4(8), 
  5056 ;;		 -> STR_3(9), STR_2(12), STR_1(14), 
  5057 ;;  delay           4    6[COMRAM] long 
  5058 ;; Auto vars:     Size  Location     Type
  5059 ;;  i               2   14[COMRAM] int 
  5060 ;;  length          2   12[COMRAM] int 
  5061 ;; Return value:  Size  Location     Type
  5062 ;;                  1    wreg      void 
  5063 ;; Registers used:
  5064 ;;		wreg, status,2, status,0, tblptrl, tblptrh, tblptru, cstack
  5065 ;; Tracked objects:
  5066 ;;		On entry : 0/0
  5067 ;;		On exit  : 0/0
  5068 ;;		Unchanged: 0/0
  5069 ;; Data sizes:     COMRAM   BANK0   BANK1   BANK2   BANK3   BANK4   BANK5   BANK6   BANK7
  5070 ;;      Params:         6       0       0       0       0       0       0       0       0
  5071 ;;      Locals:         4       0       0       0       0       0       0       0       0
  5072 ;;      Temps:          2       0       0       0       0       0       0       0       0
  5073 ;;      Totals:        12       0       0       0       0       0       0       0       0
  5074 ;;Total ram usage:       12 bytes
  5075 ;; Hardware stack levels used: 1
  5076 ;; Hardware stack levels required when called: 1
  5077 ;; This function calls:
  5078 ;;		i2_LCD_customDelay_ms
  5079 ;;		i2_strlen
  5080 ;; This function is called by:
  5081 ;;		_doorController_fire
  5082 ;;		_doorController_invasion
  5083 ;;		i2_doorController_openingDoor
  5084 ;;		i2_doorController_closingDoor
  5085 ;; This function uses a non-reentrant model
  5086 ;;
  5087                           
  5088                           	psect	text25
  5089  001EA4                     __ptext25:
  5090                           	callstack 0
  5091  001EA4                     i2_LCD_print:
  5092                           	callstack 23
  5093  001EA4                     
  5094                           ;./lcd.h: 73: void LCD_print(char text[], long delay);./lcd.h: 74: {;./lcd.h: 75:    int
      +                           i, length;;./lcd.h: 76:    length = (int) strlen(text);
  5095  001EA4  C005  F001         	movff	i2LCD_print@text,i2strlen@s
  5096  001EA8  C006  F002         	movff	i2LCD_print@text+1,i2strlen@s+1
  5097  001EAC  EC74  F010         	call	i2_strlen	;wreg free
  5098  001EB0  C001  F00D         	movff	?i2_strlen,i2LCD_print@length
  5099  001EB4  C002  F00E         	movff	?i2_strlen+1,i2LCD_print@length+1
  5100  001EB8                     
  5101                           ;./lcd.h: 77:    for (i = 0; i < length; i++) {
  5102  001EB8  0E00               	movlw	0
  5103  001EBA  6E10               	movwf	(i2LCD_print@i+1)^0,c
  5104  001EBC  0E00               	movlw	0
  5105  001EBE  6E0F               	movwf	i2LCD_print@i^0,c
  5106  001EC0  EF81  F00F         	goto	i2l2146
  5107  001EC4                     i2l67:
  5108                           
  5109                           ;./lcd.h: 78:       PORTEbits.RE1 = 1;
  5110  001EC4  8284               	bsf	132,1,c	;volatile
  5111  001EC6                     
  5112                           ;./lcd.h: 79:       PORTD = text[i];
  5113  001EC6  500F               	movf	i2LCD_print@i^0,w,c
  5114  001EC8  2405               	addwf	i2LCD_print@text^0,w,c
  5115  001ECA  6E0B               	movwf	??i2_LCD_print^0,c
  5116  001ECC  5010               	movf	(i2LCD_print@i+1)^0,w,c
  5117  001ECE  2006               	addwfc	(i2LCD_print@text+1)^0,w,c
  5118  001ED0  6E0C               	movwf	(??i2_LCD_print+1)^0,c
  5119  001ED2  C00B  FFF6         	movff	??i2_LCD_print,tblptrl
  5120  001ED6  C00C  FFF7         	movff	??i2_LCD_print+1,tblptrh
  5121  001EDA                     	if	0	;tblptru may be non-zero
  5122  001EDA                     	endif
  5123  001EDA                     	if	0	;tblptru may be non-zero
  5124  001EDA                     	endif
  5125  001EDA  0008               	tblrd		*
  5126  001EDC  CFF5 FF83          	movff	tablat,3971	;volatile
  5127  001EE0                     
  5128                           ;./lcd.h: 80:       LCD_customDelay_ms(delay);
  5129  001EE0  C007  F001         	movff	i2LCD_print@delay,i2LCD_customDelay_ms@ms
  5130  001EE4  C008  F002         	movff	i2LCD_print@delay+1,i2LCD_customDelay_ms@ms+1
  5131  001EE8  C009  F003         	movff	i2LCD_print@delay+2,i2LCD_customDelay_ms@ms+2
  5132  001EEC  C00A  F004         	movff	i2LCD_print@delay+3,i2LCD_customDelay_ms@ms+3
  5133  001EF0  EC91  F010         	call	i2_LCD_customDelay_ms	;wreg free
  5134  001EF4                     
  5135                           ;./lcd.h: 82:       PORTEbits.RE1 = 0;
  5136  001EF4  9284               	bcf	132,1,c	;volatile
  5137  001EF6                     
  5138                           ;./lcd.h: 83:       _delay((unsigned long)((50)*(4000000/4000000.0)));
  5139  001EF6  0E10               	movlw	16
  5140  001EF8                     i2u309_47:
  5141  001EF8  2EE8               	decfsz	wreg,f,c
  5142  001EFA  D7FE               	bra	i2u309_47
  5143  001EFC  D000               	nop2	
  5144  001EFE                     
  5145                           ;./lcd.h: 84:    }
  5146  001EFE  4A0F               	infsnz	i2LCD_print@i^0,f,c
  5147  001F00  2A10               	incf	(i2LCD_print@i+1)^0,f,c
  5148  001F02                     i2l2146:
  5149  001F02  500D               	movf	i2LCD_print@length^0,w,c
  5150  001F04  5C0F               	subwf	i2LCD_print@i^0,w,c
  5151  001F06  5010               	movf	(i2LCD_print@i+1)^0,w,c
  5152  001F08  0A80               	xorlw	128
  5153  001F0A  6E0B               	movwf	??i2_LCD_print^0,c
  5154  001F0C  500E               	movf	(i2LCD_print@length+1)^0,w,c
  5155  001F0E  0A80               	xorlw	128
  5156  001F10  580B               	subwfb	??i2_LCD_print^0,w,c
  5157  001F12  A0D8               	btfss	status,0,c
  5158  001F14  EF8E  F00F         	goto	i2u171_41
  5159  001F18  EF90  F00F         	goto	i2u171_40
  5160  001F1C                     i2u171_41:
  5161  001F1C  EF62  F00F         	goto	i2l67
  5162  001F20                     i2u171_40:
  5163  001F20  0012               	return		;funcret
  5164  001F22                     __end_ofi2_LCD_print:
  5165                           	callstack 0
  5166                           
  5167 ;; *************** function i2_strlen *****************
  5168 ;; Defined at:
  5169 ;;		line 5 in file "C:\Program Files\Microchip\xc8\v2.32\pic\sources\c99\common\strlen.c"
  5170 ;; Parameters:    Size  Location     Type
  5171 ;;  s               2    0[COMRAM] PTR const unsigned char 
  5172 ;;		 -> STR_15(11), STR_14(9), STR_13(11), STR_12(10), 
  5173 ;;		 -> STR_11(12), STR_10(12), STR_9(8), STR_8(11), 
  5174 ;;		 -> STR_7(11), STR_6(8), STR_5(12), STR_4(8), 
  5175 ;;		 -> STR_3(9), STR_2(12), STR_1(14), 
  5176 ;; Auto vars:     Size  Location     Type
  5177 ;;  a               2    2[COMRAM] PTR const unsigned char 
  5178 ;;		 -> STR_15(11), STR_14(9), STR_13(11), STR_12(10), 
  5179 ;;		 -> STR_11(12), STR_10(12), STR_9(8), STR_8(11), 
  5180 ;;		 -> STR_7(11), STR_6(8), STR_5(12), STR_4(8), 
  5181 ;;		 -> STR_3(9), STR_2(12), STR_1(14), 
  5182 ;; Return value:  Size  Location     Type
  5183 ;;                  2    0[COMRAM] unsigned int 
  5184 ;; Registers used:
  5185 ;;		wreg, status,2, status,0, tblptrl, tblptrh, tblptru
  5186 ;; Tracked objects:
  5187 ;;		On entry : 0/0
  5188 ;;		On exit  : 0/0
  5189 ;;		Unchanged: 0/0
  5190 ;; Data sizes:     COMRAM   BANK0   BANK1   BANK2   BANK3   BANK4   BANK5   BANK6   BANK7
  5191 ;;      Params:         2       0       0       0       0       0       0       0       0
  5192 ;;      Locals:         2       0       0       0       0       0       0       0       0
  5193 ;;      Temps:          0       0       0       0       0       0       0       0       0
  5194 ;;      Totals:         4       0       0       0       0       0       0       0       0
  5195 ;;Total ram usage:        4 bytes
  5196 ;; Hardware stack levels used: 1
  5197 ;; This function calls:
  5198 ;;		Nothing
  5199 ;; This function is called by:
  5200 ;;		i2_LCD_print
  5201 ;; This function uses a non-reentrant model
  5202 ;;
  5203                           
  5204                           	psect	text26
  5205  0020E8                     __ptext26:
  5206                           	callstack 0
  5207  0020E8                     i2_strlen:
  5208                           	callstack 23
  5209  0020E8  C001  F003         	movff	i2strlen@s,i2strlen@a
  5210  0020EC  C002  F004         	movff	i2strlen@s+1,i2strlen@a+1
  5211  0020F0  EF7C  F010         	goto	i2l1852
  5212  0020F4                     i2l1850:
  5213  0020F4  4A01               	infsnz	i2strlen@s^0,f,c
  5214  0020F6  2A02               	incf	(i2strlen@s+1)^0,f,c
  5215  0020F8                     i2l1852:
  5216  0020F8  C001  FFF6         	movff	i2strlen@s,tblptrl
  5217  0020FC  C002  FFF7         	movff	i2strlen@s+1,tblptrh
  5218  002100                     	if	0	;tblptru may be non-zero
  5219  002100                     	endif
  5220  002100                     	if	0	;tblptru may be non-zero
  5221  002100                     	endif
  5222  002100  0008               	tblrd		*
  5223  002102  50F5               	movf	tablat,w,c
  5224  002104  0900               	iorlw	0
  5225  002106  A4D8               	btfss	status,2,c
  5226  002108  EF88  F010         	goto	i2u129_41
  5227  00210C  EF8A  F010         	goto	i2u129_40
  5228  002110                     i2u129_41:
  5229  002110  EF7A  F010         	goto	i2l1850
  5230  002114                     i2u129_40:
  5231  002114  5003               	movf	i2strlen@a^0,w,c
  5232  002116  5C01               	subwf	i2strlen@s^0,w,c
  5233  002118  6E01               	movwf	?i2_strlen^0,c
  5234  00211A  5004               	movf	(i2strlen@a+1)^0,w,c
  5235  00211C  5802               	subwfb	(i2strlen@s+1)^0,w,c
  5236  00211E  6E02               	movwf	(?i2_strlen+1)^0,c
  5237  002120  0012               	return		;funcret
  5238  002122                     __end_ofi2_strlen:
  5239                           	callstack 0
  5240                           
  5241 ;; *************** function i2_LCD_customDelay_ms *****************
  5242 ;; Defined at:
  5243 ;;		line 66 in file "./lcd.h"
  5244 ;; Parameters:    Size  Location     Type
  5245 ;;  ms              4    0[COMRAM] long 
  5246 ;; Auto vars:     Size  Location     Type
  5247 ;;		None
  5248 ;; Return value:  Size  Location     Type
  5249 ;;                  1    wreg      void 
  5250 ;; Registers used:
  5251 ;;		wreg, status,2, status,0
  5252 ;; Tracked objects:
  5253 ;;		On entry : 0/0
  5254 ;;		On exit  : 0/0
  5255 ;;		Unchanged: 0/0
  5256 ;; Data sizes:     COMRAM   BANK0   BANK1   BANK2   BANK3   BANK4   BANK5   BANK6   BANK7
  5257 ;;      Params:         4       0       0       0       0       0       0       0       0
  5258 ;;      Locals:         0       0       0       0       0       0       0       0       0
  5259 ;;      Temps:          0       0       0       0       0       0       0       0       0
  5260 ;;      Totals:         4       0       0       0       0       0       0       0       0
  5261 ;;Total ram usage:        4 bytes
  5262 ;; Hardware stack levels used: 1
  5263 ;; This function calls:
  5264 ;;		Nothing
  5265 ;; This function is called by:
  5266 ;;		i2_LCD_print
  5267 ;;		i2_doorController_openingDoor
  5268 ;;		i2_doorController_closingDoor
  5269 ;; This function uses a non-reentrant model
  5270 ;;
  5271                           
  5272                           	psect	text27
  5273  002122                     __ptext27:
  5274                           	callstack 0
  5275  002122                     i2_LCD_customDelay_ms:
  5276                           	callstack 23
  5277  002122                     
  5278                           ;./lcd.h: 66: void LCD_customDelay_ms(long ms);./lcd.h: 67: {;./lcd.h: 68:    while (ms-
      +                          -) {
  5279  002122  EF97  F010         	goto	i2l1846
  5280  002126                     i2l1844:
  5281                           
  5282                           ;./lcd.h: 69:       _delay((unsigned long)((1)*(4000000/4000.0)));
  5283  002126  0EC8               	movlw	200
  5284  002128                     i2u310_47:
  5285  002128  D000               	nop2	
  5286  00212A  2EE8               	decfsz	wreg,f,c
  5287  00212C  D7FD               	bra	i2u310_47
  5288  00212E                     i2l1846:
  5289                           
  5290                           ;./lcd.h: 68:    while (ms--) {
  5291  00212E  0EFF               	movlw	255
  5292  002130  2601               	addwf	i2LCD_customDelay_ms@ms^0,f,c
  5293  002132  0EFF               	movlw	255
  5294  002134  2202               	addwfc	(i2LCD_customDelay_ms@ms+1)^0,f,c
  5295  002136  0EFF               	movlw	255
  5296  002138  2203               	addwfc	(i2LCD_customDelay_ms@ms+2)^0,f,c
  5297  00213A  0EFF               	movlw	255
  5298  00213C  2204               	addwfc	(i2LCD_customDelay_ms@ms+3)^0,f,c
  5299  00213E  2801               	incf	i2LCD_customDelay_ms@ms^0,w,c
  5300  002140  E10A               	bnz	i2u128_41
  5301  002142  2802               	incf	(i2LCD_customDelay_ms@ms+1)^0,w,c
  5302  002144  E108               	bnz	i2u128_41
  5303  002146  2803               	incf	(i2LCD_customDelay_ms@ms+2)^0,w,c
  5304  002148  E106               	bnz	i2u128_41
  5305  00214A  2804               	incf	(i2LCD_customDelay_ms@ms+3)^0,w,c
  5306  00214C  A4D8               	btfss	status,2,c
  5307  00214E  EFAB  F010         	goto	i2u128_41
  5308  002152  EFAD  F010         	goto	i2u128_40
  5309  002156                     i2u128_41:
  5310  002156  EF93  F010         	goto	i2l1844
  5311  00215A                     i2u128_40:
  5312  00215A  0012               	return		;funcret
  5313  00215C                     __end_ofi2_LCD_customDelay_ms:
  5314                           	callstack 0
  5315                           
  5316 ;; *************** function i2_LCD_placeCursorInPosition *****************
  5317 ;; Defined at:
  5318 ;;		line 55 in file "./lcd.h"
  5319 ;; Parameters:    Size  Location     Type
  5320 ;;  position        1    wreg     unsigned char 
  5321 ;; Auto vars:     Size  Location     Type
  5322 ;;  position        1    0[COMRAM] unsigned char 
  5323 ;; Return value:  Size  Location     Type
  5324 ;;                  1    wreg      void 
  5325 ;; Registers used:
  5326 ;;		wreg
  5327 ;; Tracked objects:
  5328 ;;		On entry : 0/0
  5329 ;;		On exit  : 0/0
  5330 ;;		Unchanged: 0/0
  5331 ;; Data sizes:     COMRAM   BANK0   BANK1   BANK2   BANK3   BANK4   BANK5   BANK6   BANK7
  5332 ;;      Params:         0       0       0       0       0       0       0       0       0
  5333 ;;      Locals:         1       0       0       0       0       0       0       0       0
  5334 ;;      Temps:          0       0       0       0       0       0       0       0       0
  5335 ;;      Totals:         1       0       0       0       0       0       0       0       0
  5336 ;;Total ram usage:        1 bytes
  5337 ;; Hardware stack levels used: 1
  5338 ;; This function calls:
  5339 ;;		Nothing
  5340 ;; This function is called by:
  5341 ;;		_doorController_fire
  5342 ;;		_doorController_invasion
  5343 ;;		i2_doorController_openingDoor
  5344 ;;		i2_doorController_closingDoor
  5345 ;; This function uses a non-reentrant model
  5346 ;;
  5347                           
  5348                           	psect	text28
  5349  0021B2                     __ptext28:
  5350                           	callstack 0
  5351  0021B2                     i2_LCD_placeCursorInPosition:
  5352                           	callstack 24
  5353                           
  5354                           ;incstack = 0
  5355                           ;i2LCD_placeCursorInPosition@position stored from wreg
  5356  0021B2  6E01               	movwf	i2LCD_placeCursorInPosition@position^0,c
  5357  0021B4                     
  5358                           ;./lcd.h: 55: void LCD_placeCursorInPosition(char position);./lcd.h: 56: {;./lcd.h: 57: 
      +                             PORTEbits.RE2 = 0;
  5359  0021B4  9484               	bcf	132,2,c	;volatile
  5360                           
  5361                           ;./lcd.h: 58:    PORTEbits.RE1 = 1;
  5362  0021B6  8284               	bsf	132,1,c	;volatile
  5363  0021B8                     
  5364                           ;./lcd.h: 59:    PORTD = position;
  5365  0021B8  C001  FF83         	movff	i2LCD_placeCursorInPosition@position,3971	;volatile
  5366  0021BC                     
  5367                           ;./lcd.h: 60:    _delay((unsigned long)((50)*(4000000/4000000.0)));
  5368  0021BC  0E10               	movlw	16
  5369  0021BE                     i2u311_47:
  5370  0021BE  2EE8               	decfsz	wreg,f,c
  5371  0021C0  D7FE               	bra	i2u311_47
  5372  0021C2  D000               	nop2	
  5373  0021C4                     
  5374                           ;./lcd.h: 61:    PORTEbits.RE1 = 0;
  5375  0021C4  9284               	bcf	132,1,c	;volatile
  5376  0021C6                     
  5377                           ;./lcd.h: 62:    _delay((unsigned long)((50)*(4000000/4000000.0)));
  5378  0021C6  0E10               	movlw	16
  5379  0021C8                     i2u312_47:
  5380  0021C8  2EE8               	decfsz	wreg,f,c
  5381  0021CA  D7FE               	bra	i2u312_47
  5382  0021CC  D000               	nop2	
  5383  0021CE                     
  5384                           ;./lcd.h: 63:    PORTEbits.RE2 = 1;
  5385  0021CE  8484               	bsf	132,2,c	;volatile
  5386  0021D0  0012               	return		;funcret
  5387  0021D2                     __end_ofi2_LCD_placeCursorInPosition:
  5388                           	callstack 0
  5389                           
  5390 ;; *************** function i2_LCD_clearScreen *****************
  5391 ;; Defined at:
  5392 ;;		line 44 in file "./lcd.h"
  5393 ;; Parameters:    Size  Location     Type
  5394 ;;		None
  5395 ;; Auto vars:     Size  Location     Type
  5396 ;;		None
  5397 ;; Return value:  Size  Location     Type
  5398 ;;                  1    wreg      void 
  5399 ;; Registers used:
  5400 ;;		wreg, status,2
  5401 ;; Tracked objects:
  5402 ;;		On entry : 0/0
  5403 ;;		On exit  : 0/0
  5404 ;;		Unchanged: 0/0
  5405 ;; Data sizes:     COMRAM   BANK0   BANK1   BANK2   BANK3   BANK4   BANK5   BANK6   BANK7
  5406 ;;      Params:         0       0       0       0       0       0       0       0       0
  5407 ;;      Locals:         0       0       0       0       0       0       0       0       0
  5408 ;;      Temps:          0       0       0       0       0       0       0       0       0
  5409 ;;      Totals:         0       0       0       0       0       0       0       0       0
  5410 ;;Total ram usage:        0 bytes
  5411 ;; Hardware stack levels used: 1
  5412 ;; This function calls:
  5413 ;;		Nothing
  5414 ;; This function is called by:
  5415 ;;		_doorController_fire
  5416 ;;		_doorController_invasion
  5417 ;;		i2_doorController_openingDoor
  5418 ;;		i2_doorController_closingDoor
  5419 ;; This function uses a non-reentrant model
  5420 ;;
  5421                           
  5422                           	psect	text29
  5423  0021F0                     __ptext29:
  5424                           	callstack 0
  5425  0021F0                     i2_LCD_clearScreen:
  5426                           	callstack 24
  5427  0021F0                     
  5428                           ;./lcd.h: 46:    PORTEbits.RE2 = 0;
  5429  0021F0  9484               	bcf	132,2,c	;volatile
  5430                           
  5431                           ;./lcd.h: 47:    PORTEbits.RE1 = 1;
  5432  0021F2  8284               	bsf	132,1,c	;volatile
  5433  0021F4                     
  5434                           ;./lcd.h: 48:    PORTD = 0x01;
  5435  0021F4  0E01               	movlw	1
  5436  0021F6  6E83               	movwf	131,c	;volatile
  5437  0021F8                     
  5438                           ;./lcd.h: 49:    _delay((unsigned long)((50)*(4000000/4000000.0)));
  5439  0021F8  0E10               	movlw	16
  5440  0021FA                     i2u313_47:
  5441  0021FA  2EE8               	decfsz	wreg,f,c
  5442  0021FC  D7FE               	bra	i2u313_47
  5443  0021FE  D000               	nop2	
  5444  002200                     
  5445                           ;./lcd.h: 50:    PORTEbits.RE1 = 0;
  5446  002200  9284               	bcf	132,1,c	;volatile
  5447  002202                     
  5448                           ;./lcd.h: 51:    _delay((unsigned long)((50)*(4000000/4000000.0)));
  5449  002202  0E10               	movlw	16
  5450  002204                     i2u314_47:
  5451  002204  2EE8               	decfsz	wreg,f,c
  5452  002206  D7FE               	bra	i2u314_47
  5453  002208  D000               	nop2	
  5454  00220A                     
  5455                           ;./lcd.h: 52:    PORTEbits.RE2 = 1;
  5456  00220A  8484               	bsf	132,2,c	;volatile
  5457  00220C  0012               	return		;funcret
  5458  00220E                     __end_ofi2_LCD_clearScreen:
  5459                           	callstack 0
  5460                           
  5461                           	psect	rparam
  5462  0000                     
  5463                           	psect	temp
  5464  000049                     btemp:
  5465                           	callstack 0
  5466  000049                     	ds	1
  5467  0000                     int$flags	set	btemp
  5468  0000                     wtemp8	set	btemp+1
  5469  0000                     ttemp5	set	btemp+1
  5470  0000                     ttemp6	set	btemp+4
  5471  0000                     ttemp7	set	btemp+8
  5472                           
  5473                           	psect	idloc
  5474                           
  5475                           ;Config register IDLOC0 @ 0x200000
  5476                           ;	unspecified, using default values
  5477  200000                     	org	2097152
  5478  200000  FF                 	db	255
  5479                           
  5480                           ;Config register IDLOC1 @ 0x200001
  5481                           ;	unspecified, using default values
  5482  200001                     	org	2097153
  5483  200001  FF                 	db	255
  5484                           
  5485                           ;Config register IDLOC2 @ 0x200002
  5486                           ;	unspecified, using default values
  5487  200002                     	org	2097154
  5488  200002  FF                 	db	255
  5489                           
  5490                           ;Config register IDLOC3 @ 0x200003
  5491                           ;	unspecified, using default values
  5492  200003                     	org	2097155
  5493  200003  FF                 	db	255
  5494                           
  5495                           ;Config register IDLOC4 @ 0x200004
  5496                           ;	unspecified, using default values
  5497  200004                     	org	2097156
  5498  200004  FF                 	db	255
  5499                           
  5500                           ;Config register IDLOC5 @ 0x200005
  5501                           ;	unspecified, using default values
  5502  200005                     	org	2097157
  5503  200005  FF                 	db	255
  5504                           
  5505                           ;Config register IDLOC6 @ 0x200006
  5506                           ;	unspecified, using default values
  5507  200006                     	org	2097158
  5508  200006  FF                 	db	255
  5509                           
  5510                           ;Config register IDLOC7 @ 0x200007
  5511                           ;	unspecified, using default values
  5512  200007                     	org	2097159
  5513  200007  FF                 	db	255
  5514                           
  5515                           	psect	config
  5516                           
  5517                           ;Config register CONFIG1L @ 0x300000
  5518                           ;	PLL Prescaler Selection bits
  5519                           ;	PLLDIV = 1, No prescale (4 MHz oscillator input drives PLL directly)
  5520                           ;	System Clock Postscaler Selection bits
  5521                           ;	CPUDIV = OSC1_PLL2, [Primary Oscillator Src: /1][96 MHz PLL Src: /2]
  5522                           ;	USB Clock Selection bit (used in Full-Speed USB mode only; UCFG:FSEN = 1)
  5523                           ;	USBDIV = 1, USB clock source comes directly from the primary oscillator block with no 
      +                          postscale
  5524  300000                     	org	3145728
  5525  300000  00                 	db	0
  5526                           
  5527                           ;Config register CONFIG1H @ 0x300001
  5528                           ;	Oscillator Selection bits
  5529                           ;	FOSC = HS, HS oscillator (HS)
  5530                           ;	Fail-Safe Clock Monitor Enable bit
  5531                           ;	FCMEN = OFF, Fail-Safe Clock Monitor disabled
  5532                           ;	Internal/External Oscillator Switchover bit
  5533                           ;	IESO = OFF, Oscillator Switchover mode disabled
  5534  300001                     	org	3145729
  5535  300001  0C                 	db	12
  5536                           
  5537                           ;Config register CONFIG2L @ 0x300002
  5538                           ;	Power-up Timer Enable bit
  5539                           ;	PWRT = OFF, PWRT disabled
  5540                           ;	Brown-out Reset Enable bits
  5541                           ;	BOR = OFF, Brown-out Reset disabled in hardware and software
  5542                           ;	Brown-out Reset Voltage bits
  5543                           ;	BORV = 3, Minimum setting 2.05V
  5544                           ;	USB Voltage Regulator Enable bit
  5545                           ;	VREGEN = OFF, USB voltage regulator disabled
  5546  300002                     	org	3145730
  5547  300002  19                 	db	25
  5548                           
  5549                           ;Config register CONFIG2H @ 0x300003
  5550                           ;	Watchdog Timer Enable bit
  5551                           ;	WDT = ON, WDT enabled
  5552                           ;	Watchdog Timer Postscale Select bits
  5553                           ;	WDTPS = 8192, 1:8192
  5554  300003                     	org	3145731
  5555  300003  1B                 	db	27
  5556                           
  5557                           ; Padding undefined space
  5558  300004                     	org	3145732
  5559  300004  FF                 	db	255
  5560                           
  5561                           ;Config register CONFIG3H @ 0x300005
  5562                           ;	CCP2 MUX bit
  5563                           ;	CCP2MX = ON, CCP2 input/output is multiplexed with RC1
  5564                           ;	PORTB A/D Enable bit
  5565                           ;	PBADEN = OFF, PORTB<4:0> pins are configured as digital I/O on Reset
  5566                           ;	Low-Power Timer 1 Oscillator Enable bit
  5567                           ;	LPT1OSC = OFF, Timer1 configured for higher power operation
  5568                           ;	MCLR Pin Enable bit
  5569                           ;	MCLRE = ON, MCLR pin enabled; RE3 input pin disabled
  5570  300005                     	org	3145733
  5571  300005  81                 	db	129
  5572                           
  5573                           ;Config register CONFIG4L @ 0x300006
  5574                           ;	Stack Full/Underflow Reset Enable bit
  5575                           ;	STVREN = OFF, Stack full/underflow will not cause Reset
  5576                           ;	Single-Supply ICSP Enable bit
  5577                           ;	LVP = OFF, Single-Supply ICSP disabled
  5578                           ;	Dedicated In-Circuit Debug/Programming Port (ICPORT) Enable bit
  5579                           ;	ICPRT = OFF, ICPORT disabled
  5580                           ;	Extended Instruction Set Enable bit
  5581                           ;	XINST = OFF, Instruction set extension and Indexed Addressing mode disabled (Legacy mo
      +                          de)
  5582                           ;	Background Debugger Enable bit
  5583                           ;	DEBUG = 0x1, unprogrammed default
  5584  300006                     	org	3145734
  5585  300006  80                 	db	128
  5586                           
  5587                           ; Padding undefined space
  5588  300007                     	org	3145735
  5589  300007  FF                 	db	255
  5590                           
  5591                           ;Config register CONFIG5L @ 0x300008
  5592                           ;	Code Protection bit
  5593                           ;	CP0 = OFF, Block 0 (000800-001FFFh) is not code-protected
  5594                           ;	Code Protection bit
  5595                           ;	CP1 = OFF, Block 1 (002000-003FFFh) is not code-protected
  5596                           ;	Code Protection bit
  5597                           ;	CP2 = OFF, Block 2 (004000-005FFFh) is not code-protected
  5598                           ;	Code Protection bit
  5599                           ;	CP3 = OFF, Block 3 (006000-007FFFh) is not code-protected
  5600  300008                     	org	3145736
  5601  300008  0F                 	db	15
  5602                           
  5603                           ;Config register CONFIG5H @ 0x300009
  5604                           ;	Boot Block Code Protection bit
  5605                           ;	CPB = OFF, Boot block (000000-0007FFh) is not code-protected
  5606                           ;	Data EEPROM Code Protection bit
  5607                           ;	CPD = OFF, Data EEPROM is not code-protected
  5608  300009                     	org	3145737
  5609  300009  C0                 	db	192
  5610                           
  5611                           ;Config register CONFIG6L @ 0x30000A
  5612                           ;	Write Protection bit
  5613                           ;	WRT0 = OFF, Block 0 (000800-001FFFh) is not write-protected
  5614                           ;	Write Protection bit
  5615                           ;	WRT1 = OFF, Block 1 (002000-003FFFh) is not write-protected
  5616                           ;	Write Protection bit
  5617                           ;	WRT2 = OFF, Block 2 (004000-005FFFh) is not write-protected
  5618                           ;	Write Protection bit
  5619                           ;	WRT3 = OFF, Block 3 (006000-007FFFh) is not write-protected
  5620  30000A                     	org	3145738
  5621  30000A  0F                 	db	15
  5622                           
  5623                           ;Config register CONFIG6H @ 0x30000B
  5624                           ;	Configuration Register Write Protection bit
  5625                           ;	WRTC = OFF, Configuration registers (300000-3000FFh) are not write-protected
  5626                           ;	Boot Block Write Protection bit
  5627                           ;	WRTB = OFF, Boot block (000000-0007FFh) is not write-protected
  5628                           ;	Data EEPROM Write Protection bit
  5629                           ;	WRTD = OFF, Data EEPROM is not write-protected
  5630  30000B                     	org	3145739
  5631  30000B  E0                 	db	224
  5632                           
  5633                           ;Config register CONFIG7L @ 0x30000C
  5634                           ;	Table Read Protection bit
  5635                           ;	EBTR0 = OFF, Block 0 (000800-001FFFh) is not protected from table reads executed in ot
      +                          her blocks
  5636                           ;	Table Read Protection bit
  5637                           ;	EBTR1 = OFF, Block 1 (002000-003FFFh) is not protected from table reads executed in ot
      +                          her blocks
  5638                           ;	Table Read Protection bit
  5639                           ;	EBTR2 = OFF, Block 2 (004000-005FFFh) is not protected from table reads executed in ot
      +                          her blocks
  5640                           ;	Table Read Protection bit
  5641                           ;	EBTR3 = OFF, Block 3 (006000-007FFFh) is not protected from table reads executed in ot
      +                          her blocks
  5642  30000C                     	org	3145740
  5643  30000C  0F                 	db	15
  5644                           
  5645                           ;Config register CONFIG7H @ 0x30000D
  5646                           ;	Boot Block Table Read Protection bit
  5647                           ;	EBTRB = OFF, Boot block (000000-0007FFh) is not protected from table reads executed in
      +                           other blocks
  5648  30000D                     	org	3145741
  5649  30000D  40                 	db	64
  5650                           tosu	equ	0xFFF
  5651                           tosh	equ	0xFFE
  5652                           tosl	equ	0xFFD
  5653                           stkptr	equ	0xFFC
  5654                           pclatu	equ	0xFFB
  5655                           pclath	equ	0xFFA
  5656                           pcl	equ	0xFF9
  5657                           tblptru	equ	0xFF8
  5658                           tblptrh	equ	0xFF7
  5659                           tblptrl	equ	0xFF6
  5660                           tablat	equ	0xFF5
  5661                           prodh	equ	0xFF4
  5662                           prodl	equ	0xFF3
  5663                           indf0	equ	0xFEF
  5664                           postinc0	equ	0xFEE
  5665                           postdec0	equ	0xFED
  5666                           preinc0	equ	0xFEC
  5667                           plusw0	equ	0xFEB
  5668                           fsr0h	equ	0xFEA
  5669                           fsr0l	equ	0xFE9
  5670                           wreg	equ	0xFE8
  5671                           indf1	equ	0xFE7
  5672                           postinc1	equ	0xFE6
  5673                           postdec1	equ	0xFE5
  5674                           preinc1	equ	0xFE4
  5675                           plusw1	equ	0xFE3
  5676                           fsr1h	equ	0xFE2
  5677                           fsr1l	equ	0xFE1
  5678                           bsr	equ	0xFE0
  5679                           indf2	equ	0xFDF
  5680                           postinc2	equ	0xFDE
  5681                           postdec2	equ	0xFDD
  5682                           preinc2	equ	0xFDC
  5683                           plusw2	equ	0xFDB
  5684                           fsr2h	equ	0xFDA
  5685                           fsr2l	equ	0xFD9
  5686                           status	equ	0xFD8

Data Sizes:
    Strings     119
    Constant    0
    Data        8
    BSS         4
    Persistent  0
    Stack       0

Auto Spaces:
    Space          Size  Autos    Used
    COMRAM           94     60      72
    BANK0           160     40      40
    BANK1           256      0       0
    BANK2           256      0       0
    BANK3           256      0       0
    BANK4           256      0       0
    BANK5           256      0       0
    BANK6           256      0       0
    BANK7           256      0       0

Pointer List with Targets:

    strlen@s	PTR const unsigned char  size(2) Largest target is 14
		 -> STR_15(CODE[11]), STR_14(CODE[9]), STR_13(CODE[11]), STR_12(CODE[10]), 
		 -> STR_11(CODE[12]), STR_10(CODE[12]), STR_9(CODE[8]), STR_8(CODE[11]), 
		 -> STR_7(CODE[11]), STR_6(CODE[8]), STR_5(CODE[12]), STR_4(CODE[8]), 
		 -> STR_3(CODE[9]), STR_2(CODE[12]), STR_1(CODE[14]), 

    strlen@a	PTR const unsigned char  size(2) Largest target is 14
		 -> STR_15(CODE[11]), STR_14(CODE[9]), STR_13(CODE[11]), STR_12(CODE[10]), 
		 -> STR_11(CODE[12]), STR_10(CODE[12]), STR_9(CODE[8]), STR_8(CODE[11]), 
		 -> STR_7(CODE[11]), STR_6(CODE[8]), STR_5(CODE[12]), STR_4(CODE[8]), 
		 -> STR_3(CODE[9]), STR_2(CODE[12]), STR_1(CODE[14]), 

    LCD_print@text	PTR unsigned char  size(2) Largest target is 14
		 -> STR_15(CODE[11]), STR_14(CODE[9]), STR_13(CODE[11]), STR_12(CODE[10]), 
		 -> STR_11(CODE[12]), STR_10(CODE[12]), STR_9(CODE[8]), STR_8(CODE[11]), 
		 -> STR_7(CODE[11]), STR_6(CODE[8]), STR_5(CODE[12]), STR_4(CODE[8]), 
		 -> STR_3(CODE[9]), STR_2(CODE[12]), STR_1(CODE[14]), 


Critical Paths under _main in COMRAM

    _main->___fldiv
    _init->_doorController_init
    _doorController_init->_LCD_print
    _doorController_openingDoor->_LCD_print
    _doorController_closingDoor->_LCD_print
    _LCD_print->_LCD_customDelay_ms
    _LCD_print->_strlen
    ___flsub->___fladd
    ___flmul->___xxtofl
    ___fldiv->___flmul

Critical Paths under _interrupt_service_routine in COMRAM

    i2_doorController_openingDoor->i2_LCD_print
    i2_doorController_closingDoor->i2_LCD_print
    _doorController_invasion->i2_LCD_print
    _doorController_fire->i2_LCD_print
    i2_LCD_print->i2_LCD_customDelay_ms
    i2_LCD_print->i2_strlen

Critical Paths under _main in BANK0

    _main->___fldiv
    ___fldiv->___flmul

Critical Paths under _interrupt_service_routine in BANK0

    None.

Critical Paths under _main in BANK1

    None.

Critical Paths under _interrupt_service_routine in BANK1

    None.

Critical Paths under _main in BANK2

    None.

Critical Paths under _interrupt_service_routine in BANK2

    None.

Critical Paths under _main in BANK3

    None.

Critical Paths under _interrupt_service_routine in BANK3

    None.

Critical Paths under _main in BANK4

    None.

Critical Paths under _interrupt_service_routine in BANK4

    None.

Critical Paths under _main in BANK5

    None.

Critical Paths under _interrupt_service_routine in BANK5

    None.

Critical Paths under _main in BANK6

    None.

Critical Paths under _interrupt_service_routine in BANK6

    None.

Critical Paths under _main in BANK7

    None.

Critical Paths under _interrupt_service_routine in BANK7

    None.

Call Graph Tables:

 ---------------------------------------------------------------------------------
 (Depth) Function   	        Calls       Base Space   Used Autos Params    Refs
 ---------------------------------------------------------------------------------
 (0) _main                                                14    14      0   17767
                                             26 BANK0     14    14      0
                            ___fldiv
                             ___fleq
                             ___flge
                            ___flmul
                            ___flsub
                           ___xxtofl
         _doorController_closingDoor
         _doorController_openingDoor
                               _init
 ---------------------------------------------------------------------------------
 (1) _init                                                 0     0      0    2737
                           _ADC_init
                           _LCD_init
                _doorController_init
                     _interrupt_init
 ---------------------------------------------------------------------------------
 (2) _interrupt_init                                       0     0      0       0
 ---------------------------------------------------------------------------------
 (2) _doorController_init                                  2     2      0    2645
                                             38 COMRAM     2     2      0
                    _LCD_clearScreen
          _LCD_placeCursorInPosition
                          _LCD_print
 ---------------------------------------------------------------------------------
 (2) _LCD_init                                             9     9      0      92
                                             22 COMRAM     9     9      0
 ---------------------------------------------------------------------------------
 (2) _ADC_init                                             0     0      0       0
 ---------------------------------------------------------------------------------
 (1) _doorController_openingDoor                           0     0      0    2895
                    _LCD_clearScreen
                 _LCD_customDelay_ms
          _LCD_placeCursorInPosition
                          _LCD_print
 ---------------------------------------------------------------------------------
 (1) _doorController_closingDoor                           0     0      0    2895
                    _LCD_clearScreen
                 _LCD_customDelay_ms
          _LCD_placeCursorInPosition
                          _LCD_print
 ---------------------------------------------------------------------------------
 (3) _LCD_print                                           12     6      6    2623
                                             26 COMRAM    12     6      6
                 _LCD_customDelay_ms
                             _strlen
 ---------------------------------------------------------------------------------
 (4) _strlen                                               4     2      2     166
                                             22 COMRAM     4     2      2
 ---------------------------------------------------------------------------------
 (4) _LCD_customDelay_ms                                   4     0      4     250
                                             22 COMRAM     4     0      4
 ---------------------------------------------------------------------------------
 (3) _LCD_placeCursorInPosition                            1     1      0      22
                                             22 COMRAM     1     1      0
 ---------------------------------------------------------------------------------
 (3) _LCD_clearScreen                                      0     0      0       0
 ---------------------------------------------------------------------------------
 (1) ___xxtofl                                            14    10      4     474
                                             22 COMRAM    14    10      4
 ---------------------------------------------------------------------------------
 (1) ___flsub                                              8     0      8    2737
                                             38 COMRAM     8     0      8
                            ___fladd
 ---------------------------------------------------------------------------------
 (2) ___fladd                                             16     8      8    2262
                                             22 COMRAM    16     8      8
 ---------------------------------------------------------------------------------
 (1) ___flmul                                             25    17      8    2693
                                             36 COMRAM    12     4      8
                                              0 BANK0     13    13      0
                           ___xxtofl (ARG)
 ---------------------------------------------------------------------------------
 (1) ___flge                                              12     4      8     486
                                             22 COMRAM    12     4      8
 ---------------------------------------------------------------------------------
 (1) ___fleq                                              12     4      8     494
                                             22 COMRAM    12     4      8
 ---------------------------------------------------------------------------------
 (1) ___fldiv                                             25    17      8    2183
                                             48 COMRAM    12     4      8
                                             13 BANK0     13    13      0
                            ___flmul (ARG)
                           ___xxtofl (ARG)
 ---------------------------------------------------------------------------------
 Estimated maximum stack depth 4
 ---------------------------------------------------------------------------------
 (Depth) Function   	        Calls       Base Space   Used Autos Params    Refs
 ---------------------------------------------------------------------------------
 (5) _interrupt_service_routine                            6     6      0    3772
                                             16 COMRAM     6     6      0
                _doorController_fire
            _doorController_invasion
       i2_doorController_closingDoor
       i2_doorController_openingDoor
 ---------------------------------------------------------------------------------
 (6) i2_doorController_openingDoor                         0     0      0     993
                  i2_LCD_clearScreen
               i2_LCD_customDelay_ms
        i2_LCD_placeCursorInPosition
                        i2_LCD_print
 ---------------------------------------------------------------------------------
 (6) i2_doorController_closingDoor                         0     0      0     993
                  i2_LCD_clearScreen
               i2_LCD_customDelay_ms
        i2_LCD_placeCursorInPosition
                        i2_LCD_print
 ---------------------------------------------------------------------------------
 (6) _doorController_invasion                              0     0      0     893
                  i2_LCD_clearScreen
        i2_LCD_placeCursorInPosition
                        i2_LCD_print
 ---------------------------------------------------------------------------------
 (6) _doorController_fire                                  0     0      0     893
                  i2_LCD_clearScreen
        i2_LCD_placeCursorInPosition
                        i2_LCD_print
 ---------------------------------------------------------------------------------
 (7) i2_LCD_print                                         12     6      6     871
                                              4 COMRAM    12     6      6
               i2_LCD_customDelay_ms
                           i2_strlen
 ---------------------------------------------------------------------------------
 (8) i2_strlen                                             4     2      2     116
                                              0 COMRAM     4     2      2
 ---------------------------------------------------------------------------------
 (8) i2_LCD_customDelay_ms                                 4     0      4     100
                                              0 COMRAM     4     0      4
 ---------------------------------------------------------------------------------
 (7) i2_LCD_placeCursorInPosition                          1     1      0      22
                                              0 COMRAM     1     1      0
 ---------------------------------------------------------------------------------
 (7) i2_LCD_clearScreen                                    0     0      0       0
 ---------------------------------------------------------------------------------
 Estimated maximum stack depth 8
 ---------------------------------------------------------------------------------

 Call Graph Graphs:

 _main (ROOT)
   ___fldiv
     ___flmul (ARG)
       ___xxtofl (ARG)
     ___xxtofl (ARG)
   ___fleq
   ___flge
   ___flmul
   ___flsub
     ___fladd
   ___xxtofl
   _doorController_closingDoor
     _LCD_clearScreen
     _LCD_customDelay_ms
     _LCD_placeCursorInPosition
     _LCD_print
       _LCD_customDelay_ms
       _strlen
   _doorController_openingDoor
     _LCD_clearScreen
     _LCD_customDelay_ms
     _LCD_placeCursorInPosition
     _LCD_print
   _init
     _ADC_init
     _LCD_init
     _doorController_init
       _LCD_clearScreen
       _LCD_placeCursorInPosition
       _LCD_print
     _interrupt_init

 _interrupt_service_routine (ROOT)
   _doorController_fire
     i2_LCD_clearScreen
     i2_LCD_placeCursorInPosition
     i2_LCD_print
       i2_LCD_customDelay_ms
       i2_strlen
   _doorController_invasion
     i2_LCD_clearScreen
     i2_LCD_placeCursorInPosition
     i2_LCD_print
   i2_doorController_closingDoor
     i2_LCD_clearScreen
     i2_LCD_customDelay_ms
     i2_LCD_placeCursorInPosition
     i2_LCD_print
   i2_doorController_openingDoor
     i2_LCD_clearScreen
     i2_LCD_customDelay_ms
     i2_LCD_placeCursorInPosition
     i2_LCD_print

 Address spaces:
Name               Size   Autos  Total    Cost      Usage
BIGRAM             7FF      0       0      21        0.0%
EEDATA             100      0       0       0        0.0%
BITBANK7           100      0       0      18        0.0%
BANK7              100      0       0      19        0.0%
BITBANK6           100      0       0      16        0.0%
BANK6              100      0       0      17        0.0%
BITBANK5           100      0       0      14        0.0%
BANK5              100      0       0      15        0.0%
BITBANK4           100      0       0      12        0.0%
BANK4              100      0       0      13        0.0%
BITBANK3           100      0       0      10        0.0%
BANK3              100      0       0      11        0.0%
BITBANK2           100      0       0       8        0.0%
BANK2              100      0       0       9        0.0%
BITBANK1           100      0       0       6        0.0%
BANK1              100      0       0       7        0.0%
BITBANK0            A0      0       0       4        0.0%
BANK0               A0     28      28       5       25.0%
BITCOMRAM           5E      0       0       0        0.0%
COMRAM              5E     3C      48       1       76.6%
BITSFR               0      0       0     200        0.0%
SFR                  0      0       0     200        0.0%
STACK                0      0       0       2        0.0%
NULL                 0      0       0       0        0.0%
ABS                  0      0      70      20        0.0%
DATA                 0      0      70       3        0.0%
CODE                 0      0       0       0        0.0%


Microchip Technology PIC18 Macro Assembler V2.32 build 20210201212658 
Symbol Table                                                                                   Wed May 26 15:24:21 2021

                         ___fldiv@aexp 0079                           ___fldiv@bexp 0078  
                         ___fldiv@sign 0071                                     l50 1F8A  
                                   l51 1F8C                                     l54 21EE  
                                   l63 20E6                                     l57 21B0  
                                   l49 1F46                                     l67 1E46  
                                   l69 1EA2                                     l88 2224  
               __end_of_interrupt_init 2226                                    l110 224A  
                                  l120 1CF2                                    l121 1CF4  
                                  l113 1B1A                                    l130 2238  
                                  l116 1C5A                                    l117 1C5C  
                                  l137 16F0                                    l139 16FE  
                                  l413 1A06                                    l407 1BC4  
                                  l418 1A4C                                    l702 0C52  
                                  l703 0C40                                    l730 1500  
                                  l810 15F0                                    l803 1558  
                                  l732 1360                                    l741 13A6  
                                  l718 2072                                    l806 16B4  
                                  l743 141E                                    l735 1324  
                                  l744 140C                                    l817 164C  
                                  l762 0E00                                    l771 106E  
                                  l772 105C                                    l676 0A68  
                                  l693 0B82                                    l685 0D38  
                                  l677 0A56                                    l766 1164  
                                  l678 0A1C                                    l838 20AC  
                                  l769 0FF6                                    l779 1126  
                                  wreg 000FE8                           ___flmul@aexp 0061  
                         ___flmul@bexp 0066                        i2LCD_print@text 0005  
                         ___flmul@sign 0060                           ___flmul@temp 006B  
                         ___flmul@prod 0067                 ??i2_LCD_customDelay_ms 0005  
                                 l2000 09E8                                   l2010 0A3A  
                                 l2002 0A04                                   l2100 0CD8  
                                 l2020 0A86                                   l2012 0A48  
                                 l2004 0A14                                   l2110 0D12  
                                 l2102 0CF8                                   l2030 0AC6  
                                 l2014 0A4A                                   l2006 0A2A  
                                 l3000 1148                                   l2112 0D18  
                                 l2104 0CFC                                   l2040 0AF0  
                                 l2032 0AD2                                   l2024 0A9A  
                                 l2016 0A54                                   l2008 0A36  
                                 l3002 114A                                   l2114 0D26  
                                 l2106 0D0A                                   l2050 0B62  
                                 l2034 0AD6                                   l2026 0AAA  
                                 l2018 0A76                                   l2042 0AF6  
                                 l3004 1150                                   l2116 0D28  
                                 l2108 0D10                                   l2060 0BBC  
                                 l2044 0B1C                                   l2052 0B72  
                                 l2036 0AE4                                   l2028 0AB8  
                                 l2212 2226                                   l3006 1154  
                                 l2070 0BEC                                   l2062 0BC6  
                                 l2054 0B98                                   l2046 0B50  
                                 l2038 0AE6                                   l2150 1BD8  
                                 l2214 222A                                   l2080 0C14  
                                 l2072 0BF0                                   l2064 0BD4  
                                 l2056 0BA8                                   l2048 0B52  
                                 l2160 1C20                                   l2152 1BDC  
                                 l2216 222E                                   l3040 16BA  
                                 l2090 0C6E                                   l2082 0C22  
                                 l2074 0C00                                   l2066 0BD6  
                                 l2162 1C34                                   l2154 1BE2  
                                 l2218 2232                                   l3050 16EE  
                                 l3042 16BA                                   l2500 1B88  
                                 l2092 0C7C                                   l2084 0C38  
                                 l2068 0BE4                                   l2076 0C02  
                                 l2180 1C5E                                   l2164 1C3A  
                                 l2156 1BFE                                   l2148 1BC6  
                                 l3060 1826                                   l3052 1700  
                                 l3044 16CC                                   l2502 1B98  
                                 l2510 194A                                   l2094 0CB6  
                                 l2078 0C10                                   l2190 1C9C  
                                 l2182 1C70                                   l2166 1C56  
                                 l2158 1C04                                   l3062 182A  
                                 l3054 1786                                   l3046 16CC  
                                 l3038 16B6                                   l2504 1BBC  
                                 l2520 19D4                                   l2512 1978  
                                 l2088 0C62                                   l2096 0CB8  
                                 l2192 1CB8                                   l2184 1C74  
                                 l3056 17B8                                   l3048 16DC  
                                 l2506 1BC2                                   l2522 19E6  
                                 l2514 1988                                   l2098 0CC8  
                                 l1810 21E4                                   l1802 21D2  
                                 l2194 1CCC                                   l2186 1C7A  
                                 l3058 181E                                   l2524 19F4  
                                 l2516 19B6                                   l2540 157E  
                                 l2532 1504                                   l1812 21EC  
                                 l1804 21D6                                   l1820 21A4  
                                 l2196 1CD2                                   l2188 1C96  
                                 l1900 1A96                                   l2526 1A44  
                                 l2518 19C6                                   l2550 15D8  
                                 l2534 1514                                   l1806 21DA  
                                 l1822 21A6                                   l1814 2194  
                                 l1830 1E48                                   l2198 1CEE  
                                 l1910 1AD8                                   l1902 1A9C  
                                 l2800 129E                                   l2528 1A4A  
                                 l1920 0886                                   l2560 163C  
                                 l2552 15DA                                   l2544 1592  
                                 l2536 1522                                   l1808 21E2  
                                 l1824 21AE                                   l1816 2198  
                                 l1832 1E62                                   l1840 1E84  
                                 l1912 1AF4                                   l1904 1AB8  
                                 l2810 12F0                                   l2802 12B8  
                                 l1930 08C6                                   l1922 0894  
                                 l2490 203E                                   l2570 1694  
                                 l2562 165A                                   l2554 15E6  
                                 l2546 159A                                   l2538 1568  
                                 l1818 219C                                   l1834 1E76  
                                 l1826 1E26                                   l1914 1AFA  
                                 l1906 1ACE                                   l2820 134C  
                                 l2812 1300                                   l2804 12C8  
                                 l2900 0DAA                                   l1940 08F8  
                                 l1932 08C8                                   l1924 0896  
                                 l2572 16A2                                   l2564 165C  
                                 l2556 1622                                   l2548 15A6  
                                 l1836 1E78                                   l1828 1E3A  
                                 l1860 1F2A                                   l1916 1B16  
                                 l1908 1AD2                                   l2830 138C  
                                 l2822 134E                                   l2814 1314  
                                 l2806 12D8                                   l2750 1194  
                                 l2742 1166                                   l2494 1B1C  
                                 l2910 0DEA                                   l2902 0DB8  
                                 l1950 0920                                   l1942 08FA  
                                 l1926 08A6                                   l1934 08D0  
                                 l1918 087A                                   l2574 16A4  
                                 l2566 1660                                   l2558 162E  
                                 l1790 20BA                                   l1838 1E80  
                                 l1870 1F48                                   l1862 1F2C  
                                 l2840 13C8                                   l2832 1396  
                                 l2824 135E                                   l2816 1322  
                                 l2808 12E8                                   l2760 11CE  
                                 l2752 11A4                                   l2744 1174  
                                 l2496 1B4A                                   l2920 0E34  
                                 l2912 0DF0                                   l2904 0DBA  
                                 l1960 095A                                   l1952 0930  
                                 l1944 0900                                   l1936 08E0  
                                 l1928 08B6                                   l2488 202E  
                                 l2568 1684                                   l1792 2074  
                                 l1880 1F6E                                   l1872 1F58  
                                 l1864 1F3E                                   l2850 143A  
                                 l2842 13D6                                   l2834 13A4  
                                 l2826 1370                                   l2818 132E  
                                 l2770 11FA                                   l2762 11D4  
                                 l2754 11B4                                   l2746 1182  
                                 l2498 1B5A                                   l2930 0E84  
                                 l2922 0E40                                   l2914 0E10  
                                 l2906 0DCA                                   l1970 0986  
                                 l1962 096C                                   l1954 0940  
                                 l1946 090E                                   l1938 08E6  
                                 l1786 20AE                                   l1794 2080  
                                 l1874 1F60                                   l1858 1F22  
                                 l1890 1A4E                                   l1882 220E  
                                 l2860 14A6                                   l2852 1448  
                                 l2844 1404                                   l2828 1386  
                                 l2836 13B6                                   l2780 1234  
                                 l2772 120A                                   l2764 11DA  
                                 l2756 11B6                                   l2748 1184  
                                 l2940 0EC6                                   l2932 0E90  
                                 l2924 0E4A                                   l2916 0E20  
                                 l2908 0DDA                                   l1980 099A  
                                 l1972 098A                                   l1964 097A  
                                 l1956 0942                                   l1948 0910  
                                 l1788 20B2                                   l1796 2084  
                                 l1884 223A                                   l1876 1F62  
                                 l1892 1A52                                   l2870 14F4  
                                 l2862 14C0                                   l2854 1472  
                                 l2838 13C4                                   l2782 124A  
                                 l2774 121A                                   l2766 11E8  
                                 l2758 11BE                                   l2950 0F28  
                                 l2942 0ED2                                   l2934 0E9C  
                                 l2926 0E60                                   l1990 09AE  
                                 l1982 099E                                   l1974 098E  
                                 l1966 097E                                   l1958 094A  
                                 l1798 20A0                                   l1886 223C  
                                 l1878 1F6A                                   l1894 1A58  
                                 l2872 14F6                                   l2864 14DC  
                                 l2848 142E                                   l2856 1476  
                                 l2784 125A                                   l2792 127A  
                                 l2776 121C                                   l2768 11EA  
                                 l2960 0FBE                                   l2952 0F34  
                                 l2944 0EE2                                   l2936 0EAA  
                                 l2928 0E6C                                   l2880 0D3A  
                                 l1992 09B2                                   l1984 09A2  
                                 l1976 0992                                   l1968 0982  
                                 l1888 2248                                   l1896 1A74  
                                 l2866 14E0                                   l2858 1490  
                                 l2794 128A                                   l2786 1262  
                                 l2778 1224                                   l2970 1014  
                                 l2962 0FDC                                   l2954 0F50  
                                 l2946 0EFC                                   l2938 0EB6  
                                 l2890 0D78                                   l2882 0D48  
                                 l1994 09B6                                   l1986 09A6  
                                 l1978 0996                                   l1898 1A7A  
                                 l2868 14EE                                   l2796 128A  
                                 l2788 1266                                   l2980 107E  
                                 l2972 1018                                   l2964 0FE6  
                                 l2956 0F7A                                   l2948 0F0C  
                                 l2892 0D88                                   l2884 0D56  
                                 l1988 09AA                                   l1996 09BA  
                                 l2990 10E0                                   l2982 108A  
                                 l2974 1026                                   l2966 0FF4  
                                 l2958 0FB0                                   l2894 0D8E  
                                 l2886 0D58                                   l1998 09BE  
                                 l2992 10F4                                   l2984 1098  
                                 l2976 1054                                   l2968 1006  
                                 l2896 0D9E                                   l2888 0D68  
                                 l2994 110E                                   l2986 10C2  
                                 l2898 0DA4                                   l2996 112A  
                                 l2988 10C6                                   l2998 113A  
                                 STR_1 0801                                   STR_2 0827  
                                 STR_3 0867                                   STR_4 0870  
                                 STR_5 080F                                   STR_6 0870  
                                 STR_7 083E                                   STR_8 0833  
                                 STR_9 0870                                   u1301 1F36  
                                 u1310 1F8A                                   u1311 1F86  
                                 u2200 19B6                                   u1400 097A  
                                 u1320 0894                                   u2201 19B2  
                                 u1401 0976                                   u1321 0890  
                                 u2210 19D4                                   u1410 09E8  
                                 u1330 08A6                                   u1250 20E6  
                                 u2211 19D0                                   u1411 09E4  
                                 u1331 08A2                                   u1251 20E2  
                                 u2220 19F4                                   u1500 0AC6  
                                 u1420 0A00                                   u1340 08B6  
                                 u2300 164C                                   u1260 20A0  
                                 u2221 19F0                                   u1501 0AC2  
                                 u1421 09FA                                   u1341 08B2  
                                 u2301 1648                                   u1261 209C  
                                 u2230 1A44                                   u1510 0AE4  
                                 u1430 0A02                                   u1350 08F8  
                                 u2310 165A                                   u1270 1EA2  
                                 u2231 1A40                                   u1511 0AE0  
                                 u1351 08F4                                   u2311 1656  
                                 u1271 1E9E                                   u3007 1AC2  
                                 u2160 1B4A                                   u1600 0C22  
                                 u1520 0B1C                                   u1440 0A2A  
                                 u1360 090E                                   u2320 1694  
                                 u2240 1514                                   u2161 1B46  
                                 u1601 0C1E                                   u1521 0B18  
                                 u1441 0A26                                   u1361 090A  
                                 u2321 1690                                   u2241 1510  
                                 u3017 1F5A                                   u2170 1B88  
                                 u1610 0C38                                   u1530 0B62  
                                 u1450 0A48                                   u1370 0920  
                                 u2330 16A2                                   u2250 1522  
                                 u2171 1B84                                   u1611 0C34  
                                 u1531 0B5E                                   u1451 0A44  
                                 u1371 091C                                   u2331 169E  
                                 u2251 151E                                   u3027 1F64  
                                 u2500 1194                                   u2180 1BBC  
                                 u1700 0D26                                   u1620 0C4E  
                                 u1540 0B98                                   u1460 0A68  
                                 u1380 0930                                   u2260 157E  
                                 u2501 1190                                   u2181 1BB8  
                                 u1701 0D22                                   u1621 0C4A  
                                 u1541 0B94                                   u1461 0A64  
                                 u1381 092C                                   u2261 157A  
                                 u3037 1E7A                                   u2510 11A4  
                                 u2190 1978                                   u1630 0C62  
                                 u1550 0BA8                                   u1470 0A76  
                                 u1390 096C                                   u2270 15D4  
                                 u2511 11A0                                   u2191 1974  
                                 u1631 0C5E                                   u1551 0BA4  
                                 u1471 0A72                                   u1391 0968  
                                 u2271 15D0                                   u3047 20B4  
                                 u2600 1370                                   u2520 11E8  
                                 u1640 0C7C                                   u1560 0BD4  
                                 u1480 0A86                                   u2280 161E  
                                 u1720 1BD8                                   u2601 136C  
                                 u2521 11E4                                   u1641 0C78  
                                 u1561 0BD0                                   u1481 0A82  
                                 u2281 161A                                   u3057 219E  
                                 u1721 1BD4                                   u2610 1386  
                                 u2530 11FA                                   u1650 0CB6  
                                 u1570 0BE4                                   u1490 0AB8  
                                 u2290 163C                                   u1730 1C70  
                                 u2611 1382                                   u2531 11F6  
                                 u1651 0CB2                                   u1571 0BE0  
                                 u1491 0AB4                                   u2291 1638  
                                 u3067 21A8                                   u1731 1C6C  
                                 u2700 14C0                                   u2620 13A4  
                                 u2540 120A                                   u1660 0CC8  
                                 u1580 0C00                                   u2701 14BC  
                                 u2621 13A0                                   u2541 1206  
                                 u1661 0CC4                                   u1581 0BFC  
                                 u3077 21DC                                   u2710 14EE  
                                 u2630 13C4                                   u2550 124A  
                                 u1670 0CD8                                   u1590 0C10  
                                 u2711 14EA                                   u2631 13C0  
                                 u2551 1246                                   u1671 0CD4  
                                 u1591 0C0C                                   u3087 21E6  
                                 u2640 13D6                                   u2560 128A  
                                 u2800 0F9A                                   u2720 0D56  
                                 u1680 0CF8                                   u2641 13D2  
                                 u2561 1286                                   u2721 0D52  
                                 u1681 0CF4                                   u2650 1404  
                                 u2570 1300                                   u2490 1182  
                                 u2810 0FF4                                   u2730 0D68  
                                 u1690 0D0A                                   u2651 1400  
                                 u2571 12FC                                   u2491 117E  
                                 u2811 0FF0                                   u2731 0D64  
                                 u1691 0D06                                   u2660 141A  
                                 u2580 1322                                   u2900 1148  
                                 u2820 1014                                   u2740 0D78  
                                 u2661 1416                                   u2581 131E  
                                 u2901 1144                                   u2821 1010  
                                 u2805 0F90                                   u2741 0D74  
                                 u2670 142E                                   u2590 134C  
                                 u2830 1026                                   u2750 0DB8  
                                 u2671 142A                                   u2591 1348  
                                 u2831 1022                                   u2751 0DB4  
                                 u2680 1448                                   u2840 1054  
                                 u2760 0DCA                                   u2681 1444  
                                 u2841 1050                                   u2761 0DC6  
                                 u2690 1490                                   u2850 106A  
                                 u2770 0DDA                                   u2691 148C  
                                 u2851 1066                                   u2771 0DD6  
                                 u2860 107E                                   u2780 0E10  
                                 u2861 107A                                   u2781 0E0C  
                                 u2870 1098                                   u2790 0E20  
                                 u2950 16DC                                   u2871 1094  
                                 u2791 0E1C                                   u2951 16D8  
                                 u2880 10E0                                   u2960 16EE  
                                 u2881 10DC                                   u2961 16EA  
                                 u2890 110E                                   u2970 16FE  
                                 u2891 110A                                   u2971 16FA  
                                 u2980 17B8                                   u2981 17B4  
                                 u2990 181E                                   u2991 181A  
                                 i2l54 220C                                   i2l63 215A  
                                 i2l57 21D0                                   i2l67 1EC4  
                                 i2l69 1F20                                   i2l93 18C4  
                                 i2l97 1878                                   i2l98 18C2  
                                 _main 16B6                                   _init 2226  
                       LCD_init@config 0017                      i2_LCD_clearScreen 21F0  
                                 indf2 000FDF                                   fsr1l 000FE1  
                                 fsr2l 000FD9                                   btemp 0049  
                                 prodh 000FF4                                   prodl 000FF3  
                                 start 000E                       __end_of_ADC_init 224C  
                      ___fldiv@new_exp 0072                     ?i2_LCD_clearScreen 0001  
                     i2LCD_print@delay 0007                     __size_of_LCD_print 007E  
                         ___param_bank 000000                    ??i2_LCD_clearScreen 0001  
                     __end_of_LCD_init 1F8E                           main@distance 0080  
                      __end_of___fladd 0D3A                                  ?_main 0001  
                                ?_init 0001                        __end_of___fldiv 1502  
                                STR_10 081B                                  STR_11 080F  
                                STR_12 0854                                  STR_13 0849  
                                STR_14 085E                                  STR_15 0849  
                      __end_of___flmul 1166                        __end_of___flsub 2074  
                      ?_interrupt_init 0001                                  i2l100 1934  
                                i2l103 18E8                                  i2l120 1E22  
                                i2l104 1932                                  i2l121 1E24  
                                i2l107 1936                                  i2l124 202C  
                                i2l116 1D8A                                  i2l117 1D8C  
                                i2l127 1FDC                                  i2l838 2120  
                                _PORTD 000F83                                  _TRISD 000F95  
                                _TRISE 000F96              __end_ofi2_LCD_clearScreen 220E  
                                tablat 000FF5         ??i2_doorController_openingDoor 0011  
                         ?i2_LCD_print 0005                                  plusw1 000FE3  
                                plusw2 000FDB                                  ttemp5 004A  
                                ttemp6 004D                                  ttemp7 0051  
                                status 000FD8                                  wtemp8 004A  
  __end_ofi2_LCD_placeCursorInPosition 21D2            i2_LCD_placeCursorInPosition 21B2  
                     __end_ofi2_strlen 2122                      i2LCD_print@length 000D  
                      __initialization 215C                      ??_LCD_clearScreen 0017  
                         __end_of_main 1842                           __end_of_init 223A  
                               ??_main 007A                                 ??_init 0029  
                        __activetblptr 000002             __end_of_LCD_customDelay_ms 20E8  
                 LCD_customDelay_ms@ms 0017                      __end_of_LCD_print 1EA4  
                               _ADCON0 000FC2                                 _ADCON1 000FC1  
                               _ADCON2 000FC0                                 _ADRESH 000FC4  
                               _ADRESL 000FC3           ??_doorController_closingDoor 0027  
                               i2l2120 21B4                                 i2l2200 1F8E  
                               i2l2130 21CE                                 i2l2122 21B8  
                               i2l2210 1FD6                                 i2l2202 1F92  
                               i2l1180 2200                                 i2l2124 21BC  
                               i2l2140 1EF4                                 i2l2132 1EA4  
                               i2l2204 1F98                                 i2l1182 2202  
                               i2l1174 21F0                                 i2l2126 21C4  
                               i2l2142 1EF6                                 i2l2134 1EB8  
                               i2l2206 1FB4                                 i2l1184 220A  
                               i2l1176 21F4                                 i2l2128 21C6  
                               i2l2144 1EFE                                 i2l2136 1EC6  
                               i2l2208 1FBA                                 i2l3104 189C  
                               i2l1178 21F8                                 i2l2138 1EE0  
                               i2l2146 1F02                                 i2l2170 1FE2  
                               i2l3106 190C                                 i2l2172 1FE8  
                               i2l2174 2004                                 i2l2176 200A  
                               i2l2168 1FDE                                 i2l2600 1DA0  
                               i2l2178 2026                                 i2l2610 1DE8  
                               i2l2602 1DA4                                 i2l2612 1DFC  
                               i2l2604 1DAA                                 i2l2614 1E02  
                               i2l2606 1DC6                                 i2l2616 1E1E  
                               i2l2608 1DCC                                 i2l1842 2122  
                               i2l1850 20F4                                 i2l1844 2126  
                               i2l1852 20F8                                 i2l2580 1D08  
                               i2l2652 1874                                 i2l1846 212E  
                               i2l1854 2114                                 i2l2590 1D50  
                               i2l2582 1D0C                                 i2l2662 18E4  
                               i2l2654 1880                                 i2l2646 1854  
                               i2l1848 20E8                                 i2l2592 1D64  
                               i2l2584 1D12                                 i2l2664 18F0  
                               i2l2656 1888                                 i2l2648 1862  
                               i2l2594 1D6A                                 i2l2586 1D2E  
                               i2l2578 1CF6                                 i2l2666 18F8  
                               i2l2658 18D2                                 i2l2596 1D86  
                               i2l2588 1D34                                 i2l2598 1D8E  
                     __end_of___xxtofl 16B6                                 ___flge 194A  
                               ___fleq 1B1C                              ??___fladd 001F  
                            ??___fldiv 0039                              ??___flmul 002D  
                            ??___flsub 002F                                 isa$std 000001  
                               _strlen 2074    __size_of_doorController_closingDoor 0098  
                       LCD_print@delay 001D                           __pdataCOMRAM 003D  
             ?_doorController_invasion 0001                           __mediumconst 0000  
                               tblptrh 000FF7                                 tblptrl 000FF6  
                               tblptru 000FF8                              ?_ADC_init 0001  
           __size_ofi2_LCD_clearScreen 001E                             ___flge@ff1 0017  
                           ___flge@ff2 001B                           ___xxtofl@arg 0021  
                         ___xxtofl@exp 0020                           ___xxtofl@val 0017  
                           ___fleq@ff1 0017                             ___fleq@ff2 001B  
                           __accesstop 0060                __end_of__initialization 2184  
                            ?_LCD_init 0001                          ___rparam_used 000001  
          ??_interrupt_service_routine 0011                         __pcstackCOMRAM 0001  
                            LCD_init@i 001E     __size_of_LCD_placeCursorInPosition 0020  
           ?_LCD_placeCursorInPosition 0001   __end_ofi2_doorController_closingDoor 1E26  
__size_ofi2_doorController_closingDoor 0098           i2_doorController_closingDoor 1D8E  
                           ??_ADC_init 0017                              ?i2_strlen 0001  
         __size_of_doorController_fire 0050           __size_of_doorController_init 00CE  
                           ??_LCD_init 0017                   __size_ofi2_LCD_print 007E  
                              ?___flge 0017                                ?___fleq 0017  
                     ??_interrupt_init 0017                                ?_strlen 0017  
            _interrupt_service_routine 0008                              ?___xxtofl 0017  
         ??_doorController_openingDoor 0027      __end_of_LCD_placeCursorInPosition 21B2  
                           ??i2_strlen 0003     __end_of_doorController_closingDoor 1CF6  
        ?i2_doorController_closingDoor 0001             _doorController_closingDoor 1C5E  
                         i2LCD_print@i 000F                        _LCD_clearScreen 21D2  
        __size_ofi2_LCD_customDelay_ms 003A                             _doorStatus 0044  
                              __Hparam 0000                                __Lparam 0000  
                      __size_of___flge 0104                        __size_of___fleq 00AA  
                              ___fladd 087A                                ___fldiv 1166  
                              ___flmul 0D3A                                ___flsub 202E  
  __size_of_doorController_openingDoor 0098                           __psmallconst 0800  
                              __pcinit 215C                                __ramtop 0800  
                              __ptext0 16B6                                __ptext1 2226  
                              __ptext2 220E                                __ptext3 1A4E  
                              __ptext4 1F22                                __ptext5 223A  
                              __ptext6 1BC6                                __ptext7 1C5E  
                              __ptext8 1E26                                __ptext9 2074  
                      __size_of_strlen 003A                             ??___xxtofl 001B  
                       __pintcode_body 1842                   end_of_initialization 2184  
                            _LCD_print 1E26                     _LCD_customDelay_ms 20AE  
                        __Lmediumconst 0000                                int_func 1842  
                      LCD_print@length 0023                    ?_LCD_customDelay_ms 0017  
                              postdec1 000FE5                                postinc0 000FEE  
                              strlen@a 0019                                strlen@s 0017  
 __end_ofi2_doorController_openingDoor 1D8E  __size_ofi2_doorController_openingDoor 0098  
         i2_doorController_openingDoor 1CF6                              _PORTEbits 000F84  
                          ___fladd@grs 0026                __end_of_LCD_clearScreen 21F0  
                 ??_LCD_customDelay_ms 001B                          ___xxtofl@sign 001F  
                            _TRISAbits 000F92                            ___fldiv@grs 0074  
                          ___fldiv@rem 006D                          LCD_init@F3785 003D  
                    __size_of_ADC_init 0012                             ?_LCD_print 001B  
                          ___flmul@grs 0062       __size_of_doorController_invasion 0050  
                    __size_of_LCD_init 006C                         __end_of___flge 1A4E  
                       __end_of___fleq 1BC6                    _doorController_fire 1FDE  
                  _doorController_init 1A4E                          __pidataCOMRAM 224C  
                           floorf@F527 0045     __end_of_doorController_openingDoor 1C5E  
        ?i2_doorController_openingDoor 0001             _doorController_openingDoor 1BC6  
          ??_LCD_placeCursorInPosition 0017                         __end_of_strlen 20AE  
                  start_initialization 215C                   ?_doorController_fire 0001  
                 ?_doorController_init 0001                             LCD_print@i 0025  
                    __size_ofi2_strlen 003A                              i2strlen@a 0003  
                            i2strlen@s 0001     __size_of_interrupt_service_routine 1942  
                             ??___flge 001F                               ??___fleq 001F  
                        LCD_print@text 001B                               ??_strlen 0019  
                            ___fladd@a 001B                              ___fladd@b 0017  
                            ___fldiv@a 0035                              ___fldiv@b 0031  
                            ___flmul@a 0029                              ___flmul@b 0025  
                          __pbssCOMRAM 0045                              ___flsub@a 002B  
                            ___flsub@b 0027                       ?_LCD_clearScreen 0001  
                        __pcstackBANK0 0060                      __size_of___xxtofl 01B4  
                ??_doorController_fire 0011                  ??_doorController_init 0027  
          ?_doorController_closingDoor 0001                          ??i2_LCD_print 000B  
                          ??_LCD_print 0021      LCD_placeCursorInPosition@position 0017  
  i2LCD_placeCursorInPosition@position 0001      __end_of_interrupt_service_routine 194A  
         ?i2_LCD_placeCursorInPosition 0001              _LCD_placeCursorInPosition 2192  
                    main@previousValue 007C                              __pintcode 0008  
                             ?___fladd 0017                               ?___fldiv 0031  
                             ?___flmul 0025                               ?___flsub 0027  
         __end_ofi2_LCD_customDelay_ms 215C                            __smallconst 0800  
                             _ADC_init 223A                _doorController_invasion 1F8E  
                             _LCD_init 1F22                               i2u310_47 2128  
                             i2u311_47 21BE                               i2u128_40 215A  
                             i2u240_40 1862                               i2u128_41 2156  
                             i2u240_41 185E                               i2u312_47 21C8  
                             i2u129_40 2114                               i2u241_40 1870  
                             i2u129_41 2110                               i2u241_41 186C  
                             i2u313_47 21FA                               i2u234_40 1D08  
                             i2u242_40 18D2                               i2u234_41 1D04  
                             i2u242_41 18CE                               i2u314_47 2204  
                             i2u171_40 1F20                               i2u235_40 1DA0  
                             i2u243_40 18E0                               i2u171_41 1F1C  
                             i2u235_41 1D9C                               i2u243_41 18DC  
        ??i2_LCD_placeCursorInPosition 0001                               i2u309_47 1EF8  
                  __end_ofi2_LCD_print 1F22                               _RCONbits 000FD0  
                           _ADCON0bits 000FC2                 i2LCD_customDelay_ms@ms 0001  
                            main@value 0084                __size_of_interrupt_init 0018  
                             i2_strlen 20E8                            _INTCON2bits 000FF1  
                          _INTCON3bits 000FF0                              copy_data0 2170  
                             __Hrparam 0000                               __Lrparam 0000  
                     __size_of___fladd 04C0                       __size_of___fldiv 039C  
                     __size_of___flmul 042C                       __size_of___flsub 0046  
          ?_doorController_openingDoor 0001   __size_ofi2_LCD_placeCursorInPosition 0020  
                             ___xxtofl 1502            __size_of_LCD_customDelay_ms 003A  
                             __ptext10 20AE                               __ptext11 2192  
                             __ptext12 21D2                               __ptext21 1CF6  
                             __ptext13 1502                               __ptext22 1D8E  
                             __ptext14 202E                               __ptext23 1F8E  
                             __ptext15 087A                               __ptext24 1FDE  
                             __ptext16 0D3A                               __ptext25 1EA4  
                             __ptext17 194A                               __ptext26 20E8  
                             __ptext18 1B1C                               __ptext27 2122  
                             __ptext19 1166                               __ptext28 21B2  
                             __ptext29 21F0              ??_doorController_invasion 0011  
                 i2_LCD_customDelay_ms 2122                            i2_LCD_print 1EA4  
                        __size_of_main 018C                          __size_of_init 0014  
                             isa$xinst 000000                               int$flags 0049  
                           _INTCONbits 000FF2                               intlevel2 0000  
                ?i2_LCD_customDelay_ms 0001         ??i2_doorController_closingDoor 0011  
      __end_of_doorController_invasion 1FDE            __end_of_doorController_fire 202E  
          __end_of_doorController_init 1B1C                         _interrupt_init 220E  
                        ___fladd@signs 0023               __size_of_LCD_clearScreen 001E  
                         ___fladd@aexp 0024                           ___fladd@bexp 0025  
           ?_interrupt_service_routine 0001  
